(lp1
(lp2
(lp3
(S'bromwell'
S'RB'
p4
tp5
a(S'high'
S'JJ'
p6
tp7
a(S'cartoon'
S'NN'
p8
tp9
a(S'comedy'
g8
tp10
aa(lp11
(Vran
g6
tp12
a(Vtime
S'NN'
p13
tp14
a(Vprogram
S'NN'
p15
tp16
a(Vschool
S'NN'
p17
tp18
a(Vlife
S'NN'
p19
tp20
a(Vteacher
g8
tp21
aa(lp22
(Vyear
S'NN'
p23
tp24
a(Vteaching
S'VBG'
p25
tp26
a(Vprofession
g8
tp27
a(Vlead
g8
tp28
a(Vbelieve
S'VBP'
p29
tp30
a(Vbromwell
g4
tp31
a(Vhigh
g6
tp32
a(Vsatire
g8
tp33
a(Vmuch
g4
tp34
a(Vcloser
S'RBR'
p35
tp36
a(Vreality
g8
tp37
a(Vteacher
g8
tp38
aa(lp39
(Vscramble
g6
tp40
a(Vsurvive
g8
tp41
a(Vfinancially
g4
tp42
a(Vinsightful
g6
tp43
a(Vstudent
g8
tp44
a(Vsee
S'VB'
p45
tp46
a(Vright
g6
tp47
a(Vpathetic
g6
tp48
a(Vteacher
g8
tp49
a(Vpomp
g8
tp50
a(Vpettiness
g6
tp51
a(Vwhole
g6
tp52
a(Vsituation
S'NN'
p53
tp54
a(Vremind
g8
tp55
a(Vschool
g17
tp56
a(Vknew
S'VBD'
p57
tp58
a(Vstudent
g8
tp59
aa(lp60
(S'saw'
g8
tp61
a(S'episode'
g8
tp62
a(S'student'
g8
tp63
a(S'repeatedly'
g4
tp64
a(S'tried'
g57
tp65
a(S'burn'
g6
tp66
a(S'school'
g17
tp67
a(S'immediately'
S'RB'
p68
tp69
a(S'recalled'
g57
tp70
a(S'high'
g6
tp71
aa(lp72
(Vclassic
g6
tp73
a(Vline
S'NN'
p74
tp75
a(Vinspector
g8
tp76
a(Vsack
g8
tp77
a(Vone
S'CD'
p78
tp79
a(Vteacher
g8
tp80
aa(lp81
(S'student'
g8
tp82
a(S'welcome'
g8
tp83
a(S'bromwell'
g8
tp84
a(S'high'
g6
tp85
aa(lp86
(Vexpect
g45
tp87
a(Vmany
S'JJ'
p88
tp89
a(Vadult
g6
tp90
a(Vage
S'NN'
p91
tp92
a(Vthink
g29
tp93
a(Vbromwell
g4
tp94
a(Vhigh
g6
tp95
a(Vfar
S'RB'
p96
tp97
a(Vfetched
g57
tp98
aa(lp99
(S'pity'
p100
g8
tp101
aaa(lp102
(lp103
(Vmale
g8
tp104
a(Vnot
S'RB'
p105
tp106
a(Vgiven
S'VBN'
p107
tp108
a(Vwoman
S'NN'
p109
tp110
a(Vmovie
S'NN'
p111
tp112
a(Vbut
S'CC'
p113
tp114
a(Vreally
S'RB'
p115
tp116
a(Vwell
g4
tp117
a(Vdone
S'VBN'
p118
tp119
a(Vspecial
g6
tp120
a(Vstory
S'NN'
p121
tp122
aa(lp123
(S'no'
S'DT'
p124
tp125
a(S'personal'
S'JJ'
p126
tp127
a(S'love'
g8
tp128
a(S'jane'
g8
tp129
a(S'fonda'
g8
tp130
a(S'person'
S'NN'
p131
tp132
a(S'but'
g113
tp133
a(S'one'
g78
tp134
a(S'hell'
g8
tp135
a(S'fine'
g6
tp136
a(S'job'
S'NN'
p137
tp138
a(S'deniro'
g6
tp139
a(S'usual'
g6
tp140
a(S'superb'
g8
tp141
a(S'self'
g8
tp142
aa(lp143
(Veverything
S'NN'
p144
tp145
a(Vwell
g4
tp146
a(Vdone
g118
tp147
a(Vacting
g25
tp148
a(Vdirecting
g8
tp149
a(Vvisuals
S'NNS'
p150
tp151
a(Vsetting
g25
tp152
a(Vphotography
g8
tp153
a(Vcasting
g8
tp154
aa(lp155
(S'if'
S'IN'
p156
tp157
a(S'enjoy'
g6
tp158
a(S'story'
g121
tp159
a(S'real'
S'JJ'
p160
tp161
a(S'people'
S'NNS'
p162
tp163
a(S'real'
g160
tp164
a(S'love'
g8
tp165
a(S'winner'
g8
tp166
aaa(lp167
(lp168
(S'liked'
S'VBN'
p169
tp170
a(S'stanley'
g6
tp171
a(S'iris'
g6
tp172
a(S'very'
g4
tp173
a(S'much'
g6
tp174
aa(lp175
(S'acting'
g25
tp176
a(S'very'
g4
tp177
a(S'good'
g6
tp178
aa(lp179
(S'story'
g121
tp180
a(S'unique'
g6
tp181
a(S'interesting'
g6
tp182
a(S'arrangement'
g8
tp183
aa(lp184
(S'absence'
g8
tp185
a(S'violence'
g8
tp186
a(S'porno'
g8
tp187
a(S'sex'
g8
tp188
a(S'refreshing'
g8
tp189
aa(lp190
(Vcharacter
g8
tp191
a(Vvery
g4
tp192
a(Vconvincing
g6
tp193
a(Vfelt
g150
tp194
a(Vlike
S'IN'
p195
tp196
a(Vcould
S'MD'
p197
tp198
a(Vunderstand
g45
tp199
a(Vfeeling
g8
tp200
aa(lp201
(S'very'
g4
tp202
a(S'enjoyable'
g6
tp203
a(S'movie'
g111
tp204
aaa(lp205
(lp206
(S'liked'
g169
tp207
a(S'stanley'
g6
tp208
a(S'iris'
g6
tp209
a(S'very'
g4
tp210
a(S'much'
g6
tp211
aa(lp212
(S'acting'
g25
tp213
a(S'very'
g4
tp214
a(S'good'
g6
tp215
aa(lp216
(S'story'
g121
tp217
a(S'unique'
g6
tp218
a(S'interesting'
g6
tp219
a(S'arrangement'
g8
tp220
aa(lp221
(S'absence'
g8
tp222
a(S'violence'
g8
tp223
a(S'sex'
g8
tp224
a(S'refreshing'
g8
tp225
aa(lp226
(Vcharacter
g8
tp227
a(Vvery
g4
tp228
a(Vconvincing
g6
tp229
a(Vfelt
g150
tp230
a(Vlike
g195
tp231
a(Vcould
g197
tp232
a(Vunderstand
g45
tp233
a(Vfeeling
g8
tp234
aa(lp235
(S'very'
g4
tp236
a(S'enjoyable'
g6
tp237
a(S'movie'
g111
tp238
aaa(lp239
(lp240
(S'production'
S'NN'
p241
tp242
a(S'quality'
g8
tp243
a(S'cast'
g29
tp244
a(S'premise'
g8
tp245
a(S'authentic'
g6
tp246
a(S'new'
S'JJ'
p247
tp248
a(S'england'
g8
tp249
a(S'waterbury'
g8
tp250
a(S'ct'
g8
tp251
aa(lp252
(Vlocale
g6
tp253
a(Vlush
g8
tp254
a(Vjohn
g8
tp255
a(Vwilliams
g150
tp256
a(Vscore
g4
tp257
a(Vresulted
g57
tp258
a(Vstar
g8
tp259
a(Vcollector
g8
tp260
a(Vitem
g8
tp261
aa(lp262
(S'unfortunately'
g4
tp263
a(S'got'
g57
tp264
a(S'passable'
g6
tp265
a(S'star'
g8
tp266
a(S'decent'
g8
tp267
a(S'flick'
g8
tp268
a(S'mostly'
S'RB'
p269
tp270
a(S'memorable'
g6
tp271
a(S'tried'
g57
tp272
a(S'bring'
g6
tp273
a(S'art'
g8
tp274
a(S'house'
S'NN'
p275
tp276
a(S'style'
S'NN'
p277
tp278
a(S'film'
S'NN'
p279
tp280
a(S'mainstream'
g8
tp281
aa(lp282
(Vsmall
S'JJ'
p283
tp284
a(Vtown
S'NN'
p285
tp286
a(Vlocale
g6
tp287
a(Vstory
g121
tp288
a(Vordinary
g6
tp289
a(Vpeople
g162
tp290
a(Vgenre
g29
tp291
a(Vif
g156
tp292
a(Vwell
g4
tp293
a(Vdone
g118
tp294
a(Vsatisfy
g8
tp295
a(Vmost
S'RBS'
p296
tp297
a(Vgrownup
g8
tp298
aa(lp299
(S'jane'
g8
tp300
a(S'fonda'
g8
tp301
a(S'unable'
g6
tp302
a(S'hide'
g8
tp303
a(S'braininess'
g8
tp304
a(S'enough'
g6
tp305
a(S'make'
g29
tp306
a(S'character'
g8
tp307
a(S'believable'
g8
tp308
aa(lp309
(S'wondered'
g169
tp310
a(S'post'
g8
tp311
a(S'doctorate'
g8
tp312
a(S'yale'
g8
tp313
a(S'instead'
S'RB'
p314
tp315
a(S'working'
g25
tp316
a(S'dead'
g6
tp317
a(S'end'
g8
tp318
a(S'factory'
g8
tp319
a(S'job'
g137
tp320
a(S'waterbury'
g8
tp321
aa(lp322
(S'robert'
g8
tp323
a(S'diniro'
g8
tp324
a(S'character'
g8
tp325
a(S'bit'
g8
tp326
a(S'contrived'
g57
tp327
aa(lp328
(Villiterate
g6
tp329
a(Vnice
g6
tp330
a(Vguy
g8
tp331
a(Vloser
g35
tp332
a(Vturn
g45
tp333
a(Vactually
S'RB'
p334
tp335
a(Vlittle
g6
tp336
a(Vhelp
g8
tp337
a(Vjane
g8
tp338
a(Vcharacter
g8
tp339
a(Vversion
S'NN'
p340
tp341
a(Vhenry
g8
tp342
a(Vford
g8
tp343
a(Vthomas
S'VBZ'
p344
tp345
a(Vedison
g6
tp346
a(Vgenre
g150
tp347
a(Vsuccessfully
g4
tp348
a(Vhandled
g57
tp349
a(Vnobody
g8
tp350
a(Vfool
g8
tp351
a(Vmid
g6
tp352
a(Vyear
g23
tp353
a(Vschmidt
g8
tp354
aa(lp355
(Vwish
g6
tp356
a(Vmain
S'JJ'
p357
tp358
a(Vstream
g8
tp359
a(Vstudio
S'NN'
p360
tp361
a(Vwould
S'MD'
p362
tp363
a(Vtry
g45
tp364
a(Vstuff
g8
tp365
a(Vpost
g8
tp366
a(Vadolescent
g8
tp367
a(Vreserve
g8
tp368
a(Vcouple
g8
tp369
a(Vscreen
g8
tp370
a(Vmulti
g8
tp371
a(Vcinema
g8
tp372
a(Vcomplex
g6
tp373
a(Veffort
S'NN'
p374
tp375
a(Vgive
g8
tp376
a(Veffort
g374
tp377
aaa(lp378
(lp379
(S'film'
g279
tp380
a(S'special'
g6
tp381
a(S'place'
g8
tp382
a(S'heart'
S'NN'
p383
tp384
a(S'caught'
g57
tp385
a(S'first'
g6
tp386
a(S'time'
g13
tp387
a(S'teaching'
g25
tp388
a(S'adult'
g8
tp389
a(S'literacy'
g8
tp390
aa(lp391
(S'rang'
g45
tp392
a(S'very'
g4
tp393
a(S'true'
S'JJ'
p394
tp395
a(S'even'
g4
tp396
a(S'outstanding'
S'JJ'
p397
tp398
a(S'student'
g8
tp399
a(S'time'
g13
tp400
aa(lp401
(Vscene
g8
tp402
a(Vmake
g29
tp403
a(Vgulp
g8
tp404
a(Vsudden
g6
tp405
a(Vemotion
g8
tp406
a(Veven
g4
tp407
a(Vput
g57
tp408
a(Vsmile
g6
tp409
a(Vface
g8
tp410
a(Vsheer
g8
tp411
a(Videntification
g8
tp412
a(Vcharacter
g8
tp413
a(Vsituation
g53
tp414
aa(lp415
(Vexcellent
g6
tp416
a(Vperformance
S'NN'
p417
tp418
a(Vjane
g8
tp419
a(Vfonda
g8
tp420
a(Vrobert
g8
tp421
a(Vdeniro
g8
tp422
a(Vrank
g8
tp423
a(Vbest
S'JJS'
p424
tp425
a(Vwork
g8
tp426
a(Vgreat
S'JJ'
p427
tp428
a(Vturn
g8
tp429
a(Vyoung
S'JJ'
p430
tp431
a(Vmartha
g29
tp432
a(Vplimpton
g6
tp433
a(Vinspiring
g25
tp434
a(Vstory
g121
tp435
a(Vline
g74
tp436
a(Vhaunting
g25
tp437
a(Vmusical
g6
tp438
a(Vscore
g8
tp439
a(Vmake
g29
tp440
a(Vmost
g296
tp441
a(Venjoyable
g6
tp442
a(Vrewarding
g8
tp443
a(Vexperience
g8
tp444
aaa(lp445
(lp446
(S'guess'
g8
tp447
a(S'if'
g156
tp448
a(S'film'
g279
tp449
a(S'magic'
g29
tp450
a(S'need'
g8
tp451
a(S'fluid'
g8
tp452
a(S'seamless'
g8
tp453
aa(lp454
(Vskip
g8
tp455
a(Vbackground
g8
tp456
a(Vinformation
S'NN'
p457
tp458
a(Vgo
g29
tp459
a(Vfast
g4
tp460
a(Vplace
g8
tp461
a(Vslow
g6
tp462
a(Vothers
S'NNS'
p463
tp464
a(Vetc
g29
tp465
aa(lp466
(S'magic'
g6
tp467
a(S'film'
g279
tp468
a(S'scene'
g8
tp469
a(S'library'
g8
tp470
aa(lp471
(Vmany
g88
tp472
a(Vminor
g6
tp473
a(Vflaw
g8
tp474
a(Vstanley
g8
tp475
a(Viris
g8
tp476
a(Vyet
g4
tp477
a(Vdetract
g6
tp478
a(Voverall
g6
tp479
a(Vpositive
S'JJ'
p480
tp481
a(Vimpact
g8
tp482
a(Vwatching
g25
tp483
a(Vpeople
g162
tp484
a(Vhelp
g29
tp485
a(Varea
S'NN'
p486
tp487
a(Vlife
g19
tp488
a(Vseem
g29
tp489
a(Vmost
g296
tp490
a(Vincomprehensible
g6
tp491
a(Vhardest
g8
tp492
a(Vfix
g8
tp493
aa(lp494
(Vcharacter
g8
tp495
a(Vsmart
g8
tp496
aa(lp497
(S'yet'
g4
tp498
a(S'stanley'
g6
tp499
a(S'understand'
g8
tp500
a(S'enough'
g6
tp501
a(S'function'
g8
tp502
a(S'read'
g45
tp503
a(S'read'
g6
tp504
a(S'much'
g6
tp505
a(S'adventure'
g8
tp506
a(S'childhood'
g8
tp507
aa(lp508
(S'iris'
g8
tp509
a(S'although'
S'IN'
p510
tp511
a(S'well'
g4
tp512
a(S'educated'
g169
tp513
a(S'enough'
g6
tp514
a(S'adventure'
g8
tp515
a(S'understand'
g29
tp516
a(S'move'
g8
tp517
a(S'past'
g195
tp518
a(S'u'
g6
tp519
a(S'turn'
g8
tp520
a(S'life'
g19
tp521
a(S'took'
S'VBD'
p522
tp523
aa(lp524
(Vfault
g8
tp525
a(Vstrength
S'NN'
p526
tp527
a(Vcharacter
g8
tp528
a(Vcompliment
g8
tp529
aa(lp530
(S'may'
S'MD'
p531
tp532
a(S'bit'
g45
tp533
a(S'stretch'
g6
tp534
a(S'accept'
g195
tp535
a(S'iris'
g8
tp536
a(S'would'
g362
tp537
a(S'wind'
g45
tp538
a(S'working'
g25
tp539
a(S'year'
g23
tp540
a(S'year'
g23
tp541
a(S'factory'
g8
tp542
a(S'stanley'
g8
tp543
a(S'never'
S'RB'
p544
tp545
a(S'hid'
g344
tp546
a(S'illiteracy'
g8
tp547
a(S'enough'
g6
tp548
a(S'work'
g8
tp549
a(S'construction'
S'NN'
p550
tp551
a(S'better'
g35
tp552
a(S'paying'
S'VBG'
p553
tp554
a(S'job'
g137
tp555
aa(lp556
(Vmystery
g8
tp557
a(Vexplained
g57
tp558
a(Vcourse
S'NN'
p559
tp560
a(Vstory
g121
tp561
a(Vunfolding
g25
tp562
a(Vseems
S'VBZ'
p563
tp564
a(Vsomewhat
g4
tp565
a(Vcontrived
g6
tp566
aa(lp567
(S'assume'
g45
tp568
a(S'no'
g124
tp569
a(S'one'
g78
tp570
a(S'took'
g522
tp571
a(S'time'
g13
tp572
a(S'rethink'
g8
tp573
a(S'script'
g8
tp574
aa(lp575
(S'even'
g4
tp576
a(S'good'
g6
tp577
a(S'movie'
g111
tp578
a(S'imagine'
g8
tp579
a(S'de'
g195
tp580
a(S'niro'
S'FW'
p581
tp582
a(S'fonda'
g6
tp583
a(S'plimpton'
g8
tp584
a(S'would'
g362
tp585
a(S'done'
g118
tp586
a(S'screen'
g8
tp587
a(S'if'
g156
tp588
a(S'someone'
S'NN'
p589
tp590
aaa(lp591
(lp592
(S'found'
g169
tp593
a(S'romance'
g8
tp594
a(S'drama'
g8
tp595
a(S'nice'
g6
tp596
a(S'ending'
S'VBG'
p597
tp598
a(S'generally'
S'RB'
p599
tp600
a(S'nice'
g6
tp601
a(S'feel'
g8
tp602
aa(lp603
(Vnot
g105
tp604
a(Vhallmark
g45
tp605
a(Vhall
g8
tp606
a(Vfame
g8
tp607
a(Vtype
g6
tp608
a(Vfamily
S'NN'
p609
tp610
a(Vfilm
g279
tp611
a(Vsleeping
g25
tp612
a(Vmarriage
g8
tp613
a(Vconsidered
g169
tp614
a(Vnormal
S'JJ'
p615
tp616
a(Vbehavior
g8
tp617
a(Vbut
g113
tp618
a(Vconsidering
S'VBG'
p619
tp620
a(Vstar
g6
tp621
a(Vjane
g8
tp622
a(Vfonda
g8
tp623
a(Vrobert
g8
tp624
a(Vde
g195
tp625
a(Vniro
g581
tp626
a(Vwould
g362
tp627
a(Vexpected
g169
tp628
a(Vlot
g8
tp629
a(Vrougher
S'JJR'
p630
tp631
a(Vmovie
g111
tp632
a(Vleast
g424
tp633
a(Vlanguage
S'NN'
p634
tp635
a(Vwise
g8
tp636
aa(lp637
(S'most'
g296
tp638
a(S'memorable'
g6
tp639
a(S'part'
S'NN'
p640
tp641
a(S'film'
g279
tp642
a(S'portrayal'
g8
tp643
a(S'difficult'
S'JJ'
p644
tp645
a(S'must'
S'MD'
p646
tp647
a(S'learn'
g45
tp648
a(S'read'
g45
tp649
a(S'write'
g6
tp650
a(S'already'
S'RB'
p651
tp652
a(S'adult'
g8
tp653
aa(lp654
(Vbig
S'JJ'
p655
tp656
a(Vtheme
g8
tp657
a(Vmovie
g111
tp658
a(Vinvolves
g344
tp659
a(Vtouching
g25
tp660
a(Vscene
g8
tp661
a(Vbut
g113
tp662
a(Vhonest
g424
tp663
a(Vfilm
g279
tp664
a(Vmemorable
g8
tp665
a(Vstill
S'RB'
p666
tp667
a(Vfairly
S'RB'
p668
tp669
a(Vmild
g6
tp670
a(Vnice
g6
tp671
a(Vtale
g8
tp672
a(Vwould
g362
tp673
a(Vhappy
g45
tp674
a(Vrecommend
g45
tp675
aaa(lp676
(lp677
(Vcomplex
g6
tp678
a(Vfilm
g279
tp679
a(Vexplores
g150
tp680
a(Veffect
S'NN'
p681
tp682
a(Vfordist
g29
tp683
a(Vtaylorist
g8
tp684
a(Vmode
g8
tp685
a(Vindustrial
S'JJ'
p686
tp687
a(Vcapitalist
g8
tp688
a(Vproduction
g241
tp689
a(Vhuman
g6
tp690
a(Vrelation
g8
tp691
aa(lp692
(Vconstant
g6
tp693
a(Vreference
g8
tp694
a(Vassembly
g8
tp695
a(Vline
g74
tp696
a(Vproduction
g241
tp697
a(Vworker
g8
tp698
a(Vtreated
g57
tp699
a(Vcog
g6
tp700
a(Vmachine
S'NN'
p701
tp702
a(Voverseen
g6
tp703
a(Vmanager
S'NN'
p704
tp705
a(Vwielding
g25
tp706
a(Vclipboard
g8
tp707
a(Vcontrolling
g25
tp708
a(Vmuch
g6
tp709
a(Vhair
g8
tp710
a(Vworker
g8
tp711
a(Vleave
g29
tp712
a(Vexposed
g169
tp713
a(Vfiring
g6
tp714
a(Vworker
g8
tp715
a(Vstanley
g8
tp716
a(Vmeet
g8
tp717
a(Vcriterion
g8
tp718
a(Vsupervisor
g150
tp719
a(Vsay
g29
tp720
a(Valways
S'RB'
p721
tp722
a(Vtime
g13
tp723
a(Vhard
g6
tp724
a(Vworker
g8
tp725
a(Vgood
g6
tp726
a(Vwork
g8
tp727
a(Vbut
g113
tp728
a(Vmay
g531
tp729
a(Vunspecified
g6
tp730
a(Vfuture
g8
tp731
a(Vmake
g29
tp732
a(Vmistake
g8
tp733
aa(lp734
(Vsystem
S'NN'
p735
tp736
a(Vdestroys
g344
tp737
a(Vfamily
g609
tp738
a(Vstanley
g8
tp739
a(Vsend
g29
tp740
a(Vfather
g8
tp741
a(Vnursing
g8
tp742
a(Vhome
g8
tp743
a(Vquickly
S'RB'
p744
tp745
a(Vdy
g57
tp746
a(Vstanley
g6
tp747
a(Vloses
g150
tp748
a(Vjob
g137
tp749
aa(lp750
(Viris
g6
tp751
a(Vdaughter
g8
tp752
a(Vsingle
S'JJ'
p753
tp754
a(Vteen
g8
tp755
a(Vmother
g8
tp756
a(Vdrop
g8
tp757
a(Vhigh
g6
tp758
a(Vschool
g17
tp759
a(Vtake
g45
tp760
a(Vjob
g137
tp761
a(Vplant
S'NN'
p762
tp763
aa(lp764
(Vreference
g8
tp765
a(Vmade
g57
tp766
a(Vfact
S'NN'
p767
tp768
a(Vdeclining
S'VBG'
p769
tp770
a(Vwage
S'NN'
p771
tp772
a(Vpartner
S'NN'
p773
tp774
a(Vneed
g29
tp775
a(Vwork
g8
tp776
a(Vimplication
g8
tp777
a(Vnobody
g8
tp778
a(Vleft
g57
tp779
a(Vhome
g8
tp780
a(Vcare
g8
tp781
a(Vkid
g8
tp782
aa(lp783
(Viris
g6
tp784
a(Vhusband
g8
tp785
a(Vdead
g6
tp786
a(Villness
g8
tp787
a(Vmultiple
g6
tp788
a(Vreference
g8
tp789
a(Vfilm
g279
tp790
a(Vcost
g8
tp791
a(Vmedical
S'JJ'
p792
tp793
a(Vcare
g8
tp794
a(Vviewer
g8
tp795
a(Vmust
g646
tp796
a(Vwonder
g45
tp797
a(Vif
g156
tp798
a(Vmight
S'MD'
p799
tp800
a(Vlived
g45
tp801
a(Vbetter
g35
tp802
a(Vcostly
S'JJ'
p803
tp804
a(Vcare
g8
tp805
aa(lp806
(Viris
g8
tp807
a(Vbrother
g8
tp808
a(Vlaw
S'NN'
p809
tp810
a(Vget
g29
tp811
a(Vabusive
g6
tp812
a(Vyet
g4
tp813
a(Vanother
S'DT'
p814
tp815
a(Vunsuccessful
g6
tp816
a(Vday
S'NN'
p817
tp818
a(Vunemployment
S'NN'
p819
tp820
a(Voffice
S'NN'
p821
tp822
a(Vwife
S'NN'
p823
tp824
a(Vyell
g29
tp825
a(Vbuying
g25
tp826
a(Vbeer
S'NN'
p827
tp828
a(Vsaving
g25
tp829
a(Vinstead
g314
tp830
a(Vleaving
g25
tp831
a(Vface
g8
tp832
a(Vlift
g8
tp833
a(Vteeth
g29
tp834
a(Vjob
g137
tp835
a(Veven
g4
tp836
a(Vworking
g25
tp837
a(Vclass
S'NN'
p838
tp839
a(Vno
g124
tp840
a(Vstake
S'NN'
p841
tp842
a(Vconventional
S'JJ'
p843
tp844
a(Vbourgeois
g6
tp845
a(Vnotion
g8
tp846
a(Vperfection
g8
tp847
a(Vbeauty
g8
tp848
a(Vbuy
g45
tp849
aa(lp850
(Vone
g78
tp851
a(Vreference
g8
tp852
a(Vrace
S'NN'
p853
tp854
a(Vfilm
g279
tp855
a(Vblack
S'JJ'
p856
tp857
a(Vfactory
g8
tp858
a(Vline
g74
tp859
a(Vworker
g8
tp860
a(Vwhose
S'WP$'
p861
tp862
a(Vhusband
g8
tp863
a(Vjail
g8
tp864
a(Vpresumably
g4
tp865
a(Valso
S'RB'
p866
tp867
a(Vblack
g856
tp868
a(Vblack
g856
tp869
a(Vmen
S'NNS'
p870
tp871
a(Vsuffer
g29
tp872
a(Vdisproportionally
g4
tp873
a(Vhigh
g6
tp874
a(Vincarceration
g8
tp875
a(Vrate
S'NN'
p876
tp877
aa(lp878
(Vremark
g8
tp879
a(Vlike
g195
tp880
a(Vtime
g13
tp881
a(Vfamily
g609
tp882
a(Vcomposed
g57
tp883
a(Vprisoner
g8
tp884
a(Vwage
g771
tp885
a(Vslave
g29
tp886
a(Vstanley
g8
tp887
a(Vhowever
S'RB'
p888
tp889
a(Vstill
g666
tp890
a(Vbelief
g6
tp891
a(Vhuman
g6
tp892
a(Vrelation
g8
tp893
a(Vtherefore
g4
tp894
a(Vmost
g424
tp895
a(Vfilm
g279
tp896
a(Voutside
g6
tp897
a(Vsystem
g735
tp898
a(Vfordist
g6
tp899
a(Vcapitalism
g8
tp900
aa(lp901
(Vcare
g8
tp902
a(Vfather
g35
tp903
a(Vspite
g6
tp904
a(Vfact
g767
tp905
a(Vfather
g35
tp906
a(Vtraveling
g25
tp907
a(Vsalesman
g6
tp908
a(Vjob
g137
tp909
a(Vresulted
g57
tp910
a(Villiteracy
g8
tp911
a(Vnot
g105
tp912
a(Vyet
g4
tp913
a(Vreduced
g169
tp914
a(Vhuman
g6
tp915
a(Vrelation
g8
tp916
a(Vpurely
g4
tp917
a(Vinstrumental
g6
tp918
a(Vcontract
S'NN'
p919
tp920
a(Viris
g344
tp921
a(Vbrother
g4
tp922
a(Vlaw
g809
tp923
a(Vsuggesting
g25
tp924
a(Vmarried
g169
tp925
a(Vwrong
g6
tp926
a(Vsister
g8
tp927
aa(lp928
(Vnot
g105
tp929
a(Viris
g6
tp930
a(Vsay
g29
tp931
a(Vconform
g6
tp932
a(Vwork
g8
tp933
a(Veat
g8
tp934
a(Vsleep
g6
tp935
a(Vroutine
g8
tp936
a(Veveryone
S'NN'
p937
tp938
a(Velse
g4
tp939
a(Vrather
S'RB'
p940
tp941
a(Vus
S'PRP'
p942
tp943
a(Vtechnology
S'NN'
p944
tp945
a(Vtechnique
g8
tp946
a(Vindustrial
g686
tp947
a(Vproduction
g241
tp948
a(Vartisanal
g6
tp949
a(Vcreative
g6
tp950
a(Vway
S'NN'
p951
tp952
a(Vsort
g8
tp953
a(Vbauhaus
g8
tp954
a(Videal
g8
tp955
aa(lp956
(Vdream
g8
tp957
a(Vearly
g6
tp958
a(Vmodernist
g8
tp959
a(Vsocialist
g8
tp960
a(Vbauhaus
g8
tp961
a(Vuse
g8
tp962
a(Vtechnology
g944
tp963
a(Vprovide
g29
tp964
a(Vbasic
g6
tp965
a(Vneed
g29
tp966
a(Vallowing
S'VBG'
p967
tp968
a(Vfree
g6
tp969
a(Vtime
g13
tp970
a(Vcreative
g6
tp971
a(Vhuman
g6
tp972
a(Vwork
g8
tp973
a(Vfuller
g8
tp974
a(Vhuman
g6
tp975
a(Vrelation
g8
tp976
aa(lp977
(Valso
g866
tp978
a(Voutside
g6
tp979
a(Vtraditional
S'JJ'
p980
tp981
a(Vgender
g8
tp982
a(Vrelation
g8
tp983
aa(lp984
(Vcook
g8
tp985
a(Vclean
g6
tp986
a(Vcare
g8
tp987
a(Vfamily
g609
tp988
a(Vknow
g29
tp989
a(Viron
g8
tp990
aa(lp991
(Viris
g8
tp992
a(Vhand
S'NN'
p993
tp994
a(Vlife
g19
tp995
a(Vtraditionally
g4
tp996
a(Vmale
g6
tp997
a(Vrole
S'NN'
p998
tp999
a(Vfactory
g8
tp1000
a(Vworker
g8
tp1001
a(Vmain
g357
tp1002
a(Vsource
S'NN'
p1003
tp1004
a(Vincome
S'NN'
p1005
tp1006
a(Vextended
g57
tp1007
a(Vfamily
g609
tp1008
a(Vbrings
g150
tp1009
a(Vstanley
g29
tp1010
a(Vpublic
g6
tp1011
a(Vrealm
g29
tp1012
a(Vtraditionally
g4
tp1013
a(Vlimit
g29
tp1014
a(Vwoman
g109
tp1015
aa(lp1016
(Vteaching
g25
tp1017
a(Vread
g6
tp1018
a(Vwrite
g6
tp1019
a(Vgive
g6
tp1020
a(Vaccess
S'NN'
p1021
tp1022
a(Vworld
S'NN'
p1023
tp1024
a(Vknowledge
g8
tp1025
a(Valso
g866
tp1026
a(Vtraditionally
g4
tp1027
a(Vgendered
g6
tp1028
a(Vmale
g8
tp1029
a(Vliteracy
g8
tp1030
a(Vused
g169
tp1031
a(Vmetaphor
g8
tp1032
a(Vtraditionally
g4
tp1033
a(Vmasculine
g6
tp1034
a(Vpublic
g6
tp1035
a(Vrealm
g8
tp1036
a(Vsystem
g735
tp1037
a(Vcirculation
g8
tp1038
a(Vmonetary
S'JJ'
p1039
tp1040
a(Vvehicular
g6
tp1041
a(Vcultural
g6
tp1042
a(Venable
g6
tp1043
a(Vparticipation
g8
tp1044
a(Vpublic
g6
tp1045
a(Vrealm
g8
tp1046
aa(lp1047
(Vwithout
S'IN'
p1048
tp1049
a(Vaccess
g1021
tp1050
a(Vstanley
g8
tp1051
a(Vfeminized
g57
tp1052
a(Vjob
g137
tp1053
a(Vopen
g6
tp1054
a(Vcooking
g8
tp1055
a(Vcleaning
g8
tp1056
aa(lp1057
(Vexcluded
g169
tp1058
a(Vregular
g6
tp1059
a(Vcirculation
g8
tp1060
a(Vunable
g6
tp1061
a(Vparticipate
g8
tp1062
a(Vmonetary
g1039
tp1063
a(Vopen
g6
tp1064
a(Vbank
S'NN'
p1065
tp1066
a(Vaccount
g8
tp1067
a(Vvehicular
g6
tp1068
a(Vget
g8
tp1069
a(Vdriver
g8
tp1070
a(Vlicense
g8
tp1071
a(Vride
g8
tp1072
a(Vbus
g195
tp1073
a(Vsocial
S'JJ'
p1074
tp1075
a(Vasks
g150
tp1076
a(Vif
g156
tp1077
a(Vexists
g150
tp1078
a(Vif
g156
tp1079
a(Vwrite
g6
tp1080
a(Vname
g8
tp1081
a(Vlearning
g25
tp1082
a(Vread
g6
tp1083
a(Vgrab
g8
tp1084
a(Vbook
S'NN'
p1085
tp1086
a(Vauto
S'NN'
p1087
tp1088
a(Vrepair
g8
tp1089
a(Vfarming
g25
tp1090
a(Vspirituality
g8
tp1091
a(Vbible
g8
tp1092
aa(lp1093
(Vword
S'NN'
p1094
tp1095
a(Vgod
g8
tp1096
a(Vtherefore
g4
tp1097
a(Vrelativized
g57
tp1098
a(Vplaced
g169
tp1099
a(Vvalue
S'NN'
p1100
tp1101
a(Vplane
g8
tp1102
a(Vbook
g1085
tp1103
aa(lp1104
(Vfact
g767
tp1105
a(Vorganized
g169
tp1106
a(Vreligion
g8
tp1107
a(Vgeneral
g6
tp1108
a(Vvery
g4
tp1109
a(Voccasionally
g4
tp1110
a(Vpresent
g6
tp1111
a(Vbible
g8
tp1112
a(Valso
g866
tp1113
a(Vappears
S'VBZ'
p1114
tp1115
a(Vdresser
g6
tp1116
a(Vcamera
g8
tp1117
a(Vpan
g8
tp1118
a(Vfind
g29
tp1119
a(Vstanley
g6
tp1120
a(Viris
g8
tp1121
a(Vsex
g8
tp1122
aa(lp1123
(Vhowever
g888
tp1124
a(Vacknowledged
g57
tp1125
a(Vmoral
g6
tp1126
a(Vforce
g8
tp1127
a(Viris
g8
tp1128
a(Vclearly
S'RB'
p1129
tp1130
a(Vcharacter
g8
tp1131
a(Vdevoted
g169
tp1132
a(Vliving
g8
tp1133
a(Vgood
g6
tp1134
a(Vlife
g19
tp1135
a(Vmention
g8
tp1136
a(Vbeginning
g25
tp1137
a(Vfilm
g279
tp1138
a(Vrosary
g6
tp1139
a(Vamong
S'IN'
p1140
tp1141
a(Vobject
g6
tp1142
a(Vlost
g169
tp1143
a(Vpurse
g8
tp1144
a(Vsnatching
g25
tp1145
a(Vable
S'JJ'
p1146
tp1147
a(Vread
g8
tp1148
a(Venters
g150
tp1149
a(Vsystem
g735
tp1150
a(Vland
g29
tp1151
a(Vmanagerial
g6
tp1152
a(Vposition
S'NN'
p1153
tp1154
a(Vhealth
S'NN'
p1155
tp1156
a(Vcare
g8
tp1157
a(Vplan
g8
tp1158
a(Vcar
S'NN'
p1159
tp1160
a(Vhouse
g275
tp1161
a(Vtaking
g25
tp1162
a(Vplace
g8
tp1163
a(Vhead
g29
tp1164
a(Vfamily
g609
tp1165
a(Vbreadwinner
g8
tp1166
aa(lp1167
(Vpresumably
g4
tp1168
a(Vindustrial
g686
tp1169
a(Vdesigner
g8
tp1170
a(Vdreaming
g25
tp1171
a(Vproduct
S'NN'
p1172
tp1173
a(Vrequire
g8
tp1174
a(Vothers
g463
tp1175
a(Venduring
g25
tp1176
a(Vdrudgery
g8
tp1177
a(Vassembly
g4
tp1178
a(Vline
g74
tp1179
a(Vproduce
g8
tp1180
aa(lp1181
(Vending
g597
tp1182
a(Vprobably
S'RB'
p1183
tp1184
a(Vbit
g6
tp1185
a(Vconventional
g843
tp1186
a(Vhollywood
g8
tp1187
a(Vfilm
g279
tp1188
a(Vincongruous
g6
tp1189
a(Vcome
g169
tp1190
a(Vleast
g424
tp1191
a(Vwonder
g8
tp1192
a(Vif
g156
tp1193
a(Vforced
g169
tp1194
a(Vstudio
g360
tp1195
a(Vexec
g8
tp1196
a(Vsuddenly
g4
tp1197
a(Vworried
g57
tp1198
a(Vlack
g6
tp1199
a(Vfeel
g8
tp1200
a(Vgood
g6
tp1201
a(Vending
g597
tp1202
a(Vpotential
g6
tp1203
a(Veffect
g681
tp1204
a(Vbottom
g8
tp1205
a(Vline
g74
tp1206
a(Vaccording
S'VBG'
p1207
tp1208
a(Vpundit
g8
tp1209
a(Vcomfortably
g4
tp1210
a(Vmoved
g57
tp1211
a(Vpost
g6
tp1212
a(Vindustrial
g686
tp1213
a(Vcapitalism
g8
tp1214
a(Vfilm
g279
tp1215
a(Valso
g866
tp1216
a(Vslightly
S'RB'
p1217
tp1218
a(Vnostalgic
g6
tp1219
a(Vfeel
g8
tp1220
a(Vthough
g195
tp1221
a(Vneeded
g6
tp1222
a(Vhistorical
g6
tp1223
a(Vdistance
g8
tp1224
a(Vreally
g115
tp1225
a(Vanalyze
g6
tp1226
a(Vhappened
g57
tp1227
a(Vperiod
S'NN'
p1228
tp1229
aa(lp1230
(S'nevertheless'
g4
tp1231
a(S'highly'
S'RB'
p1232
tp1233
a(S'recommended'
g169
tp1234
a(S'least'
g424
tp1235
a(S'if'
g156
tp1236
a(S'want'
g6
tp1237
a(S'exercise'
g8
tp1238
a(S'brain'
S'NN'
p1239
tp1240
aa(lp1241
(S'disregard'
g4
tp1242
a(S'ending'
g597
tp1243
a(S'close'
g6
tp1244
a(S'perfect'
g8
tp1245
aaa(lp1246
(lp1247
(Vstanley
g8
tp1248
a(Viris
g6
tp1249
a(Vheart
g383
tp1250
a(Vwarming
g25
tp1251
a(Vfilm
g279
tp1252
a(Vtwo
S'CD'
p1253
tp1254
a(Vpeople
g162
tp1255
a(Vfind
g29
tp1256
a(Vhelp
g6
tp1257
a(Vone
g78
tp1258
a(Vanother
g814
tp1259
a(Vovercome
g8
tp1260
a(Vproblem
S'NN'
p1261
tp1262
a(Vlife
g19
tp1263
aa(lp1264
(S'stanley'
g6
tp1265
a(S'life'
g19
tp1266
a(S'difficult'
g644
tp1267
a(S'never'
g544
tp1268
a(S'learned'
g169
tp1269
a(S'read'
g6
tp1270
a(S'write'
g8
tp1271
aa(lp1272
(Viris
g6
tp1273
a(Vwidower
g630
tp1274
a(Vtwo
g1253
tp1275
a(Vteenage
g8
tp1276
a(Vchild
g8
tp1277
a(Vworking
g25
tp1278
a(Vbakery
g6
tp1279
a(Vmeet
g8
tp1280
a(Vstanley
g8
tp1281
aa(lp1282
(S'decides'
g150
tp1283
a(S'teach'
g29
tp1284
a(S'stanley'
g6
tp1285
a(S'read'
g8
tp1286
a(S'home'
g8
tp1287
a(S'spare'
g6
tp1288
a(S'time'
g13
tp1289
aa(lp1290
(S'time'
g13
tp1291
a(S'become'
g45
tp1292
a(S'romantically'
g4
tp1293
a(S'involved'
g6
tp1294
aa(lp1295
(Vstanley
g8
tp1296
a(Vlearns
g150
tp1297
a(Vread
g57
tp1298
a(Vgo
g45
tp1299
a(Vgood
g6
tp1300
a(Vjob
g137
tp1301
a(Vchicago
g150
tp1302
a(Vreturn
g29
tp1303
a(Viris
g6
tp1304
a(Vask
g8
tp1305
a(Vmarry
g8
tp1306
a(Vreally
g115
tp1307
a(Vgood
g6
tp1308
a(Vfilm
g279
tp1309
a(Vwithout
g1048
tp1310
a(Vnudity
g8
tp1311
a(Vviolence
g8
tp1312
a(Vprofanity
g8
tp1313
a(Vrare
g29
tp1314
a(Vtoday
S'NN'
p1315
tp1316
a(Vfilm
g279
tp1317
aa(lp1318
(S'good'
g6
tp1319
a(S'film'
g279
tp1320
a(S'round'
g8
tp1321
aa(lp1322
aa(lp1323
(lp1324
(Vread
g6
tp1325
a(Vcomment
g8
tp1326
a(Vtomreynolds
g150
tp1327
a(Vfeel
g29
tp1328
a(Vjump
g8
tp1329
aa(lp1330
(Vunderstand
g8
tp1331
a(Vlike
g195
tp1332
a(Vfilm
g279
tp1333
a(Vbut
g113
tp1334
a(Vreason
S'NN'
p1335
tp1336
a(Vnot
g105
tp1337
a(Vevident
g6
tp1338
aa(lp1339
(Vfeeling
g25
tp1340
a(Vregarding
g25
tp1341
a(Vfilm
g279
tp1342
a(Vnot
g105
tp1343
a(Vafraid
g6
tp1344
a(Vtravel
g8
tp1345
a(Vdarker
g8
tp1346
a(Vroad
S'NN'
p1347
tp1348
a(Vloneliness
g6
tp1349
a(Vfailure
g8
tp1350
a(Vdisappointment
g8
tp1351
a(Vsorrow
g8
tp1352
aa(lp1353
(Vtwo
g1253
tp1354
a(Vpeople
g162
tp1355
a(Vportrayed
g57
tp1356
a(Vplenty
g6
tp1357
a(Vreason
g1335
tp1358
a(Vbitter
g8
tp1359
a(Vangry
g6
tp1360
a(Vyet
g4
tp1361
a(Vfind
g29
tp1362
a(Vtenderness
g6
tp1363
a(Vcomfort
g8
tp1364
aa(lp1365
(S'great'
g427
tp1366
a(S'acting'
g8
tp1367
a(S'could'
g197
tp1368
a(S'make'
g45
tp1369
a(S'work'
g8
tp1370
a(S'without'
g1048
tp1371
a(S'becoming'
S'VBG'
p1372
tp1373
a(S'emotional'
g6
tp1374
a(S'quagmire'
g8
tp1375
a(S'sentimental'
g8
tp1376
a(S'sappy'
g6
tp1377
aa(lp1378
(Vreally
g115
tp1379
a(Vbecame
S'VBD'
p1380
tp1381
a(Vinterested
g6
tp1382
a(Vpeople
g162
tp1383
a(Voverwhelming
g25
tp1384
a(Vhumanity
g8
tp1385
a(Vgiven
g107
tp1386
a(Vstrong
S'JJ'
p1387
tp1388
a(Vperformance
g417
tp1389
aa(lp1390
(Vevery
S'DT'
p1391
tp1392
a(Vreason
g1335
tp1393
a(Vdislike
g195
tp1394
a(Vjane
g8
tp1395
a(Vfonda
g8
tp1396
a(Vvietnam
g581
tp1397
a(Vera
g8
tp1398
a(Vaction
S'NN'
p1399
tp1400
a(Vbut
g113
tp1401
a(Vpersonal
g126
tp1402
a(Vfeeling
g8
tp1403
a(Vapart
g4
tp1404
a(Vfabulous
g6
tp1405
a(Vrole
g998
tp1406
aa(lp1407
(Vrobert
g8
tp1408
a(Vdeniro
g8
tp1409
a(Vsuperb
g8
tp1410
a(Vman
S'NN'
p1411
tp1412
a(Vwhose
g861
tp1413
a(Vintelligence
g8
tp1414
a(Vgoodness
g8
tp1415
a(Vbegin
g195
tp1416
a(Vfail
g6
tp1417
a(Vworld
g1023
tp1418
a(Vindifferent
g8
tp1419
a(Vability
S'NN'
p1420
tp1421
aa(lp1422
(S'first'
g4
tp1423
a(S'seen'
S'VBN'
p1424
tp1425
a(S'deniro'
g8
tp1426
a(S'using'
S'VBG'
p1427
tp1428
a(S'tenderness'
g8
tp1429
a(S'rather'
g940
tp1430
a(S'toughness'
g4
tp1431
a(S'sell'
g45
tp1432
a(S'character'
g35
tp1433
a(S'really'
g115
tp1434
a(S'like'
g195
tp1435
aa(lp1436
(S'film'
g279
tp1437
a(S'big'
g655
tp1438
a(S'surprise'
g8
tp1439
a(S'first'
g4
tp1440
a(S'viewed'
g57
tp1441
a(S'look'
g45
tp1442
a(S'forward'
g4
tp1443
a(S'seeing'
g25
tp1444
aaa(lp1445
(lp1446
(Vif
g156
tp1447
a(Vlike
g6
tp1448
a(Vadult
g8
tp1449
a(Vcomedy
g8
tp1450
a(Vcartoon
g8
tp1451
a(Vlike
g195
tp1452
a(Vsouth
g6
tp1453
a(Vpark
g8
tp1454
a(Vnearly
S'RB'
p1455
tp1456
a(Vsimilar
S'JJ'
p1457
tp1458
a(Vformat
g8
tp1459
a(Vsmall
g283
tp1460
a(Vadventure
g8
tp1461
a(Vthree
S'CD'
p1462
tp1463
a(Vteenage
g8
tp1464
a(Vgirl
g8
tp1465
a(Vbromwell
g8
tp1466
a(Vhigh
g6
tp1467
aa(lp1468
(Vkeisha
g8
tp1469
a(Vnatella
g8
tp1470
a(Vlatrina
g57
tp1471
a(Vgiven
g107
tp1472
a(Vexploding
g25
tp1473
a(Vsweet
g6
tp1474
a(Vbehaved
g169
tp1475
a(Vlike
g195
tp1476
a(Vbitch
g8
tp1477
a(Vthink
g29
tp1478
a(Vkeisha
g45
tp1479
a(Vgood
g6
tp1480
a(Vleader
S'NN'
p1481
tp1482
aa(lp1483
(Valso
g866
tp1484
a(Vsmall
g283
tp1485
a(Vstory
g121
tp1486
a(Vgoing
S'VBG'
p1487
tp1488
a(Vteacher
g6
tp1489
a(Vschool
g17
tp1490
aa(lp1491
(Vidiotic
g6
tp1492
a(Vprincipal
g6
tp1493
a(Vmr
g8
tp1494
a(Vbip
g8
tp1495
a(Vnervous
g6
tp1496
a(Vmath
g8
tp1497
a(Vteacher
g4
tp1498
a(Vmany
g88
tp1499
a(Vothers
g463
tp1500
aa(lp1501
(Vcast
g8
tp1502
a(Valso
g866
tp1503
a(Vfantastic
g6
tp1504
a(Vlenny
g8
tp1505
a(Vhenry
g8
tp1506
a(Vgina
g8
tp1507
a(Vyashere
S'WRB'
p1508
tp1509
a(Veastenders
g150
tp1510
a(Vchrissie
g29
tp1511
a(Vwatt
g6
tp1512
a(Vtracy
g8
tp1513
a(Vann
g6
tp1514
a(Voberman
g6
tp1515
a(Vsmack
g8
tp1516
a(Vpony
g8
tp1517
a(Vdoon
g8
tp1518
a(Vmackichan
g8
tp1519
a(Vdead
g6
tp1520
a(Vringer
g8
tp1521
a(Vmark
g8
tp1522
a(Vperry
g8
tp1523
a(Vblunder
g8
tp1524
a(Vnina
g8
tp1525
a(Vconti
g8
tp1526
aa(lp1527
(S'know'
g150
tp1528
a(S'came'
S'VBD'
p1529
tp1530
a(S'canada'
g4
tp1531
a(S'but'
g113
tp1532
a(S'very'
g4
tp1533
a(S'good'
g6
tp1534
aa(lp1535
(S'very'
g4
tp1536
a(S'good'
g6
tp1537
aaa(lp1538
(lp1539
(S'stanley'
g8
tp1540
a(S'iris'
g8
tp1541
a(S'show'
g8
tp1542
a(S'triumph'
g6
tp1543
a(S'human'
g6
tp1544
a(S'spirit'
g8
tp1545
aa(lp1546
(S'stanley'
g8
tp1547
a(S'struggle'
g8
tp1548
a(S'become'
g45
tp1549
a(S'literate'
g6
tp1550
a(S'realize'
g6
tp1551
a(S'potential'
g8
tp1552
aa(lp1553
(S'iris'
g6
tp1554
a(S'find'
g29
tp1555
a(S'courage'
g6
tp1556
a(S'love'
g8
tp1557
a(S'becoming'
g1372
tp1558
a(S'widow'
g8
tp1559
aa(lp1560
(Vbeauty
g8
tp1561
a(Vmovie
g111
tp1562
a(Vdance
g8
tp1563
a(Vrobert
g8
tp1564
a(Vdeniro
g8
tp1565
a(Vjane
g8
tp1566
a(Vfonda
g8
tp1567
a(Vtogether
g4
tp1568
a(Vstarting
g25
tp1569
a(Vstopping
g25
tp1570
a(Vskill
g6
tp1571
a(Vcourage
g8
tp1572
a(Vcompletely
g4
tp1573
a(Vtrust
g6
tp1574
a(Vmove
g8
tp1575
aa(lp1576
(Vsense
g8
tp1577
a(Vvery
g4
tp1578
a(Vnicely
g4
tp1579
a(Vgive
g45
tp1580
a(Vu
g6
tp1581
a(Vgood
g6
tp1582
a(Vview
g8
tp1583
a(Vlife
g19
tp1584
a(Voften
S'RB'
p1585
tp1586
a(Vthus
S'RB'
p1587
tp1588
a(Vcredible
g6
tp1589
aa(lp1590
(Vunlike
S'IN'
p1591
tp1592
a(Vreviewer
g630
tp1593
a(Vfound
g8
tp1594
a(Vcharacter
g8
tp1595
a(Vrendered
g57
tp1596
a(Vconsistent
g6
tp1597
a(Vwhole
g6
tp1598
a(Vpicture
g8
tp1599
aa(lp1600
(Vsupporting
g25
tp1601
a(Vcast
g8
tp1602
a(Valso
g866
tp1603
a(Vcarefully
g4
tp1604
a(Vchosen
g169
tp1605
a(Vadd
g45
tp1606
a(Vdepth
g6
tp1607
a(Vcharacter
g8
tp1608
a(Vmain
g357
tp1609
a(Vcharacter
g8
tp1610
a(Vget
g8
tp1611
a(Vadded
g57
tp1612
a(Vmeaning
g8
tp1613
a(Vsupporting
g25
tp1614
a(Vperformance
g417
tp1615
aa(lp1616
(S'excellent'
g6
tp1617
a(S'movie'
g111
tp1618
aa(lp1619
(S'best'
g424
tp1620
a(S'thing'
S'NN'
p1621
tp1622
a(S'take'
g45
tp1623
a(S'hope'
g8
tp1624
aaa(lp1625
(lp1626
(Vmay
g531
tp1627
a(Vnot
g105
tp1628
a(Vmemorable
g45
tp1629
a(Vclassic
g6
tp1630
a(Vbut
g113
tp1631
a(Vtouching
g25
tp1632
a(Vromance
g8
tp1633
a(Vimportant
S'JJ'
p1634
tp1635
a(Vtheme
g8
tp1636
a(Vstress
g8
tp1637
a(Vimportance
g8
tp1638
a(Vliteracy
g8
tp1639
a(Vmodern
g6
tp1640
a(Vsociety
g8
tp1641
a(Vdevastating
g25
tp1642
a(Vcareer
g8
tp1643
a(Vlife
g19
tp1644
a(Vconsequence
g8
tp1645
a(Vunfortunate
g6
tp1646
a(Vindividual
g6
tp1647
a(Vlacking
g8
tp1648
a(Vvital
g6
tp1649
a(Vskill
g8
tp1650
a(Vstory
g121
tp1651
a(Vrevolves
g344
tp1652
a(Varound
g195
tp1653
a(Viris
g6
tp1654
a(Vwidow
g8
tp1655
a(Vbecomes
g150
tp1656
a(Vacquainted
g57
tp1657
a(Vfellow
g6
tp1658
a(Vemployee
S'NN'
p1659
tp1660
a(Vfactory
g8
tp1661
a(Vjob
g137
tp1662
a(Villiterate
g6
tp1663
a(Vcafeteria
g8
tp1664
a(Vworker
g8
tp1665
a(Vnamed
g169
tp1666
a(Vstanley
g8
tp1667
aa(lp1668
(Viris
g6
tp1669
a(Vdiscovers
g150
tp1670
a(Vstanley
g29
tp1671
a(Vunable
g6
tp1672
a(Vread
g8
tp1673
a(Vloses
g150
tp1674
a(Vjob
g137
tp1675
a(Vgive
g29
tp1676
a(Vreading
g25
tp1677
a(Vlesson
g8
tp1678
a(Vhome
g8
tp1679
a(Vkitchen
g8
tp1680
aa(lp1681
(Vcourse
g559
tp1682
a(Vmight
g799
tp1683
a(Vpredict
g45
tp1684
a(Vtwo
g1253
tp1685
a(Valthough
g510
tp1686
a(Vinitially
g4
tp1687
a(Vwary
g6
tp1688
a(Vinvolvement
g8
tp1689
a(Vdevelop
g45
tp1690
a(Vfeeling
g25
tp1691
a(Vjane
g8
tp1692
a(Vfonda
g8
tp1693
a(Vcompetently
g4
tp1694
a(Vplay
g45
tp1695
a(Viris
g6
tp1696
a(Vwoman
g109
tp1697
a(Vproblem
g1261
tp1698
a(Vcoping
g25
tp1699
a(Vjob
g137
tp1700
a(Vlacking
g25
tp1701
a(Vprospect
g6
tp1702
a(Vtwo
g1253
tp1703
a(Vteenage
g8
tp1704
a(Vchild
g29
tp1705
a(Vone
g78
tp1706
a(Vpregnant
g6
tp1707
a(Vunemployed
g6
tp1708
a(Vsister
g8
tp1709
a(Vabusive
g6
tp1710
a(Vhusband
g8
tp1711
aa(lp1712
(Vhowever
g888
tp1713
a(Vrobert
g6
tp1714
a(Vdeniro
g6
tp1715
a(Vcourse
g559
tp1716
a(Vbrilliant
g6
tp1717
a(Vendearing
g25
tp1718
a(Vportrayal
g6
tp1719
a(Vintelligent
g6
tp1720
a(Vresourceful
g8
tp1721
a(Vbut
g113
tp1722
a(Villiterate
g6
tp1723
a(Vstanley
g8
tp1724
a(Vbringing
g25
tp1725
a(Vdignity
g8
tp1726
a(Vrole
g998
tp1727
a(Vcommand
g8
tp1728
a(Vrespect
g8
tp1729
aa(lp1730
(Vtypical
g6
tp1731
a(Vcharming
g25
tp1732
a(Vyoung
g430
tp1733
a(Vyuppie
g8
tp1734
a(Vcouple
g8
tp1735
a(Vgenerally
g599
tp1736
a(Vdepicted
g169
tp1737
a(Vscreen
g6
tp1738
a(Vromance
g8
tp1739
a(Vbut
g113
tp1740
a(Vordinary
g6
tp1741
a(Vworking
g6
tp1742
a(Vclass
g838
tp1743
a(Vmiddle
g8
tp1744
a(Vaged
g57
tp1745
a(Vpair
g8
tp1746
a(Vpretty
g4
tp1747
a(Vearth
g6
tp1748
a(Vstruggle
g150
tp1749
a(Vgive
g29
tp1750
a(Vending
g597
tp1751
a(Vaway
g4
tp1752
a(Vbut
g113
tp1753
a(Vlovely
g4
tp1754
a(Vheartwarming
g25
tp1755
a(Vromance
g8
tp1756
a(Vpersonal
g126
tp1757
a(Vlook
g8
tp1758
a(Vtroubling
g25
tp1759
a(Vissue
g8
tp1760
a(Vadult
g8
tp1761
a(Villiteracy
g8
tp1762
a(Valbeit
g195
tp1763
a(Vperspective
g6
tp1764
a(Vfictional
g6
tp1765
a(Vcharacter
g8
tp1766
aaa(lp1767
(lp1768
(S'if'
g156
tp1769
a(S'fast'
g4
tp1770
a(S'forward'
g4
tp1771
a(S'horrible'
g6
tp1772
a(S'singing'
g8
tp1773
a(S'find'
g29
tp1774
a(S'classic'
g6
tp1775
a(S'fairy'
g6
tp1776
a(S'tale'
g8
tp1777
a(S'underneath'
g8
tp1778
aa(lp1779
(S'christopher'
g8
tp1780
a(S'walken'
g1508
tp1781
a(S'very'
g4
tp1782
a(S'humorous'
g6
tp1783
a(S'surprisingly'
g4
tp1784
a(S'good'
g6
tp1785
a(S'role'
g998
tp1786
aa(lp1787
(Vtrademark
g8
tp1788
a(Vstyle
g277
tp1789
a(Vacting
g25
tp1790
a(Vwork
g8
tp1791
a(Vwell
g4
tp1792
a(Vsly
g4
tp1793
a(Vpus
g6
tp1794
a(Vboot
g8
tp1795
aa(lp1796
(Vactor
g8
tp1797
a(Vwell
g4
tp1798
a(Vpart
g640
tp1799
aa(lp1800
(S'not'
g105
tp1801
a(S'find'
g45
tp1802
a(S'acting'
g25
tp1803
a(S'terribly'
g4
tp1804
a(S'fake'
g45
tp1805
a(S'awkward'
g8
tp1806
aa(lp1807
(S'king'
g25
tp1808
a(S'particular'
g6
tp1809
a(S'appears'
g1114
tp1810
a(S'real'
g160
tp1811
a(S'dunce'
g8
tp1812
a(S'though'
g195
tp1813
a(S'wonder'
g8
tp1814
a(S'if'
g156
tp1815
a(S'supposed'
g169
tp1816
aa(lp1817
(S'not'
g105
tp1818
a(S'remember'
g45
tp1819
a(S'original'
g6
tp1820
a(S'tale'
g8
tp1821
aa(lp1822
(Vspecial
g6
tp1823
a(Veffect
g681
tp1824
a(Vtypical
g6
tp1825
a(Veighty
g8
tp1826
a(Vbut
g113
tp1827
a(Vleast
g424
tp1828
a(Vnot
g105
tp1829
a(Voverly
g4
tp1830
a(Vfake
g29
tp1831
a(Vlike
g195
tp1832
a(Vcomputer
S'NN'
p1833
tp1834
a(Vgenerated
g169
tp1835
a(Vfare
g8
tp1836
a(Vsee
g8
tp1837
a(Vtoday
g1315
tp1838
aa(lp1839
(Voverall
g6
tp1840
a(Vrecommend
g29
tp1841
a(Vmovie
g111
tp1842
a(Vchild
g8
tp1843
a(Vadult
g8
tp1844
a(Vchild
g6
tp1845
a(Vheart
g383
tp1846
aaa(lp1847
(lp1848
(Vok
g6
tp1849
a(Vmusical
g6
tp1850
a(Vpiece
g8
tp1851
a(Vpoorly
g4
tp1852
a(Vwritten
S'VBN'
p1853
tp1854
a(Vgenerally
g599
tp1855
a(Vpoorly
g4
tp1856
a(Vsung
g169
tp1857
a(Vthough
g195
tp1858
a(Vwalken
g6
tp1859
a(Vmarner
g8
tp1860
a(Vparticularly
S'RB'
p1861
tp1862
a(Vwalken
g4
tp1863
a(Vsounded
g169
tp1864
a(Vpretty
g4
tp1865
a(Vgood
g6
tp1866
aa(lp1867
(Vshattered
g169
tp1868
a(Vfourth
S'JJ'
p1869
tp1870
a(Vwall
g6
tp1871
a(Vend
g8
tp1872
a(Vking
g25
tp1873
a(Vnoble
g6
tp1874
a(Vsing
g6
tp1875
a(Vbattle
S'NN'
p1876
tp1877
a(Vogre
g6
tp1878
a(Vpraise
g8
tp1879
a(Veffort
g374
tp1880
a(Vpus
g8
tp1881
a(Vboot
g8
tp1882
a(Vright
g4
tp1883
a(Veven
g4
tp1884
a(Vknown
g169
tp1885
a(Vcare
g8
tp1886
aa(lp1887
(Vchristopher
g8
tp1888
a(Vfreakin
g8
tp1889
a(Vwalken
g1508
tp1890
a(Vmovie
g111
tp1891
a(Vbased
S'VBN'
p1892
tp1893
a(Vfairy
g6
tp1894
a(Vtale
g6
tp1895
a(Vsings
g150
tp1896
a(Vdance
g8
tp1897
aa(lp1898
(Vacting
g25
tp1899
a(Vstyle
g277
tp1900
a(Vfit
g6
tp1901
a(Vrole
g998
tp1902
a(Vvery
g4
tp1903
a(Vwell
g4
tp1904
a(Vdevious
g6
tp1905
a(Vmischievous
g6
tp1906
a(Vpus
g8
tp1907
a(Vseems
g563
tp1908
a(Vget
g29
tp1909
a(Vmaster
g8
tp1910
a(Vdeeper
g8
tp1911
a(Vdeeper
g8
tp1912
a(Vtrouble
S'NN'
p1913
tp1914
a(Vbut
g113
tp1915
a(Vfact
g767
tp1916
a(Vplan
g8
tp1917
a(Vthought
g57
tp1918
a(Vseven
S'CD'
p1919
tp1920
a(Veight
S'CD'
p1921
tp1922
a(Vmove
g8
tp1923
a(Vadvance
g8
tp1924
aa(lp1925
(Vif
g156
tp1926
a(Vever
S'RB'
p1927
tp1928
a(Vseen
g1424
tp1929
a(Vwalken
g169
tp1930
a(Vvillainous
g6
tp1931
a(Vrole
g998
tp1932
a(Vknow
g29
tp1933
a(Vogre
g6
tp1934
a(Vbit
g8
tp1935
a(Vdust
g6
tp1936
a(Vhard
g6
tp1937
a(Vend
g8
tp1938
a(Vwalken
g8
tp1939
a(Vgot
g57
tp1940
a(Vtrap
g6
tp1941
a(Vfun
g8
tp1942
a(Vfilm
g279
tp1943
a(Vmust
g646
tp1944
a(Vsee
g45
tp1945
a(Vanyone
S'NN'
p1946
tp1947
a(Venjoys
g344
tp1948
a(Vunique
g6
tp1949
a(Vstyle
g277
tp1950
a(Vchristopher
g8
tp1951
a(Vwalken
g8
tp1952
aaa(lp1953
(lp1954
(Valthough
g510
tp1955
a(Vobviously
g4
tp1956
a(Vlow
g6
tp1957
a(Vbudget
S'NN'
p1958
tp1959
a(Vproduction
g241
tp1960
a(Vperformance
g417
tp1961
a(Vsong
g8
tp1962
a(Vmovie
g111
tp1963
a(Vworth
g195
tp1964
a(Vseeing
g25
tp1965
aa(lp1966
(Vone
g78
tp1967
a(Vwalken
g6
tp1968
a(Vmusical
g6
tp1969
a(Vrole
g998
tp1970
a(Vdate
S'NN'
p1971
tp1972
aa(lp1973
(Vmarvelous
g6
tp1974
a(Vdancer
g8
tp1975
a(Vsinger
g8
tp1976
a(Vdemonstrates
g344
tp1977
a(Vacrobatic
g6
tp1978
a(Vskill
g4
tp1979
a(Vwell
g4
tp1980
a(Vwatch
g45
tp1981
a(Vcartwheel
g8
tp1982
aa(lp1983
(S'also'
g866
tp1984
a(S'starring'
g25
tp1985
a(S'jason'
g8
tp1986
a(S'connery'
g8
tp1987
aa(lp1988
(Vgreat
g427
tp1989
a(Vchild
g6
tp1990
a(Vstory
g121
tp1991
a(Vvery
g4
tp1992
a(Vlikable
g6
tp1993
a(Vcharacter
g8
tp1994
aaa(lp1995
(lp1996
(Vnever
g544
tp1997
a(Vsaw
g57
tp1998
a(Vkid
g150
tp1999
a(Vseen
g1424
tp2000
a(Vfresh
g6
tp2001
a(Veye
S'NN'
p2002
tp2003
aa(lp2004
(S'never'
g544
tp2005
a(S'heard'
g4
tp2006
a(S'rented'
g169
tp2007
a(S'year'
g23
tp2008
a(S'old'
S'JJ'
p2009
tp2010
a(S'daughter'
g8
tp2011
aa(lp2012
(S'plus'
S'CC'
p2013
tp2014
a(S'idea'
S'NN'
p2015
tp2016
a(S'christopher'
g4
tp2017
a(S'walken'
g6
tp2018
a(S'singing'
g25
tp2019
a(S'dancing'
g25
tp2020
a(S'made'
g169
tp2021
a(S'curious'
g6
tp2022
aa(lp2023
(S'special'
g6
tp2024
a(S'fx'
g6
tp2025
a(S'cheesy'
g8
tp2026
a(S'singing'
g25
tp2027
a(S'dancing'
g25
tp2028
a(S'mediocre'
g8
tp2029
aa(lp2030
(S'but'
g113
tp2031
a(S'story'
g121
tp2032
a(S'great'
g427
tp2033
aa(lp2034
(S'daughter'
g8
tp2035
a(S'entranced'
g57
tp2036
aa(lp2037
(S'loved'
g169
tp2038
a(S'watching'
g25
tp2039
a(S'walken'
g6
tp2040
a(S'role'
g998
tp2041
a(S'thinking'
g25
tp2042
a(S'future'
g6
tp2043
a(S'held'
g8
tp2044
aa(lp2045
(S'very'
g4
tp2046
a(S'amusing'
g25
tp2047
a(S'see'
g8
tp2048
a(S'dance'
g8
tp2049
aa(lp2050
(Vif
g156
tp2051
a(Vsong
g6
tp2052
a(Vgreat
g427
tp2053
a(Vleast
g424
tp2054
a(Vdisney
g8
tp2055
a(Vproduced
g169
tp2056
a(Vsaccharine
g6
tp2057
a(Vsweetness
g8
tp2058
aa(lp2059
(S'ogre'
g6
tp2060
a(S'scene'
g8
tp2061
a(S'beginning'
g25
tp2062
a(S'little'
g6
tp2063
a(S'scary'
g6
tp2064
a(S'little'
g4
tp2065
a(S'nervous'
g6
tp2066
a(S'saw'
g6
tp2067
a(S'end'
g8
tp2068
a(S'but'
g113
tp2069
a(S'mostly'
g269
tp2070
a(S'benign'
g6
tp2071
aa(lp2072
(Vinterestingly
g4
tp2073
a(Vrecently
S'RB'
p2074
tp2075
a(Vread
g45
tp2076
a(Vpus
g8
tp2077
a(Vboot
g8
tp2078
a(Vwondered
g57
tp2079
a(Vimplausibility
g8
tp2080
a(Vstory
g121
tp2081
aa(lp2082
(S'but'
g113
tp2083
a(S'staying'
g25
tp2084
a(S'true'
g394
tp2085
a(S'almost'
S'RB'
p2086
tp2087
a(S'every'
g1391
tp2088
a(S'aspect'
g8
tp2089
a(S'walken'
g8
tp2090
a(S'acting'
g25
tp2091
a(S'made'
g169
tp2092
a(S'believable'
g6
tp2093
aa(lp2094
(S'great'
g427
tp2095
a(S'fun'
g8
tp2096
aa(lp2097
(S'watch'
g8
tp2098
a(S'daughter'
g8
tp2099
aaa(lp2100
(lp2101
(S'bromwell'
g4
tp2102
a(S'high'
g6
tp2103
a(S'nothing'
S'NN'
p2104
tp2105
a(S'short'
g6
tp2106
a(S'brilliant'
g8
tp2107
aa(lp2108
(Vexpertly
g4
tp2109
a(Vscripted
g169
tp2110
a(Vperfectly
g4
tp2111
a(Vdelivered
g169
tp2112
a(Vsearing
g25
tp2113
a(Vparody
g8
tp2114
a(Vstudent
g8
tp2115
a(Vteacher
g8
tp2116
a(Vsouth
g6
tp2117
a(Vlondon
g6
tp2118
a(Vpublic
g6
tp2119
a(Vschool
g17
tp2120
a(Vleaf
g8
tp2121
a(Vliterally
g4
tp2122
a(Vrolling
g25
tp2123
a(Vlaughter
g8
tp2124
aa(lp2125
(S'vulgar'
g8
tp2126
a(S'provocative'
g6
tp2127
a(S'witty'
g8
tp2128
a(S'sharp'
S'JJ'
p2129
tp2130
aa(lp2131
(Vcharacter
g8
tp2132
a(Vsuperbly
g4
tp2133
a(Vcaricatured
g57
tp2134
a(Vcross
g6
tp2135
a(Vsection
g8
tp2136
a(Vbritish
g6
tp2137
a(Vsociety
g8
tp2138
a(Vaccurate
g8
tp2139
a(Vsociety
g8
tp2140
aa(lp2141
(Vfollowing
g25
tp2142
a(Vescapade
g8
tp2143
a(Vkeisha
g581
tp2144
a(Vlatrina
g8
tp2145
a(Vnatella
g8
tp2146
a(Vthree
g1462
tp2147
a(Vprotagonist
g8
tp2148
a(Vwant
g29
tp2149
a(Vbetter
g630
tp2150
a(Vterm
S'NN'
p2151
tp2152
a(Vshow
g8
tp2153
a(Vshy
g344
tp2154
a(Vaway
S'RP'
p2155
tp2156
a(Vparodying
g25
tp2157
a(Vevery
g1391
tp2158
a(Vimaginable
g6
tp2159
a(Vsubject
g8
tp2160
aa(lp2161
(Vpolitical
S'JJ'
p2162
tp2163
a(Vcorrectness
g8
tp2164
a(Vfly
g8
tp2165
a(Vwindow
g8
tp2166
a(Vevery
g1391
tp2167
a(Vepisode
g8
tp2168
aa(lp2169
(Vif
g156
tp2170
a(Venjoy
g169
tp2171
a(Vshow
g8
tp2172
a(Vafraid
g6
tp2173
a(Vpoke
g8
tp2174
a(Vfun
g8
tp2175
a(Vevery
g1391
tp2176
a(Vtaboo
g8
tp2177
a(Vsubject
g6
tp2178
a(Vimaginable
g6
tp2179
a(Vbromwell
g8
tp2180
a(Vhigh
g6
tp2181
a(Vnot
g105
tp2182
a(Vdisappoint
g45
tp2183
aaa(lp2184
(lp2185
(Vworld
g1023
tp2186
a(Vstage
g8
tp2187
a(Vpeople
g162
tp2188
a(Vactor
g29
tp2189
a(Vsomething
S'NN'
p2190
tp2191
a(Vlike
g195
tp2192
aa(lp2193
(S'hell'
g8
tp2194
a(S'said'
S'VBD'
p2195
tp2196
a(S'theatre'
g8
tp2197
a(S'stopped'
g57
tp2198
a(S'orchestra'
g6
tp2199
a(S'pit'
g150
tp2200
a(S'even'
g4
tp2201
a(S'theatre'
g29
tp2202
a(S'door'
g8
tp2203
aa(lp2204
(Vnot
g105
tp2205
a(Vaudience
S'NN'
p2206
tp2207
a(Vparticipant
g6
tp2208
a(Vtheatrical
g6
tp2209
a(Vexperience
g8
tp2210
a(Vincluding
S'VBG'
p2211
tp2212
a(Vstory
g121
tp2213
a(Vfilm
g279
tp2214
a(Vgrand
S'JJ'
p2215
tp2216
a(Vexperiment
g8
tp2217
a(Vsaid
g2195
tp2218
a(Vhey
g8
tp2219
aa(lp2220
(Vstory
g121
tp2221
a(Vneed
S'MD'
p2222
tp2223
a(Vattention
S'NN'
p2224
tp2225
a(Vneed
g45
tp2226
a(Vactive
S'JJ'
p2227
tp2228
a(Vparticipation
g8
tp2229
aa(lp2230
(S'sometimes'
g4
tp2231
a(S'bring'
g6
tp2232
a(S'story'
g121
tp2233
a(S'sometimes'
g4
tp2234
a(S'go'
g45
tp2235
a(S'story'
g121
tp2236
aa(lp2237
(Vala
g8
tp2238
a(Vno
g124
tp2239
a(Vone
g8
tp2240
a(Vlistened
g57
tp2241
a(Vbut
g113
tp2242
a(Vnot
g105
tp2243
a(Vmean
g45
tp2244
a(Vnot
g105
tp2245
a(Vsaid
g2195
tp2246
aaa(lp2247
(lp2248
(Vfutz
g8
tp2249
a(Vshow
g8
tp2250
a(Vpreserved
g57
tp2251
a(Vexperimental
g6
tp2252
a(Vtheatre
g6
tp2253
a(Vmovement
S'NN'
p2254
tp2255
a(Vnew
g247
tp2256
a(Vyork
g8
tp2257
a(Vorigin
g8
tp2258
a(Vbroadway
g8
tp2259
aa(lp2260
(Vthough
g195
tp2261
a(Vnot
g105
tp2262
a(Veveryone
g937
tp2263
a(Vgenuinely
g4
tp2264
a(Vbrilliant
g6
tp2265
a(Vdarkly
g8
tp2266
a(Vfunny
g57
tp2267
a(Veven
g4
tp2268
a(Voften
g1585
tp2269
a(Vdeeply
g29
tp2270
a(Vdisturbing
g25
tp2271
a(Vtale
g8
tp2272
a(Vlove
g8
tp2273
a(Vsex
g8
tp2274
a(Vpersonal
g126
tp2275
a(Vliberty
g8
tp2276
a(Vrevenge
g8
tp2277
a(Vserious
S'JJ'
p2278
tp2279
a(Vmorality
g8
tp2280
a(Vtale
g8
tp2281
a(Veven
g4
tp2282
a(Vrelevant
g6
tp2283
a(Vtime
g13
tp2284
a(Vcongress
g8
tp2285
a(Vwant
g29
tp2286
a(Voutlaw
g8
tp2287
a(Vgay
g8
tp2288
a(Vmarriage
g8
tp2289
a(Vtrashing
g25
tp2290
a(Vconstitution
g8
tp2291
aa(lp2292
(Vstory
g121
tp2293
a(Vnot
g105
tp2294
a(Vgay
g6
tp2295
a(Vthough
g195
tp2296
a(Vlove
g8
tp2297
a(Vsex
g8
tp2298
a(Vconform
g45
tp2299
a(Vsocial
g1074
tp2300
a(Vnorm
g8
tp2301
a(Vtherefore
g4
tp2302
a(Vmust
g646
tp2303
a(Vremoved
g45
tp2304
a(Vviolence
g8
tp2305
a(Vhate
g8
tp2306
aa(lp2307
(Vsurface
g8
tp2308
a(Vtell
g29
tp2309
a(Vstory
g121
tp2310
a(Vman
g1411
tp2311
a(Vfall
g8
tp2312
a(Vlove
g29
tp2313
a(Vpig
g8
tp2314
a(Vbut
g113
tp2315
a(Vlike
g195
tp2316
a(Vgreat
g427
tp2317
a(Vfable
g6
tp2318
a(Vnot
g105
tp2319
a(Vreally
g115
tp2320
a(Vanimal
g6
tp2321
a(Vsomething
g2190
tp2322
a(Vbigger
S'JJR'
p2323
tp2324
a(Vstifling
g25
tp2325
a(Vconformity
g8
tp2326
a(Vamerica
g8
tp2327
a(Vstage
g8
tp2328
a(Vversion
g340
tp2329
a(Vinternational
S'JJ'
p2330
tp2331
a(Vacclaim
g8
tp2332
a(Voriginal
g6
tp2333
a(Vproduction
g241
tp2334
a(Vtoured
g57
tp2335
a(Vu
g6
tp2336
a(Veurope
g8
tp2337
a(Vothers
g463
tp2338
a(Vkind
S'NN'
p2339
tp2340
a(Vinfluenced
g57
tp2341
a(Valmost
g2086
tp2342
a(Vtheatre
g6
tp2343
a(Vcame
g1529
tp2344
aa(lp2345
(S'luckily'
g4
tp2346
a(S'preserved'
g169
tp2347
a(S'show'
g8
tp2348
a(S'pretty'
g4
tp2349
a(S'much'
g6
tp2350
a(S'originally'
g4
tp2351
a(S'conceived'
g169
tp2352
a(S'original'
g6
tp2353
a(S'cast'
g8
tp2354
a(S'original'
g6
tp2355
a(S'director'
S'NN'
p2356
tp2357
a(S'tom'
g8
tp2358
a(S'horgan'
g8
tp2359
a(S'also'
g866
tp2360
a(S'directed'
g57
tp2361
a(S'hair'
g6
tp2362
a(S'jesus'
g8
tp2363
a(S'christ'
g8
tp2364
a(S'superstar'
g8
tp2365
a(S'broadway'
g4
tp2366
a(S'not'
g105
tp2367
a(S'mainstream'
g6
tp2368
a(S'easy'
g6
tp2369
a(S'take'
g8
tp2370
a(S'studio'
g360
tp2371
a(S'film'
g279
tp2372
a(S'aggressive'
S'JJ'
p2373
tp2374
a(S'unsettling'
g8
tp2375
a(S'glorious'
g6
tp2376
a(S'deeply'
g4
tp2377
a(S'emotional'
g6
tp2378
a(S'wildly'
g4
tp2379
a(S'imaginative'
g6
tp2380
a(S'piece'
g8
tp2381
a(S'storytelling'
g25
tp2382
a(S'never'
g544
tp2383
a(S'forget'
g45
tp2384
aa(lp2385
(S'might'
g799
tp2386
a(S'change'
g45
tp2387
a(S'way'
g951
tp2388
a(S'see'
g8
tp2389
a(S'world'
g1023
tp2390
aaa(lp2391
(lp2392
(Vcame
g1529
tp2393
a(Vmiddle
g6
tp2394
a(Vfilm
g279
tp2395
a(Vno
g124
tp2396
a(Videa
g2015
tp2397
a(Vcredit
S'NN'
p2398
tp2399
a(Veven
g4
tp2400
a(Vtitle
g45
tp2401
a(Vtill
g8
tp2402
a(Vlooked
g57
tp2403
a(Vsee
g29
tp2404
a(Vreceived
g169
tp2405
a(Vmixed
g6
tp2406
a(Vreception
g8
tp2407
a(Vcommentator
g8
tp2408
aa(lp2409
(S'positive'
g480
tp2410
a(S'side'
g8
tp2411
a(S'regarding'
g25
tp2412
a(S'film'
g279
tp2413
a(S'but'
g113
tp2414
a(S'one'
g78
tp2415
a(S'thing'
g1621
tp2416
a(S'really'
g115
tp2417
a(S'caught'
g6
tp2418
a(S'attention'
g2224
tp2419
a(S'watched'
g57
tp2420
a(S'beautiful'
g6
tp2421
a(S'sensitive'
g6
tp2422
a(S'score'
g8
tp2423
a(S'written'
g1853
tp2424
a(S'coplandesque'
g6
tp2425
a(S'americana'
g150
tp2426
a(S'style'
g277
tp2427
aa(lp2428
(S'surprise'
g8
tp2429
a(S'great'
g427
tp2430
a(S'discovered'
g57
tp2431
a(S'score'
g4
tp2432
a(S'written'
g1853
tp2433
a(S'none'
g8
tp2434
a(S'john'
g8
tp2435
a(S'williams'
g150
tp2436
aa(lp2437
(Vtrue
g394
tp2438
a(Vwritten
g1853
tp2439
a(Vsensitive
g6
tp2440
a(Vpoignant
g8
tp2441
a(Vscore
g8
tp2442
a(Vschindler
g6
tp2443
a(Vlist
g8
tp2444
a(Vbut
g113
tp2445
a(Vone
g78
tp2446
a(Vusually
S'RB'
p2447
tp2448
a(Vassociate
g6
tp2449
a(Vname
g8
tp2450
a(Vbombasticities
g150
tp2451
a(Vstar
g29
tp2452
a(Vwar
S'NN'
p2453
tp2454
aa(lp2455
(S'but'
g113
tp2456
a(S'opinion'
S'NN'
p2457
tp2458
a(S'williams'
g150
tp2459
a(S'written'
g1853
tp2460
a(S'movie'
g111
tp2461
a(S'surpasses'
g344
tp2462
a(S'anything'
S'NN'
p2463
tp2464
a(S'ever'
g1927
tp2465
a(S'heard'
g4
tp2466
a(S'tenderness'
g6
tp2467
a(S'sensitivity'
g8
tp2468
a(S'beauty'
g8
tp2469
a(S'fully'
S'RB'
p2470
tp2471
a(S'keeping'
S'VBG'
p2472
tp2473
a(S'tender'
g8
tp2474
a(S'lovely'
g4
tp2475
a(S'plot'
g6
tp2476
a(S'movie'
g111
tp2477
aa(lp2478
(Vanother
g814
tp2479
a(Vrecent
S'JJ'
p2480
tp2481
a(Vscore
g8
tp2482
a(Vcatch
g8
tp2483
a(Vif
g156
tp2484
a(Vshow
g8
tp2485
a(Vstill
g666
tp2486
a(Vwit
g344
tp2487
a(Vsophistication
g8
tp2488
aa(lp2489
(Vstanley
g6
tp2490
a(Viris
g8
tp2491
a(Vlike
g195
tp2492
a(Veducation
g8
tp2493
a(Vmovie
g111
tp2494
a(Vlike
g195
tp2495
a(Vgreen
g6
tp2496
a(Vvalley
g8
tp2497
a(Vkonrack
g8
tp2498
a(Vone
g78
tp2499
a(Vjohn
g8
tp2500
a(Vvoigt
g8
tp2501
a(Vyoung
g430
tp2502
a(Vafrican
g6
tp2503
a(Vamerican
g6
tp2504
a(Vcharge
g8
tp2505
a(Vsouth
g6
tp2506
a(Vcarolina
g6
tp2507
a(Vdanny
g8
tp2508
a(Vdevito
g8
tp2509
a(Vrenaissance
g8
tp2510
a(Vman
g1411
tp2511
a(Vetc
g8
tp2512
aa(lp2513
(S'tell'
g4
tp2514
a(S'necessary'
S'JJ'
p2515
tp2516
a(S'story'
g121
tp2517
a(S'intellectual'
g6
tp2518
a(S'spiritual'
g6
tp2519
a(S'awakening'
g25
tp2520
a(S'story'
g121
tp2521
a(S'told'
g57
tp2522
a(S'often'
g1585
tp2523
a(S'enough'
g6
tp2524
aa(lp2525
(S'one'
g78
tp2526
a(S'excellent'
g6
tp2527
a(S'addition'
S'NN'
p2528
tp2529
a(S'genre'
g8
tp2530
aaa(lp2531
(lp2532
(Vfair
g6
tp2533
a(Vdrama
g8
tp2534
a(Vlove
g45
tp2535
a(Vstory
g121
tp2536
a(Vmovie
g111
tp2537
a(Vfocus
g8
tp2538
a(Vlife
g19
tp2539
a(Vblue
g6
tp2540
a(Vcollar
g6
tp2541
a(Vpeople
g162
tp2542
a(Vfinding
g25
tp2543
a(Vnew
g247
tp2544
a(Vlife
g19
tp2545
a(Vthru
g344
tp2546
a(Vnew
g247
tp2547
a(Vlove
g195
tp2548
a(Vacting
g25
tp2549
a(Vgood
g6
tp2550
a(Vbut
g113
tp2551
a(Vfilm
g279
tp2552
a(Vfails
g150
tp2553
a(Vcinematography
g29
tp2554
a(Vscreenplay
g8
tp2555
a(Vdirecting
g25
tp2556
a(Vediting
g25
tp2557
a(Vstory
g121
tp2558
a(Vscript
g6
tp2559
a(Vaverage
g6
tp2560
a(Vbest
g424
tp2561
a(Vfilm
g279
tp2562
a(Venjoyed
g57
tp2563
a(Vfonda
g8
tp2564
a(Vde
g195
tp2565
a(Vniro
g581
tp2566
a(Vfan
g8
tp2567
a(Vpeople
g162
tp2568
a(Vlove
g29
tp2569
a(Vmiddle
g6
tp2570
a(Vage
g91
tp2571
a(Vlove
g45
tp2572
a(Vstory
g121
tp2573
a(Vcoartship
g8
tp2574
a(Vwiser
g29
tp2575
a(Vcautious
g6
tp2576
a(Vlevel
g8
tp2577
a(Vwould
g362
tp2578
a(Valso
g866
tp2579
a(Vinteresting
g25
tp2580
a(Vpeople
g162
tp2581
a(Vinterested
g6
tp2582
a(Vsubject
g6
tp2583
a(Vmatter
g8
tp2584
a(Vregarding
g25
tp2585
a(Villiteracy
g8
tp2586
aaa(lp2587
(lp2588
(S'although'
g510
tp2589
a(S'like'
g195
tp2590
a(S'stanley'
g6
tp2591
a(S'iris'
g8
tp2592
a(S'tremendously'
g4
tp2593
a(S'film'
g279
tp2594
a(S'admire'
g8
tp2595
a(S'acting'
g8
tp2596
aa(lp2597
(S'jane'
g8
tp2598
a(S'fonda'
g8
tp2599
a(S'robert'
g8
tp2600
a(S'de'
g195
tp2601
a(S'niro'
g581
tp2602
a(S'great'
g427
tp2603
a(S'movie'
g111
tp2604
aa(lp2605
(S'always'
g721
tp2606
a(S'fan'
g8
tp2607
a(S'fonda'
g6
tp2608
a(S'work'
g8
tp2609
a(S'but'
g113
tp2610
a(S'delicate'
g45
tp2611
a(S'strong'
g1387
tp2612
a(S'time'
g13
tp2613
aa(lp2614
(S'de'
g195
tp2615
a(S'niro'
g581
tp2616
a(S'ability'
g1420
tp2617
a(S'make'
g29
tp2618
a(S'every'
g1391
tp2619
a(S'role'
g998
tp2620
a(S'portrays'
g344
tp2621
a(S'acting'
g25
tp2622
a(S'gold'
g8
tp2623
aa(lp2624
(Vgive
g6
tp2625
a(Vgreat
g427
tp2626
a(Vperformance
g417
tp2627
a(Vfilm
g279
tp2628
a(Vgreat
g427
tp2629
a(Vscene
g8
tp2630
a(Vtake
g45
tp2631
a(Vfather
g8
tp2632
a(Vhome
g8
tp2633
a(Velderly
g6
tp2634
a(Vpeople
g162
tp2635
a(Vcare
g29
tp2636
a(Vanymore
g4
tp2637
a(Vbreak
g6
tp2638
a(Vheart
g383
tp2639
aa(lp2640
(S'really'
g115
tp2641
a(S'recommend'
g45
tp2642
a(S'film'
g279
tp2643
a(S'great'
g427
tp2644
a(S'cinematic'
g6
tp2645
a(S'entertainment'
S'NN'
p2646
tp2647
a(S'but'
g113
tp2648
a(S'say'
g29
tp2649
a(S'see'
g29
tp2650
a(S'much'
g6
tp2651
a(S'bette'
g8
tp2652
a(S'acting'
g25
tp2653
a(S'anywhere'
g4
tp2654
aaa(lp2655
(lp2656
(Vvery
g4
tp2657
a(Vgood
g6
tp2658
a(Vdrama
g8
tp2659
a(Valthough
g510
tp2660
a(Vappeared
g6
tp2661
a(Vblank
g6
tp2662
a(Varea
g486
tp2663
a(Vleaving
g25
tp2664
a(Vviewer
g630
tp2665
a(Vfill
g6
tp2666
a(Vaction
g1399
tp2667
aa(lp2668
(S'imagine'
g6
tp2669
a(S'life'
g19
tp2670
a(S'way'
g951
tp2671
a(S'someone'
g589
tp2672
a(S'neither'
g124
tp2673
a(S'read'
g8
tp2674
a(S'nor'
S'CC'
p2675
tp2676
a(S'write'
g6
tp2677
aa(lp2678
(Vfilm
g279
tp2679
a(Vsimply
S'RB'
p2680
tp2681
a(Vsmacked
g57
tp2682
a(Vreal
g160
tp2683
a(Vworld
g1023
tp2684
a(Vwife
g823
tp2685
a(Vsuddenly
g4
tp2686
a(Vsole
g6
tp2687
a(Vsupporter
g8
tp2688
a(Vlive
g6
tp2689
a(Vrelative
g6
tp2690
a(Vquarrel
g8
tp2691
a(Vtroubled
g57
tp2692
a(Vchild
g8
tp2693
a(Vget
g8
tp2694
a(Vknocked
g169
tp2695
a(Vtypically
S'RB'
p2696
tp2697
a(Vdrop
g6
tp2698
a(Vschool
g17
tp2699
a(Vjackass
g8
tp2700
a(Vhusband
g8
tp2701
a(Vtake
g45
tp2702
a(Vnest
g424
tp2703
a(Vegg
g8
tp2704
a(Vbuy
g45
tp2705
a(Vbeer
g827
tp2706
aa(lp2707
(Vthumb
p2708
g8
tp2709
aaa(lp2710
(lp2711
(Vworking
g25
tp2712
a(Vclass
g838
tp2713
a(Vromantic
g6
tp2714
a(Vdrama
g8
tp2715
a(Vdirector
g2356
tp2716
a(Vmartin
g57
tp2717
a(Vritt
g6
tp2718
a(Vunbelievable
g6
tp2719
a(Vcome
g169
tp2720
a(Vyet
g4
tp2721
a(Vmoment
S'NN'
p2722
tp2723
a(Vpleasure
g8
tp2724
a(Vdue
g6
tp2725
a(Vmostly
g269
tp2726
a(Vcharisma
g6
tp2727
a(Vstar
g8
tp2728
a(Vjane
g8
tp2729
a(Vfonda
g8
tp2730
a(Vrobert
g8
tp2731
a(Vde
g195
tp2732
a(Vniro
g581
tp2733
a(Vterrific
g8
tp2734
aa(lp2735
(S'widow'
g8
tp2736
a(S'move'
g8
tp2737
a(S'illiterate'
g8
tp2738
a(S'closet'
g8
tp2739
a(S'inventor'
g8
tp2740
a(S'probably'
g1183
tp2741
a(S'guess'
g6
tp2742
a(S'rest'
g8
tp2743
aa(lp2744
(S'adaptation'
g8
tp2745
a(S'pat'
g8
tp2746
a(S'barker'
g8
tp2747
a(S'novel'
g195
tp2748
a(S'union'
S'NN'
p2749
tp2750
a(S'street'
g8
tp2751
a(S'better'
g35
tp2752
a(S'title'
g8
tp2753
aa(lp2754
(Vlaid
g169
tp2755
a(Vback
g4
tp2756
a(Vverge
g8
tp2757
a(Vbland
g8
tp2758
a(Vfilm
g279
tp2759
a(Vediting
g25
tp2760
a(Vmess
g8
tp2761
a(Vbut
g113
tp2762
a(Vstill
g666
tp2763
a(Vpleasant
g6
tp2764
a(Vrosy
g6
tp2765
a(Vhued
g169
tp2766
a(Vblue
g6
tp2767
a(Vcollar
g8
tp2768
a(Vfantasy
g8
tp2769
aa(lp2770
(Vno
g124
tp2771
a(Voverture
g8
tp2772
a(Vserious
g2278
tp2773
a(Vissue
g8
tp2774
a(Veven
g4
tp2775
a(Villiteracy
g6
tp2776
a(Vangle
g8
tp2777
a(Vplot
g8
tp2778
a(Vtool
g8
tp2779
a(Vensuing
g25
tp2780
a(Vlove
g45
tp2781
a(Vstory
g121
tp2782
a(Vno
g124
tp2783
a(Vreal
g160
tp2784
a(Vfirework
g8
tp2785
a(Vthough
g195
tp2786
a(Vcharacter
g8
tp2787
a(Vintentionally
g4
tp2788
a(Vbit
g4
tp2789
a(Vcolorless
g6
tp2790
a(Vlead
g8
tp2791
a(Vtoned
g57
tp2792
a(Vinteresting
g6
tp2793
a(Vdegree
g8
tp2794
aa(lp2795
(Vfinale
g6
tp2796
a(Vpure
g8
tp2797
a(Vfluff
g8
tp2798
a(Vcynic
g6
tp2799
a(Vfind
g8
tp2800
a(Vdifficult
g644
tp2801
a(Vswallow
g6
tp2802
a(Vthough
g195
tp2803
a(Vtwo
g1253
tp2804
a(Vcharacter
g8
tp2805
a(Vdeserve
g8
tp2806
a(Vhappy
g6
tp2807
a(Vending
g597
tp2808
a(Vpicture
g8
tp2809
a(Vreally
g115
tp2810
a(Vsatisfying
g6
tp2811
a(Vway
g951
tp2812
aaa.