(lp1
(lp2
(lp3
(Vstory
S'NN'
p4
tp5
a(Vman
S'NN'
p6
tp7
a(Vunnatural
S'JJ'
p8
tp9
a(Vfeeling
S'NN'
p10
tp11
a(Vpig
g10
tp12
aa(lp13
(Vstart
S'VB'
p14
tp15
a(Vopening
S'VBG'
p16
tp17
a(Vscene
g10
tp18
a(Vterrific
g8
tp19
a(Vexample
S'NN'
p20
tp21
a(Vabsurd
g8
tp22
a(Vcomedy
g10
tp23
aa(lp24
(Vformal
g8
tp25
a(Vorchestra
g10
tp26
a(Vaudience
S'NN'
p27
tp28
a(Vturned
S'VBD'
p29
tp30
a(Vinsane
g8
tp31
a(Vviolent
g8
tp32
a(Vmob
g10
tp33
a(Vcrazy
g10
tp34
a(Vchanting
g10
tp35
a(Vsinger
g10
tp36
aa(lp37
(Vunfortunately
S'RB'
p38
tp39
a(Vstay
g8
tp40
a(Vabsurd
g8
tp41
a(Vwhole
g8
tp42
a(Vtime
S'NN'
p43
tp44
a(Vno
S'DT'
p45
tp46
a(Vgeneral
g8
tp47
a(Vnarrative
g8
tp48
a(Veventually
S'RB'
p49
tp50
a(Vmaking
g16
tp51
a(Vputting
S'VBG'
p52
tp53
aa(lp54
(S'even'
g38
tp55
a(S'era'
g10
tp56
a(S'turned'
g29
tp57
aa(lp58
(S'cryptic'
g8
tp59
a(S'dialogue'
g10
tp60
a(S'would'
S'MD'
p61
tp62
a(S'make'
g14
tp63
a(S'shakespeare'
g10
tp64
a(S'seem'
g8
tp65
a(S'easy'
g8
tp66
a(S'third'
g8
tp67
a(S'grader'
g10
tp68
aa(lp69
(S'technical'
S'JJ'
p70
tp71
a(S'level'
g10
tp72
a(S'better'
S'RBR'
p73
tp74
a(S'might'
S'MD'
p75
tp76
a(S'think'
g14
tp77
a(S'good'
g8
tp78
a(S'cinematography'
g10
tp79
a(S'future'
g10
tp80
a(S'great'
S'JJ'
p81
tp82
a(S'vilmos'
g8
tp83
a(S'zsigmond'
g10
tp84
aa(lp85
(Vfuture
g8
tp86
a(Vstar
g10
tp87
a(Vsally
g38
tp88
a(Vkirkland
g14
tp89
a(Vfrederic
g8
tp90
a(Vforrest
S'JJS'
p91
tp92
a(Vseen
S'VBN'
p93
tp94
a(Vbriefly
g10
tp95
aaa(lp96
(lp97
(Vfilm
S'NN'
p98
tp99
a(Vlot
g10
tp100
a(Vpromise
g10
tp101
a(Vplot
g10
tp102
a(Vrelatively
S'RB'
p103
tp104
a(Vinteresting
g8
tp105
a(Vhowever
S'RB'
p106
tp107
a(Vactor
g10
tp108
a(Vdirector
S'NN'
p109
tp110
a(Veditor
S'NN'
p111
tp112
a(Vseriously
g38
tp113
a(Vlet
g14
tp114
a(Vfilm
g98
tp115
a(Vfeel
g14
tp116
a(Vbad
S'JJ'
p117
tp118
a(Vwriter
g10
tp119
a(Vcould
S'MD'
p120
tp121
a(Vgood
g14
tp122
aa(lp123
(Vacting
g16
tp124
a(Vwooden
g8
tp125
a(Vvery
g38
tp126
a(Vcharacter
g73
tp127
a(Vbelievable
g8
tp128
a(Vever
S'RB'
p129
tp130
a(Vedited
g29
tp131
a(Vclearly
S'RB'
p132
tp133
a(Vlearnt
g8
tp134
a(Vnew
S'JJ'
p135
tp136
a(Vedit
g10
tp137
a(Vtechnique
g10
tp138
a(Vwanted
g29
tp139
a(Vsplash
g10
tp140
a(Vfilm
g98
tp141
aa(lp142
(Vlot
g10
tp143
a(Vquick
g8
tp144
a(Vflashy
g10
tp145
a(Vedits
S'VBZ'
p146
tp147
a(Valmost
S'RB'
p148
tp149
a(Vevery
S'DT'
p150
tp151
a(Vscene
g10
tp152
a(Vclearly
g132
tp153
a(Vmeant
g8
tp154
a(Vsymbolic
g10
tp155
a(Vbut
S'CC'
p156
tp157
a(Vend
g10
tp158
a(Vannoying
g10
tp159
a(Vwanted
g29
tp160
a(Vlike
S'IN'
p161
tp162
a(Vfilm
g98
tp163
a(Vexpected
S'VBN'
p164
tp165
a(Vdecent
g8
tp166
a(Vresolution
g10
tp167
a(Vbreakdown
g161
tp168
a(Vequilibrium
g10
tp169
a(Vbut
g156
tp170
a(Vala
g146
tp171
a(Vno
g45
tp172
a(Vleft
g8
tp173
a(Vfeeling
g10
tp174
a(Vlike
g161
tp175
a(Vwasted
g8
tp176
a(Vtime
g43
tp177
a(Vfilm
g98
tp178
a(Vmaker
S'NN'
p179
tp180
a(Vwasted
g29
tp181
a(Vmoney
S'NN'
p182
tp183
aaa(lp184
(lp185
(Vif
S'IN'
p186
tp187
a(Vlook
g164
tp188
a(Vcorey
S'VBP'
p189
tp190
a(Vlarge
S'JJ'
p191
tp192
a(Vinformation
S'NN'
p193
tp194
a(Vimdb
g10
tp195
a(Vapparently
S'RB'
p196
tp197
a(Vmovie
S'NN'
p198
tp199
a(Vcalled
g164
tp200
a(Vreload
g10
tp201
a(Vproduction
S'NN'
p202
tp203
a(Vjune
g10
tp204
a(Vplaying
g16
tp205
a(Vcharacter
g10
tp206
a(Vnamed
g164
tp207
a(Vsebastian
g8
tp208
a(Vcole
g10
tp209
a(Vfirst
g38
tp210
a(Vcrappy
g8
tp211
a(Vmovie
g198
tp212
a(Vever
g129
tp213
a(Vearn
g38
tp214
a(Vsequel
g8
tp215
a(Vsecond
g10
tp216
a(Vsebastian
g8
tp217
a(Vget
g10
tp218
a(Vkilled
g164
tp219
a(Vend
g10
tp220
a(Vloaded
g164
tp221
a(Vwatched
g29
tp222
a(Vwee
g8
tp223
a(Vhour
S'NN'
p224
tp225
a(Vmorning
S'NN'
p226
tp227
a(Vbattling
g10
tp228
a(Vinsomnia
g10
tp229
a(Vdrifting
g16
tp230
aa(lp231
(Vsure
g38
tp232
a(Vmissed
g164
tp233
a(Vplot
g10
tp234
a(Vpoint
g10
tp235
a(Vbut
g156
tp236
a(Voverall
g8
tp237
a(Vseemed
g29
tp238
a(Vreally
S'RB'
p239
tp240
a(Vweak
S'JJ'
p241
tp242
aa(lp243
(Vlarge
g191
tp244
a(Vperformance
S'NN'
p245
tp246
a(Vone
S'CD'
p247
tp248
a(Vstronger
S'JJR'
p249
tp250
a(Vpart
S'NN'
p251
tp252
a(Vfilm
g98
tp253
aa(lp254
(Valso
S'RB'
p255
tp256
a(Vbit
g10
tp257
a(Vsurprised
g8
tp258
a(Vpeople
S'NNS'
p259
tp260
a(Vcommenting
g16
tp261
a(Vbeautiful
g8
tp262
a(Vgirl
g10
tp263
a(Vsince
S'IN'
p264
tp265
a(Vthought
g10
tp266
a(Vactress
g161
tp267
a(Vplaying
g16
tp268
a(Vbrooke
g10
tp269
a(Vpretty
g38
tp270
a(Vbut
g156
tp271
a(Vnot
S'RB'
p272
tp273
a(Vexceptional
g8
tp274
aaa(lp275
(lp276
(S'could'
g120
tp277
a(S'think'
g14
tp278
a(S'watching'
g16
tp279
a(S'movie'
g198
tp280
a(S'b'
g10
tp281
a(S'grade'
g10
tp282
a(S'slop'
g10
tp283
aa(lp284
(Vmany
S'JJ'
p285
tp286
a(Vspoken
S'NNS'
p287
tp288
a(Vredeeming
g16
tp289
a(Vquality
g10
tp290
a(Vfilm
g98
tp291
a(Vportrays
g146
tp292
a(Vrealistic
g8
tp293
a(Vrepresentation
g10
tp294
a(Veffect
S'NN'
p295
tp296
a(Vdrug
S'NN'
p297
tp298
a(Vindividual
g8
tp299
a(Vsubsequent
g8
tp300
a(Vspiral
g10
tp301
a(Vself
g10
tp302
a(Vperpetuation
g10
tp303
a(Vstate
S'NN'
p304
tp305
a(Vunfortunate
g8
tp306
a(Vevent
S'NN'
p307
tp308
aa(lp309
(Vyet
g38
tp310
a(Vreally
g239
tp311
a(Vtechnique
g8
tp312
a(Vused
g29
tp313
a(Vmany
g285
tp314
a(Valready
S'RB'
p315
tp316
a(Vmentioned
g164
tp317
a(Voverused
g164
tp318
a(Vthus
S'RB'
p319
tp320
a(Vunconvincing
g8
tp321
a(Virrelevant
g8
tp322
a(Vfilm
g98
tp323
a(Vwhole
g8
tp324
a(Vfar
S'RB'
p325
tp326
a(Vplot
g10
tp327
a(Vconcerned
g8
tp328
a(Vlacklustre
g8
tp329
a(Vunimaginative
g8
tp330
a(Vimplausible
g10
tp331
a(Vconvoluted
g29
tp332
aa(lp333
(Vread
g14
tp334
a(Vmost
g91
tp335
a(Vreport
g10
tp336
a(Vfilm
g98
tp337
a(Vsay
g189
tp338
a(Vpretty
g38
tp339
a(Vmuch
g38
tp340
a(Vwould
g61
tp341
a(Vgranted
g14
tp342
a(Vactor
g10
tp343
a(Vactress
g8
tp344
a(Vattractive
g8
tp345
a(Vbut
g156
tp346
a(Vconfronted
g8
tp347
a(Vboring
g8
tp348
a(Vaction
S'NN'
p349
tp350
a(Vlook
g10
tp351
a(Vcarry
g189
tp352
a(Vfilm
g98
tp353
a(Vfar
g325
tp354
aa(lp355
(Vaction
g349
tp356
a(Vpoor
S'JJ'
p357
tp358
a(Vintermittent
g10
tp359
a(Vpunch
g10
tp360
a(Vthrown
g161
tp361
a(Vfinal
S'JJ'
p362
tp363
a(Vgunfight
g10
tp364
a(Vtowards
g287
tp365
a(Vend
g189
tp366
aa(lp367
(Vnothing
S'NN'
p368
tp369
a(Vreally
g239
tp370
a(Vwrite
g8
tp371
a(Vhome
g10
tp372
a(Vothers
S'NNS'
p373
tp374
a(Vsaid
S'VBD'
p375
tp376
a(Vbad
g117
tp377
a(Vmovie
g198
tp378
a(Vgreat
g81
tp379
a(Vwatch
g10
tp380
a(Vvery
g38
tp381
a(Vreason
S'NN'
p382
tp383
a(Vbad
g117
tp384
a(Vrevel
g10
tp385
a(Vfact
S'NN'
p386
tp387
aa(lp388
(S'film'
g98
tp389
a(S'however'
g106
tp390
a(S'void'
g10
tp391
aa(lp392
(Vnothing
g368
tp393
a(Vfurthermore
g38
tp394
a(Vif
g186
tp395
a(Vone
g247
tp396
a(Vreally
g239
tp397
a(Vneed
g14
tp398
a(Veducational
g8
tp399
a(Vmovie
g198
tp400
a(Vscare
g10
tp401
a(Vpeople
g259
tp402
a(Vaway
g38
tp403
a(Vdrug
g297
tp404
a(Vuse
g10
tp405
a(Vwould
g61
tp406
a(Vseriously
g38
tp407
a(Vrecommend
g14
tp408
a(Vnumber
S'NN'
p409
tp410
a(Vmovie
g198
tp411
a(Vboard
S'NN'
p412
tp413
a(Vissue
g10
tp414
a(Vmuch
g38
tp415
a(Veffective
S'JJ'
p416
tp417
a(Vway
S'NN'
p418
tp419
aa(lp420
(Vrequiem
g10
tp421
a(Vdream
g10
tp422
a(Vtrainspotting
g16
tp423
a(Vfear
g10
tp424
a(Vloathing
g16
tp425
a(Vla
g10
tp426
a(Vvega
S'FW'
p427
tp428
a(Vcandy
g10
tp429
a(Vexample
g20
tp430
aa(lp431
(Vthough
g161
tp432
a(Vone
g247
tp433
a(Valso
g255
tp434
a(Vcheck
g14
tp435
a(Vlighthearted
g29
tp436
a(Vfilm
g98
tp437
a(Vsubject
g10
tp438
a(Vlike
g161
tp439
a(Vgo
g189
tp440
a(Voverall
g8
tp441
a(Vserious
S'JJ'
p442
tp443
a(Vfunny
g10
tp444
a(Vhalfbaked
g29
tp445
a(Vfinal
g362
tp446
a(Vnote
g10
tp447
a(Vone
g247
tp448
a(Vpossibly
g38
tp449
a(Vredeeming
g16
tp450
a(Vline
S'NN'
p451
tp452
a(Vmovie
g198
tp453
a(Vdelivered
g29
tp454
a(Vvinnie
g8
tp455
a(Vjones
g287
tp456
a(Vstolen
g164
tp457
a(Vlock
g8
tp458
a(Vstock
S'NN'
p459
tp460
a(Vtwo
S'CD'
p461
tp462
a(Vsmokling
g10
tp463
a(Vbarrel
g10
tp464
aa(lp465
(S'think'
g14
tp466
a(S'bit'
g10
tp467
a(S'great'
g81
tp468
a(S'movie'
g198
tp469
a(S'tainted'
g164
tp470
a(S'loaded'
g29
tp471
a(S'vile'
g8
tp472
a(S'overall'
g8
tp473
a(S'strongly'
g38
tp474
a(S'suggest'
g189
tp475
a(S'save'
g14
tp476
a(S'money'
g182
tp477
a(S'time'
g43
tp478
a(S'not'
g272
tp479
a(S'seeing'
g16
tp480
a(S'movie'
g198
tp481
aaa(lp482
(lp483
(Vweak
g241
tp484
a(Vplot
g10
tp485
a(Vpredictable
g8
tp486
a(Vviolence
g10
tp487
a(Vsemi
g10
tp488
a(Vinteresting
g8
tp489
a(Vcharacter
g10
tp490
aa(lp491
(Vlike
g161
tp492
a(Vwriter
g10
tp493
a(Valso
g255
tp494
a(Vone
g247
tp495
a(Vstar
g10
tp496
aa(lp497
(Vfictionalizing
g16
tp498
a(Vscrew
g29
tp499
a(Vups
g287
tp500
a(Vadded
g29
tp501
a(Vincredulous
g8
tp502
a(Vfantasy
g8
tp503
a(Vdrug
g297
tp504
a(Vmurder
g10
tp505
a(Vmake
g189
tp506
a(Vhot
g8
tp507
aa(lp508
(Vpredictable
g8
tp509
a(Vrap
g10
tp510
a(Vhouse
S'NN'
p511
tp512
a(Vsoundtrack
g29
tp513
a(Vfamily
S'NN'
p514
tp515
a(Vconflict
g10
tp516
a(Vpoorly
g38
tp517
a(Vacted
g29
tp518
a(Vstereotypical
g8
tp519
a(Vultimately
g38
tp520
a(Vterribly
g38
tp521
a(Vboring
g16
tp522
aa(lp523
(Veven
g38
tp524
a(Vtitle
g14
tp525
a(Vdone
S'VBN'
p526
tp527
a(Vimdb
g8
tp528
a(Vlist
g10
tp529
a(Vfive
S'CD'
p530
tp531
a(Vmovie
g198
tp532
a(Vname
g10
tp533
a(Vreleased
g29
tp534
aa(lp535
(Vnote
g10
tp536
a(Vsaw
g29
tp537
a(Vshowtime
g38
tp538
a(Vlisted
g164
tp539
a(Vsynopsis
g10
tp540
a(Vone
g247
tp541
a(Vmovie
g198
tp542
aa(lp543
(S'halfway'
g38
tp544
a(S'thru'
S'EX'
p545
tp546
a(S'realized'
g164
tp547
a(S'no'
g45
tp548
a(S'one'
g10
tp549
a(S'undercover'
g10
tp550
a(S'cop'
g10
tp551
aa(lp552
(S'even'
g38
tp553
a(S'tho'
g146
tp554
a(S'another'
S'DT'
p555
tp556
a(S'stereotype'
g10
tp557
a(S'would'
g61
tp558
a(S'made'
g14
tp559
a(S'interesting'
g16
tp560
a(S'if'
g186
tp561
a(S'happened'
g164
tp562
aaa(lp563
(lp564
(Vtime
g43
tp565
a(Vfinishing
g16
tp566
a(Vfilm
g98
tp567
a(Vone
g247
tp568
a(Vwish
g10
tp569
a(Vrefund
g10
tp570
a(Vtime
g43
tp571
a(Vspent
g10
tp572
aa(lp573
(Vone
g247
tp574
a(Vtime
g43
tp575
aa(lp576
(Valmost
g148
tp577
a(Vgave
S'VBD'
p578
tp579
a(Vminute
g10
tp580
a(Vleft
g8
tp581
a(Vendure
g10
tp582
a(Vwish
g8
tp583
a(Vpace
S'NN'
p584
tp585
a(Vman
g6
tp586
a(Vgo
g189
tp587
a(Vstraight
g38
tp588
a(Vlaced
g164
tp589
a(Vcontrolled
g164
tp590
a(Vlife
S'NN'
p591
tp592
a(Vone
g247
tp593
a(Vcomplete
g8
tp594
a(Vspinelessness
g10
tp595
a(Virresponsibility
g10
tp596
a(Vcould
g120
tp597
a(Vnever
S'RB'
p598
tp599
a(Vrapid
g14
tp600
a(Vgraduation
g10
tp601
a(Vcelebration
g10
tp602
a(Vpredictable
g8
tp603
a(Vending
S'VBG'
p604
tp605
a(Vtristan
g8
tp606
a(Vprice
S'NN'
p607
tp608
a(Vjesse
g10
tp609
a(Vmetcalfe
g10
tp610
a(Vman
g6
tp611
a(Vprivilege
g10
tp612
a(Vculture
S'NN'
p613
tp614
a(Vallows
g146
tp615
a(Vseduced
g164
tp616
a(Vwoman
S'NN'
p617
tp618
a(Vviolence
g10
tp619
a(Vmind
g10
tp620
a(Valtering
g16
tp621
a(Vsubstance
g10
tp622
aa(lp623
(Vcourse
S'NN'
p624
tp625
a(Vwoman
g617
tp626
a(Vpart
g251
tp627
a(Vunderstandable
g8
tp628
a(Vobserving
g16
tp629
a(Vtalent
g10
tp630
a(Vbeautiful
g8
tp631
a(Vapril
g8
tp632
a(Vnathalie
g10
tp633
a(Vkelley
g10
tp634
aa(lp635
(Vbut
g156
tp636
a(Vpenny
g8
tp637
a(Vpound
S'NN'
p638
tp639
a(Vaspect
g8
tp640
a(Vdrug
g297
tp641
a(Vviolence
g10
tp642
a(Vdedication
g10
tp643
a(Vperson
S'NN'
p644
tp645
a(Vmet
g29
tp646
a(Vimpossible
g8
tp647
a(Vunderstand
g8
tp648
a(Vfrankly
g38
tp649
a(Vbesides
g161
tp650
a(Vable
S'JJ'
p651
tp652
a(Vstare
g10
tp653
a(Vnathalie
g8
tp654
a(Vkelley
g10
tp655
a(Vmonica
g10
tp656
a(Vkeena
S'NNP'
p657
tp658
a(Vfilm
g98
tp659
a(Vno
g38
tp660
a(Vredeeming
g16
tp661
a(Vquality
g10
tp662
aa(lp663
(S'save'
g14
tp664
a(S'money'
g182
tp665
a(S'save'
g10
tp666
a(S'time'
g43
tp667
a(S'anything'
S'NN'
p668
tp669
a(S'else'
g38
tp670
aaa(lp671
(lp672
a(lp673
(S'one'
p674
g247
tp675
aa(lp676
(S'worst'
g91
tp677
a(S'movie'
g198
tp678
a(S'ever'
g129
tp679
a(S'made'
g29
tp680
aa(lp681
(S'ever'
p682
g129
tp683
aa(lp684
(Vbeat
g10
tp685
a(Veverything
S'NN'
p686
tp687
aa(lp688
(S'never'
g598
tp689
a(S'seen'
g93
tp690
a(S'worse'
g249
tp691
aa(lp692
(Vretire
g10
tp693
a(Vtrophy
g10
tp694
a(Vgive
g189
tp695
a(Vpeople
g259
tp696
a(Vno
g45
tp697
a(Vcomparison
g10
tp698
a(Veven
g38
tp699
a(Vthree
S'CD'
p700
tp701
a(Vday
S'NN'
p702
tp703
a(Vwatching
g16
tp704
a(Vreason
g382
tp705
a(Vstill
S'RB'
p706
tp707
a(Vknow
g189
tp708
a(Vcannot
g8
tp709
a(Vbelieve
g189
tp710
a(Vinsanely
g38
tp711
a(Vhorrific
g8
tp712
a(Vmovie
g198
tp713
aa(lp714
(S'bad'
p715
g117
tp716
aa(lp717
(Vfar
g325
tp718
a(Vanything
g668
tp719
a(Vcould
g120
tp720
a(Vconsidered
g14
tp721
a(Vmovie
g198
tp722
a(Vstory
g4
tp723
a(Vanything
g668
tp724
a(Vever
g129
tp725
a(Vcreated
g29
tp726
a(Vbrought
g8
tp727
a(Vexistence
g10
tp728
a(Vmade
g164
tp729
a(Vquestion
g10
tp730
a(Vwhether
S'IN'
p731
tp732
a(Vnot
g272
tp733
a(Vhuman
g8
tp734
a(Vtruly
g38
tp735
a(Vput
g29
tp736
a(Vearth
g38
tp737
a(Vgood
g8
tp738
aa(lp739
(Vmade
g164
tp740
a(Vfeel
g10
tp741
a(Vdisgusted
g8
tp742
a(Vprogress
g10
tp743
a(Vspecie
g10
tp744
a(Vuniverse
g10
tp745
aa(lp746
(Vtype
g8
tp747
a(Vmovie
g198
tp748
a(Vsincerely
g38
tp749
a(Vhurt
g29
tp750
a(Vu
g8
tp751
a(Vsociety
g10
tp752
aa(lp753
(S'ashamed'
p754
g164
tp755
aa(lp756
(Vreally
g239
tp757
a(Vcannot
g8
tp758
a(Vemphasize
g14
tp759
a(Vglobal
S'JJ'
p760
tp761
a(Vresponsibility
g10
tp762
a(Vpeople
g259
tp763
a(Vliving
g16
tp764
a(Vcreating
S'VBG'
p765
tp766
a(Vart
g38
tp767
a(Vneed
g14
tp768
a(Vprevent
g10
tp769
a(Vcreation
g10
tp770
a(Vgross
S'JJ'
p771
tp772
a(Vdistortion
g10
tp773
a(Vreality
g10
tp774
a(Vgood
g8
tp775
aa(lp776
(S'embarrassment'
p777
g10
tp778
aa(lp779
(Vknow
g14
tp780
a(Vearth
g10
tp781
a(Vactor
g8
tp782
a(Vwriter
g10
tp783
a(Vdirector
g109
tp784
a(Vfilm
g98
tp785
a(Vsleep
g8
tp786
a(Vnight
S'NN'
p787
tp788
a(Vknowing
g16
tp789
a(Vrole
S'NN'
p790
tp791
a(Vmaking
g10
tp792
a(Vloaded
g29
tp793
aa(lp794
(Vknow
g14
tp795
a(Vtype
g10
tp796
a(Vdisgusting
g16
tp797
a(Vmonster
g10
tp798
a(Venjoy
g10
tp799
a(Vwatching
g16
tp800
a(Vtype
g8
tp801
a(Vmovie
g198
tp802
a(Vsaid
g375
tp803
a(Vlove
g38
tp804
a(Vgood
g8
tp805
a(Vbad
g117
tp806
a(Vmovie
g198
tp807
aa(lp808
(S'love'
g10
tp809
a(S'shark'
g10
tp810
a(S'attack'
g10
tp811
a(S'love'
g10
tp812
a(S'bad'
g117
tp813
a(S'taste'
g10
tp814
a(S'hilarious'
g8
tp815
aa(lp816
(Vtell
g10
tp817
a(Vfriend
g10
tp818
a(Vsee
g189
tp819
a(Vbad
g117
tp820
a(Vbut
g156
tp821
a(Vcross
g8
tp822
a(Vline
g451
tp823
a(Vbad
g117
tp824
a(Vwhole
g8
tp825
a(Vnew
g135
tp826
a(Vdimension
g10
tp827
aa(lp828
(S'awkward'
g38
tp829
a(S'bad'
g117
tp830
aa(lp831
(Vbad
g117
tp832
a(Vknow
g189
tp833
a(Veverything
g686
tp834
a(Vgoing
S'VBG'
p835
tp836
a(Vhappen
g8
tp837
a(Vevery
g150
tp838
a(Vline
g451
tp839
a(Vevery
g150
tp840
a(Vaction
g349
tp841
a(Vevery
g150
tp842
a(Vdeath
S'NN'
p843
tp844
a(Vevery
g150
tp845
a(Vsequence
g10
tp846
a(Vhappen
g146
tp847
a(Vnot
g272
tp848
a(Vlike
g8
tp849
a(Vsecond
g8
tp850
a(Vtwo
g461
tp851
a(Vmean
g189
tp852
a(Vlike
g161
tp853
a(Vwatching
g16
tp854
a(Vfirst
g38
tp855
a(Vminute
g10
tp856
a(Vevery
g150
tp857
a(Vcheesy
g10
tp858
a(Vediting
g16
tp859
a(Veffect
g295
tp860
a(Vshamelessly
g38
tp861
a(Vused
g29
tp862
a(Vsickening
g16
tp863
a(Vpoint
g10
tp864
aa(lp865
(Vreally
g239
tp866
a(Vnever
g598
tp867
a(Vwant
g189
tp868
a(Vsee
g10
tp869
a(Vshaky
g8
tp870
a(Vcamera
g10
tp871
a(Vdrug
g297
tp872
a(Vbuzz
g10
tp873
a(Vrush
g10
tp874
a(Veffect
g295
tp875
a(Vjump
g10
tp876
a(Vcut
g10
tp877
a(Vswerve
g10
tp878
a(Vcut
g29
tp879
a(Vfancy
g8
tp880
a(Vcut
g10
tp881
a(Vever
g129
tp882
a(Vever
g129
tp883
aa(lp884
(Vmeticulously
g38
tp885
a(Vboring
g16
tp886
a(Vrepetitive
g8
tp887
a(Vtorture
g10
tp888
a(Vaudience
g27
tp889
a(Vbut
g156
tp890
a(Vlet
g14
tp891
a(Vspecific
g8
tp892
a(Vmost
S'RBS'
p893
tp894
a(Vdisturbing
g8
tp895
a(Vthing
S'NN'
p896
tp897
a(Vmovie
g198
tp898
a(Vgiven
S'VBN'
p899
tp900
a(Vproduction
g202
tp901
a(Vappears
S'VBZ'
p902
tp903
a(Vsomewhat
g38
tp904
a(Vdecent
g8
tp905
a(Vamount
g10
tp906
a(Vmoney
g182
tp907
a(Vactually
S'RB'
p908
tp909
a(Vput
g29
tp910
a(Vexcrement
g8
tp911
aa(lp912
(Vpersonally
g38
tp913
a(Vgrab
g8
tp914
a(Vshoulder
g10
tp915
a(Vdirector
g109
tp916
a(Vif
g186
tp917
a(Vever
g129
tp918
a(Vsee
g189
tp919
a(Vshake
g8
tp920
a(Vsubmission
g10
tp921
a(Vdemanding
g16
tp922
a(Vrun
g164
tp923
a(Vhome
g38
tp924
a(Vswallow
g8
tp925
a(Vtwo
g461
tp926
a(Vgallon
g10
tp927
a(Vdrain
g10
tp928
a(Vif
g186
tp929
a(Vever
g129
tp930
a(Vneeded
g164
tp931
a(Vnew
g135
tp932
a(Vform
g10
tp933
a(Vinhumane
g8
tp934
a(Vtorture
g10
tp935
a(Vwar
S'NN'
p936
tp937
a(Vprisoner
g10
tp938
a(Vabroad
S'RB'
p939
tp940
a(Vkeep
g14
tp941
a(Vshowing
g16
tp942
a(Vmovie
g198
tp943
a(Vpadded
g164
tp944
a(Vcell
g10
tp945
aa(lp946
(Vtrust
g10
tp947
a(Vthink
g189
tp948
a(Vbecome
g164
tp949
a(Vextravagant
g8
tp950
a(Vsuicide
g8
tp951
a(Vmethod
g10
tp952
a(Vnd
g8
tp953
a(Vtime
g43
tp954
a(Vsitting
g16
tp955
a(Vstop
g8
tp956
a(Vmovie
g198
tp957
a(Vmost
g91
tp958
a(Vvile
g8
tp959
a(Vfacet
g10
tp960
a(Vsociety
g10
tp961
aa(lp962
(S'please'
p963
g10
tp964
aa(lp965
(S'stop'
p966
g10
tp967
aa(lp968
aa(lp969
(lp970
(Vlot
g10
tp971
a(Vextremely
S'RB'
p972
tp973
a(Vgood
g8
tp974
a(Vlooking
S'VBG'
p975
tp976
a(Vpeople
g259
tp977
a(Vmovie
g198
tp978
aa(lp979
(S'probably'
S'RB'
p980
tp981
a(S'best'
g91
tp982
a(S'thing'
g896
tp983
aa(lp984
(Vperhaps
S'RB'
p985
tp986
a(Veven
g38
tp987
a(Vmake
g14
tp988
a(Vworth
g8
tp989
a(Vwatching
g16
tp990
a(Vloaded
g8
tp991
a(Vtell
g10
tp992
a(Vstory
g4
tp993
a(Vtristan
g8
tp994
a(Vprice
g607
tp995
a(Vjesse
g10
tp996
a(Vmetcalfe
g10
tp997
a(Vyoung
S'JJ'
p998
tp999
a(Vman
g6
tp1000
a(Vmake
g189
tp1001
a(Vmark
g10
tp1002
a(Vworld
S'NN'
p1003
tp1004
aa(lp1005
(S'son'
g10
tp1006
a(S'well'
g38
tp1007
a(S'family'
g514
tp1008
a(S'good'
g8
tp1009
a(S'reputation'
g10
tp1010
a(S'way'
g418
tp1011
a(S'law'
S'NN'
p1012
tp1013
a(S'school'
S'NN'
p1014
tp1015
aa(lp1016
(Vbut
g156
tp1017
a(Vlike
g161
tp1018
a(Vmany
g285
tp1019
a(Vsetting
g16
tp1020
a(Vthing
g896
tp1021
a(Vquite
g38
tp1022
a(Vperfect
g8
tp1023
a(Vappear
g189
tp1024
aa(lp1025
(Vexpectation
g10
tp1026
a(Vfamily
g514
tp1027
a(Vfar
g325
tp1028
a(Voutweigh
g8
tp1029
a(Vlove
g10
tp1030
aa(lp1031
(Vexcept
g161
tp1032
a(Vschool
g1014
tp1033
a(Vtristan
g10
tp1034
a(Vfather
g73
tp1035
a(Vrarely
g38
tp1036
a(Vlet
g14
tp1037
a(Vleave
g14
tp1038
a(Vhouse
g511
tp1039
aa(lp1040
(Vseems
S'VBZ'
p1041
tp1042
a(Vresult
g10
tp1043
a(Vpast
g161
tp1044
a(Vtraumatic
g8
tp1045
a(Vevent
g307
tp1046
a(Vshook
g29
tp1047
a(Vfamily
g514
tp1048
a(Vpartially
g38
tp1049
a(Vrevealed
g29
tp1050
a(Vflashback
g10
tp1051
a(Vbut
g156
tp1052
a(Vspelled
g29
tp1053
a(Vuntil
S'IN'
p1054
tp1055
a(Vvery
g38
tp1056
a(Vend
g14
tp1057
aa(lp1058
(Vtristan
g10
tp1059
a(Vclaustrophobic
g10
tp1060
a(Venvironment
S'NN'
p1061
tp1062
a(Vcause
g10
tp1063
a(Vlet
g29
tp1064
a(Vloose
g8
tp1065
a(Vvery
g38
tp1066
a(Vextreme
g8
tp1067
a(Vway
g418
tp1068
a(Vfirst
g38
tp1069
a(Vpossible
S'JJ'
p1070
tp1071
a(Vopportunity
S'NN'
p1072
tp1073
a(Vfriend
g189
tp1074
a(Vtake
g14
tp1075
a(Vstrip
g10
tp1076
a(Vclub
g10
tp1077
a(Vcelebrate
g10
tp1078
a(Vgraduation
g10
tp1079
aa(lp1080
(Vcelebration
g10
tp1081
a(Vsoon
S'RB'
p1082
tp1083
a(Vfollows
S'VBZ'
p1084
tp1085
a(Vstripper
g249
tp1086
a(Vback
g38
tp1087
a(Vbeach
g10
tp1088
a(Vhouse
g511
tp1089
a(Vparty
S'NN'
p1090
tp1091
a(Vtristan
g8
tp1092
a(Vbefriends
g287
tp1093
a(Vsebastian
g8
tp1094
a(Vcole
g10
tp1095
a(Vcorey
g10
tp1096
a(Vlarge
g191
tp1097
a(Vpull
g8
tp1098
a(Vdrug
g297
tp1099
a(Vdealing
g16
tp1100
a(Vunderworld
g10
tp1101
a(Vtechnically
g38
tp1102
a(Vwell
g38
tp1103
a(Vmade
g164
tp1104
a(Vmovie
g198
tp1105
a(Vsuffers
g287
tp1106
a(Vlackluster
g73
tp1107
a(Vscript
g10
tp1108
a(Vstoryline
g8
tp1109
a(Vvery
g38
tp1110
a(Vengaging
g16
tp1111
aa(lp1112
(Valso
g255
tp1113
a(Vcounting
g16
tp1114
a(Vagainst
S'IN'
p1115
tp1116
a(Vfilm
g98
tp1117
a(Vconstant
g8
tp1118
a(Vcamera
g10
tp1119
a(Vtrick
g10
tp1120
a(Vgenerally
S'RB'
p1121
tp1122
a(Vseemed
g29
tp1123
a(Vannoying
g8
tp1124
a(Vplace
g10
tp1125
a(Vslow
g8
tp1126
a(Vmotion
g10
tp1127
a(Vfast
g8
tp1128
a(Vmotion
g10
tp1129
a(Vfreeze
g10
tp1130
a(Vframe
g10
tp1131
a(Vecho
g10
tp1132
aa(lp1133
(Vtype
g8
tp1134
a(Veffect
g295
tp1135
a(Vdirector
g109
tp1136
a(Vmight
g75
tp1137
a(Vnormally
g38
tp1138
a(Vutilize
g14
tp1139
a(Vshow
g10
tp1140
a(Vcharacter
g8
tp1141
a(Vperspective
g8
tp1142
a(Vdrug
g297
tp1143
a(Vexcept
g161
tp1144
a(Vcase
S'NN'
p1145
tp1146
a(Vseem
g189
tp1147
a(Vsporadically
g38
tp1148
a(Vtossed
g8
tp1149
a(Vrandom
g10
tp1150
a(Vpoint
g10
tp1151
a(Vcheap
g8
tp1152
a(Vattempt
g10
tp1153
a(Vstyle
S'NN'
p1154
tp1155
a(Vdespite
S'IN'
p1156
tp1157
a(Vcast
g8
tp1158
a(Vrelative
g8
tp1159
a(Vunknown
g8
tp1160
a(Vperformance
g245
tp1161
a(Vgood
g8
tp1162
a(Varound
g161
tp1163
a(Vmost
g91
tp1164
a(Vnotably
g38
tp1165
a(Vrespect
g189
tp1166
a(Vmain
S'JJ'
p1167
tp1168
a(Vantagonist
g10
tp1169
a(Vcorey
g10
tp1170
a(Vlarge
g191
tp1171
aa(lp1172
(Vsuspect
g8
tp1173
a(Vseeing
g16
tp1174
a(Vleast
g91
tp1175
a(Vcouple
g8
tp1176
a(Vpeople
g259
tp1177
a(Vbigger
S'JJR'
p1178
tp1179
a(Vbetter
g73
tp1180
a(Vproject
g10
tp1181
a(Vfuture
g8
tp1182
a(Vcourse
g624
tp1183
a(Vmentioning
g16
tp1184
a(Vactor
g10
tp1185
a(Vmust
S'MD'
p1186
tp1187
a(Vmention
g14
tp1188
a(Vlook
g10
tp1189
aa(lp1190
(Vrating
S'NN'
p1191
tp1192
a(Vbased
S'VBN'
p1193
tp1194
a(Vhotness
g8
tp1195
a(Vmovie
g198
tp1196
a(Vscore
g10
tp1197
aa(lp1198
(Vwoman
g617
tp1199
a(Vmovie
g198
tp1200
a(Vincredible
g8
tp1201
a(Vlooking
g975
tp1202
a(Valmost
g148
tp1203
a(Vdistract
g8
tp1204
a(Vboring
g8
tp1205
a(Vmovie
g198
tp1206
a(Vwatching
g10
tp1207
aa(lp1208
(Vsure
g8
tp1209
a(Vmale
g8
tp1210
a(Vcharacter
g10
tp1211
a(Valso
g255
tp1212
a(Vquite
g38
tp1213
a(Vattractive
g8
tp1214
a(Vbut
g156
tp1215
a(Vask
g8
tp1216
a(Vsomeone
S'NN'
p1217
tp1218
a(Velse
g38
tp1219
a(Vcomment
g10
tp1220
a(Voverall
g8
tp1221
a(Vrecommend
g189
tp1222
a(Vmovie
g198
tp1223
a(Vnot
g272
tp1224
a(Vbuying
g16
tp1225
a(Vrenting
g16
tp1226
a(Veven
g38
tp1227
a(Vseeing
g16
tp1228
a(Vfree
g8
tp1229
aa(lp1230
(Vunfortunately
g38
tp1231
a(Vnot
g272
tp1232
a(Vworth
g8
tp1233
a(Veffort
S'NN'
p1234
tp1235
a(Vtake
g14
tp1236
a(Vsit
g10
tp1237
aaa(lp1238
(lp1239
(Vnine
S'CD'
p1240
tp1241
a(Vminute
g8
tp1242
a(Vpsychedelic
g8
tp1243
a(Vpulsating
g16
tp1244
a(Voften
S'RB'
p1245
tp1246
a(Vsymmetric
g8
tp1247
a(Vabstract
g8
tp1248
a(Vimage
S'NN'
p1249
tp1250
a(Venough
g8
tp1251
a(Vdrive
g10
tp1252
a(Vanyone
S'NN'
p1253
tp1254
a(Vcrazy
g10
tp1255
aa(lp1256
(Vspot
g10
tp1257
a(Vfull
S'JJ'
p1258
tp1259
a(Vframe
g10
tp1260
a(Veye
S'NN'
p1261
tp1262
a(Vstart
g10
tp1263
a(Vlater
g73
tp1264
a(Vbird
g10
tp1265
a(Vsilhouetted
g164
tp1266
a(Vagainst
g1115
tp1267
a(Vcolor
g10
tp1268
aa(lp1269
(S'not'
g272
tp1270
a(S'cup'
g8
tp1271
a(S'tea'
g10
tp1272
aa(lp1273
(Vminute
g10
tp1274
a(Vlong
g38
tp1275
aaa(lp1276
(lp1277
(Vart
g10
tp1278
a(Vfilm
g98
tp1279
a(Veither
S'CC'
p1280
tp1281
a(Vmade
g29
tp1282
a(Vnational
S'JJ'
p1283
tp1284
a(Vfilm
g98
tp1285
a(Vpreservation
g10
tp1286
a(Vfoundation
g10
tp1287
a(Vsay
g189
tp1288
a(Vimdb
g287
tp1289
a(Vsay
g189
tp1290
aa(lp1291
(Vregardless
g38
tp1292
a(Vexact
g8
tp1293
a(Vdate
S'NN'
p1294
tp1295
a(Vfilm
g98
tp1296
a(Vdefinitely
g38
tp1297
a(Vappears
g902
tp1298
a(Vvery
g38
tp1299
a(Vindicative
g8
tp1300
a(Vgeneral
g8
tp1301
a(Vtime
g43
tp1302
a(Vperiod
S'NN'
p1303
tp1304
a(Vcamera
g10
tp1305
a(Vwork
g10
tp1306
a(Vpop
g189
tp1307
a(Vart
g8
tp1308
a(Vstylings
g287
tp1309
a(Vpure
g10
tp1310
a(Vlate
g38
tp1311
a(Vearly
g8
tp1312
a(Vfilm
g98
tp1313
a(Vconsists
g146
tp1314
a(Vthree
g700
tp1315
a(Vsimple
g8
tp1316
a(Vimage
g1249
tp1317
a(Vdistorted
g29
tp1318
a(Vusing
S'VBG'
p1319
tp1320
a(Vdifferent
S'JJ'
p1321
tp1322
a(Vweird
g8
tp1323
a(Vcamera
g10
tp1324
a(Vtrick
g10
tp1325
aa(lp1326
(Vdistorted
g164
tp1327
a(Vimage
g1249
tp1328
a(Vaccompanied
g164
tp1329
a(Vmusic
S'NN'
p1330
tp1331
a(Vabsolutely
g38
tp1332
a(Vno
g45
tp1333
a(Vdialog
g10
tp1334
a(Vplot
g10
tp1335
a(Vsort
g10
tp1336
aa(lp1337
(S'obviously'
g38
tp1338
a(S'intended'
g164
tp1339
a(S'almost'
g148
tp1340
a(S'like'
g161
tp1341
a(S'form'
g10
tp1342
a(S'performance'
g245
tp1343
a(S'art'
g10
tp1344
a(S'like'
g161
tp1345
a(S'most'
g91
tp1346
a(S'performance'
g245
tp1347
a(S'art'
g10
tp1348
a(S'interesting'
g16
tp1349
a(S'first'
g8
tp1350
a(S'but'
g156
tp1351
a(S'quickly'
S'RB'
p1352
tp1353
a(S'becomes'
g146
tp1354
a(S'tiresome'
g8
tp1355
aa(lp1356
(Vfilm
g98
tp1357
a(Vput
g29
tp1358
a(Veven
g38
tp1359
a(Vbluntly
g38
tp1360
a(Vtotal
g8
tp1361
a(Vbore
g10
tp1362
a(Vwould
g61
tp1363
a(Vappeal
g14
tp1364
a(Vno
g45
tp1365
a(Vone
g10
tp1366
a(Vbut
g156
tp1367
a(Vperhaps
g985
tp1368
a(Vmade
g29
tp1369
a(Vfilm
g98
tp1370
a(Vfamily
g514
tp1371
a(Vfriend
g10
tp1372
a(Vperhaps
g985
tp1373
a(Vpeople
g259
tp1374
a(Vhip
g189
tp1375
a(Vunderstood
g8
tp1376
a(Vu
g8
tp1377
a(Vmortal
g10
tp1378
aaa(lp1379
(lp1380
(S'big'
S'JJ'
p1381
tp1382
a(S'fan'
g10
tp1383
a(S'arnold'
g29
tp1384
a(S'vosloo'
g10
tp1385
aa(lp1386
(Vfinally
S'RB'
p1387
tp1388
a(Vseeing
g16
tp1389
a(Vstar
g10
tp1390
a(Vrecent
S'JJ'
p1391
tp1392
a(Vmovie
g198
tp1393
a(Vnot
g272
tp1394
a(Vbit
g14
tp1395
a(Vpart
g251
tp1396
a(Vmade
g164
tp1397
a(Vhappy
g8
tp1398
a(Vunfortunately
g38
tp1399
a(Vtook
S'VBD'
p1400
tp1401
a(Vfilm
g98
tp1402
a(Vappreciation
g10
tp1403
a(Vcollege
S'NN'
p1404
tp1405
a(Vthing
g896
tp1406
a(Vsay
g189
tp1407
a(Vlike
g161
tp1408
a(Vfilm
g98
tp1409
a(Vmade
g164
tp1410
a(Vabandoned
g29
tp1411
a(Vpart
g251
tp1412
a(Vtown
S'NN'
p1413
tp1414
a(Vno
g45
tp1415
a(Vbackground
g10
tp1416
a(Vtraffic
S'NN'
p1417
tp1418
a(Vlookie
g10
tp1419
a(Vloo
g287
tp1420
a(Vsay
g189
tp1421
a(Vacting
g16
tp1422
a(Vleaf
g10
tp1423
a(Vsomething
S'NN'
p1424
tp1425
a(Vdesired
g164
tp1426
a(Vbut
g156
tp1427
a(Varnold
g8
tp1428
a(Vexcellent
g8
tp1429
a(Vactor
g10
tp1430
a(Vchalk
g10
tp1431
a(Vlousy
g8
tp1432
a(Vdirection
S'NN'
p1433
tp1434
a(Vsupporting
g16
tp1435
a(Vcast
g29
tp1436
a(Vleaf
g8
tp1437
a(Vsomething
g1424
tp1438
a(Vdesired
g164
tp1439
a(Vlove
g161
tp1440
a(Varnold
g10
tp1441
a(Vvosloo
g10
tp1442
a(Vmade
g29
tp1443
a(Vfilm
g98
tp1444
a(Vviewable
g8
tp1445
aa(lp1446
(Votherwise
g38
tp1447
a(Vwould
g61
tp1448
a(Vwritten
S'VBN'
p1449
tp1450
a(Vanother
g555
tp1451
a(Vlousy
g8
tp1452
a(Vfilm
g98
tp1453
a(Vfound
g29
tp1454
a(Vrape
g10
tp1455
a(Vscene
g10
tp1456
a(Vbrutal
g8
tp1457
a(Vunnecessary
g8
tp1458
a(Vbut
g156
tp1459
a(Vactor
g10
tp1460
a(Vgot
g29
tp1461
a(Vaway
g38
tp1462
a(Vend
g8
tp1463
a(Vpretty
g38
tp1464
a(Vgood
g8
tp1465
aa(lp1466
(Vbut
g156
tp1467
a(Vsound
g8
tp1468
a(Veffect
g295
tp1469
a(Vshoot
g10
tp1470
a(Vpretty
g38
tp1471
a(Vbad
g117
tp1472
aa(lp1473
(Vglitch
g10
tp1474
a(Vfilm
g98
tp1475
a(Vcontinuity
g10
tp1476
a(Vbut
g156
tp1477
a(Voverlookable
g8
tp1478
a(Vconsidering
S'VBG'
p1479
tp1480
a(Vlow
g8
tp1481
a(Vcaliber
g10
tp1482
a(Vfilm
g98
tp1483
a(Venjoyed
g29
tp1484
a(Vfilm
g98
tp1485
a(Varnold
g10
tp1486
a(Vvosloo
g10
tp1487
a(Vjackie
g10
tp1488
aaa(lp1489
(lp1490
(Vrobert
g10
tp1491
a(Vdeniro
g10
tp1492
a(Vplay
g189
tp1493
a(Vmost
g893
tp1494
a(Vunbelievably
g8
tp1495
a(Vintelligent
g8
tp1496
a(Villiterate
g10
tp1497
a(Vtime
g43
tp1498
aa(lp1499
(S'movie'
g198
tp1500
a(S'wasteful'
g8
tp1501
a(S'talent'
g10
tp1502
a(S'truly'
g38
tp1503
a(S'disgusting'
g16
tp1504
aa(lp1505
(S'script'
g10
tp1506
a(S'unbelievable'
g8
tp1507
aa(lp1508
(S'dialog'
g10
tp1509
a(S'unbelievable'
g8
tp1510
aa(lp1511
(S'jane'
g10
tp1512
a(S'fonda'
g287
tp1513
a(S'character'
g189
tp1514
a(S'caricature'
g10
tp1515
a(S'not'
g272
tp1516
a(S'funny'
g8
tp1517
a(S'one'
g247
tp1518
aa(lp1519
(Vmovie
g198
tp1520
a(Vmove
g10
tp1521
a(Vsnail
g10
tp1522
a(Vpace
g584
tp1523
a(Vphotographed
g29
tp1524
a(Vill
g10
tp1525
a(Vadvised
g29
tp1526
a(Vmanner
g10
tp1527
a(Vinsufferably
g38
tp1528
a(Vpreachy
g29
tp1529
aa(lp1530
(Valso
g255
tp1531
a(Vplug
g10
tp1532
a(Vevery
g150
tp1533
a(Vcliche
g10
tp1534
a(Vbook
S'NN'
p1535
tp1536
aa(lp1537
(Vswoozie
g10
tp1538
a(Vkurtz
g10
tp1539
a(Vexcellent
g8
tp1540
a(Vsupporting
g16
tp1541
a(Vrole
g790
tp1542
a(Vbut
g156
tp1543
a(Vequally
g38
tp1544
a(Vannoying
g16
tp1545
a(Vnew
g135
tp1546
a(Vimdb
g10
tp1547
a(Vrule
g10
tp1548
a(Vrequiring
g16
tp1549
a(Vten
g287
tp1550
a(Vline
g451
tp1551
a(Vevery
g150
tp1552
a(Vreview
g10
tp1553
aa(lp1554
(Vmovie
g198
tp1555
a(Vworthless
g10
tp1556
a(Vrequire
g189
tp1557
a(Vten
g8
tp1558
a(Vline
g451
tp1559
a(Vtext
g10
tp1560
a(Vlet
g10
tp1561
a(Vreader
g10
tp1562
a(Vknow
g14
tp1563
a(Vwaste
g10
tp1564
a(Vtime
g43
tp1565
a(Vtape
g10
tp1566
aa(lp1567
(S'avoid'
g8
tp1568
a(S'movie'
g198
tp1569
aaa(lp1570
(lp1571
(S'movie'
g198
tp1572
a(S'terrible'
g8
tp1573
aa(lp1574
(S'first'
g38
tp1575
a(S'read'
g14
tp1576
a(S'plot'
g10
tp1577
a(S'summary'
g8
tp1578
a(S'looked'
g29
tp1579
a(S'ok'
g8
tp1580
a(S'watched'
g29
tp1581
aa(lp1582
(S'acting'
g16
tp1583
a(S'terrible'
g8
tp1584
aa(lp1585
(S'like'
g161
tp1586
a(S'actor'
g10
tp1587
a(S'almost'
g148
tp1588
a(S'camera'
g10
tp1589
a(S'shy'
g10
tp1590
aa(lp1591
(S'everything'
g686
tp1592
a(S'seemed'
g29
tp1593
a(S'fake'
g8
tp1594
aa(lp1595
(Vfeel
g10
tp1596
a(Vbad
g117
tp1597
a(Vedward
g38
tp1598
a(Vfurlong
g8
tp1599
a(Vterminator
g10
tp1600
a(Vfavorite
g8
tp1601
a(Vyear
S'NN'
p1602
tp1603
a(Vago
g38
tp1604
aa(lp1605
(Vwatched
g164
tp1606
a(Vleast
g91
tp1607
a(Vtime
g43
tp1608
a(Vplot
g10
tp1609
a(Valso
g255
tp1610
a(Vcrap
g10
tp1611
aa(lp1612
(Vwriter
g10
tp1613
a(Vprobably
g980
tp1614
a(Vsleep
g8
tp1615
a(Vdeprived
g164
tp1616
a(Vcame
S'VBD'
p1617
tp1618
a(Vline
g451
tp1619
a(Vplus
g1280
tp1620
a(Vside
g10
tp1621
a(Vgood
g8
tp1622
a(Vkind
S'NN'
p1623
tp1624
a(Vbad
g117
tp1625
a(Vmovie
g198
tp1626
aa(lp1627
(Vone
g247
tp1628
a(Vkeep
g10
tp1629
a(Vwatching
g16
tp1630
a(Vsee
g14
tp1631
a(Vmuch
g8
tp1632
a(Vworst
g287
tp1633
a(Vcould
g120
tp1634
a(Vget
g14
tp1635
a(Vlater
g38
tp1636
a(Vtell
g189
tp1637
a(Vpeople
g259
tp1638
a(Vbelieve
g189
tp1639
a(Vterrible
g8
tp1640
a(Vmovie
g198
tp1641
a(Vthink
g189
tp1642
a(Veverybody
g10
tp1643
a(Vwatch
g10
tp1644
a(Vcould
g120
tp1645
a(Vappreciate
g14
tp1646
a(Vbetter
g249
tp1647
a(Vreal
S'JJ'
p1648
tp1649
a(Vmovie
g198
tp1650
aaa(lp1651
(lp1652
(Vturkish
g8
tp1653
a(Vactor
g10
tp1654
aa(lp1655
(Vno
g45
tp1656
a(Voffense
g10
tp1657
a(Vbut
g156
tp1658
a(Vthought
g29
tp1659
a(Vnothing
g368
tp1660
a(Vactor
g10
tp1661
aa(lp1662
(Vfilm
g98
tp1663
a(Vno
g45
tp1664
a(Vscript
g10
tp1665
a(Vtest
g10
tp1666
a(Vactor
g10
tp1667
a(Vacting
g16
tp1668
a(Vskill
g10
tp1669
a(Vability
S'NN'
p1670
tp1671
aa(lp1672
(S'demanded'
g164
tp1673
a(S'next'
g8
tp1674
a(S'nothing'
g368
tp1675
a(S'bought'
g29
tp1676
a(S'film'
g98
tp1677
a(S'see'
g10
tp1678
a(S'michael'
g10
tp1679
a(S'madsen'
g189
tp1680
aa(lp1681
(Vone
g247
tp1682
a(Vfavorite
g8
tp1683
a(Vactor
g10
tp1684
a(Vbut
g156
tp1685
a(Vfilm
g98
tp1686
a(Vanother
g555
tp1687
a(Vfailure
g10
tp1688
aa(lp1689
(S'script'
g10
tp1690
a(S'bad'
g117
tp1691
aa(lp1692
(Vnothing
g368
tp1693
a(Vsink
g10
tp1694
a(Vteeth
g189
tp1695
a(Vcharacter
g10
tp1696
a(Vtwo
g461
tp1697
a(Vdimensional
g8
tp1698
aa(lp1699
(Vmadsen
g287
tp1700
a(Vtried
g29
tp1701
a(Vact
g10
tp1702
a(Vlike
g14
tp1703
a(Vhard
g8
tp1704
a(Vas
g161
tp1705
a(Vbut
g156
tp1706
a(Vscript
g8
tp1707
a(Vdirection
g1433
tp1708
a(Veven
g38
tp1709
a(Vallow
g14
tp1710
a(Venough
g8
tp1711
a(Vcharacter
g10
tp1712
a(Vmake
g189
tp1713
a(Vinteresting
g8
tp1714
a(Vdimensional
g8
tp1715
a(Veven
g38
tp1716
a(Vsound
g8
tp1717
a(Veffect
g295
tp1718
a(Vgunfight
g10
tp1719
a(Vbeginning
g16
tp1720
a(Vfilm
g98
tp1721
a(Vsounded
g29
tp1722
a(Vlike
g161
tp1723
a(Vnoise
g10
tp1724
a(Vpaint
g10
tp1725
a(Vball
g10
tp1726
a(Vgun
g10
tp1727
a(Vfired
g29
tp1728
a(Vskirmish
g8
tp1729
aa(lp1730
(Vreally
g239
tp1731
a(Vweird
g8
tp1732
a(Vsound
g10
tp1733
a(Vlike
g161
tp1734
a(Vreal
g1648
tp1735
a(Vgun
g10
tp1736
aa(lp1737
(Vvideo
g10
tp1738
a(Vgame
S'NN'
p1739
tp1740
a(Vbetter
g73
tp1741
a(Vsound
g8
tp1742
a(Veffect
g295
tp1743
a(Vfilm
g98
tp1744
aa(lp1745
(S'also'
g255
tp1746
a(S'really'
g239
tp1747
a(S'annoying'
g16
tp1748
a(S'bloke'
g10
tp1749
a(S'beginning'
g10
tp1750
a(S'film'
g98
tp1751
a(S'member'
S'NN'
p1752
tp1753
a(S'robbery'
g10
tp1754
a(S'gang'
g10
tp1755
aa(lp1756
(Vamerican
g8
tp1757
a(Vwhining
g16
tp1758
a(Vvoice
g10
tp1759
a(Vlike
g161
tp1760
a(Vgirl
g10
tp1761
a(Vshouting
g16
tp1762
a(Vline
g451
tp1763
a(Vlike
g161
tp1764
a(Vlet
g10
tp1765
a(Vget
g14
tp1766
a(Vf
g8
tp1767
a(Vk
g10
tp1768
a(Vgoing
g835
tp1769
a(Vman
g6
tp1770
aa(lp1771
(S'sounded'
g164
tp1772
a(S'like'
g161
tp1773
a(S'girl'
g10
tp1774
aa(lp1775
(S'positive'
S'JJ'
p1776
tp1777
a(S'funny'
g10
tp1778
a(S'watch'
g10
tp1779
a(S'made'
g29
tp1780
a(S'laugh'
g10
tp1781
aa(lp1782
(Vsecond
p1783
g8
tp1784
aa(lp1785
(S'whoo'
g10
tp1786
a(S'hoo'
g10
tp1787
aa(lp1788
(S'dumb'
g10
tp1789
a(S'film'
g98
tp1790
aa(lp1791
(S'poor'
g357
tp1792
a(S'madsen'
g287
tp1793
aa(lp1794
(S'bounce'
g10
tp1795
a(S'back'
g38
tp1796
aaa(lp1797
(lp1798
(Vsaw
g10
tp1799
a(Vdvd
g10
tp1800
a(Vfriend
g10
tp1801
a(Vhouse
g511
tp1802
a(Vthought
g29
tp1803
a(Vturkish
g8
tp1804
a(Vaction
g349
tp1805
a(Vmovie
g198
tp1806
a(Vhollywood
g10
tp1807
a(Vnot
g272
tp1808
a(Vvery
g38
tp1809
a(Vbig
g1381
tp1810
a(Vname
g10
tp1811
aa(lp1812
(S'interested'
g8
tp1813
a(S'enough'
g38
tp1814
a(S'decide'
g189
tp1815
a(S'give'
g14
tp1816
a(S'shot'
g10
tp1817
a(S'later'
g38
tp1818
aa(lp1819
(S'tough'
S'JJ'
p1820
tp1821
a(S'bear'
g10
tp1822
a(S'experience'
g10
tp1823
a(S'believe'
g189
tp1824
aa(lp1825
(Vfinally
g1387
tp1826
a(Vseeing
g16
tp1827
a(Vcredit
S'NN'
p1828
tp1829
a(Vroll
g10
tp1830
a(Vtought
g29
tp1831
a(Vturk
g287
tp1832
a(Vreally
g239
tp1833
a(Vsuck
g8
tp1834
a(Vhollywood
g10
tp1835
a(Vstyle
g1154
tp1836
a(Vfilm
g98
tp1837
a(Vmaking
g10
tp1838
aa(lp1839
(S'insult'
g10
tp1840
a(S'heist'
g10
tp1841
a(S'hostage'
g10
tp1842
a(S'movie'
g198
tp1843
a(S'genre'
g10
tp1844
a(S'but'
g156
tp1845
a(S'wait'
g10
tp1846
aa(lp1847
(Vchecked
g164
tp1848
a(Vname
g10
tp1849
a(Vno
g45
tp1850
a(Vnot
g272
tp1851
a(Vturkish
g8
tp1852
a(Vname
g10
tp1853
a(Vno
g45
tp1854
a(Vnot
g272
tp1855
a(Vturkish
g8
tp1856
a(Vmovie
g198
tp1857
a(Vcontrary
g8
tp1858
a(Vliterally
g38
tp1859
a(Vshot
g8
tp1860
a(Vamerica
g8
tp1861
a(Vamerican
g8
tp1862
a(Vdirector
g109
tp1863
a(Vcrew
g29
tp1864
aa(lp1865
(Vmade
g164
tp1866
a(Vthinking
g16
tp1867
a(Vearth
g10
tp1868
a(Vpersuade
g29
tp1869
a(Vname
g10
tp1870
a(Vlike
g161
tp1871
a(Vmicheal
g10
tp1872
a(Vmadsen
g427
tp1873
a(Vedward
g10
tp1874
a(Vfurlong
g38
tp1875
a(Veven
g38
tp1876
a(Varnold
g8
tp1877
a(Vvosloo
g287
tp1878
a(Vtake
g189
tp1879
a(Vpart
g251
tp1880
a(Vproject
g10
tp1881
aa(lp1882
(S'money'
g182
tp1883
a(S'probably'
g980
tp1884
a(S'kept'
g29
tp1885
a(S'thinking'
g16
tp1886
a(S'raise'
g10
tp1887
a(S'amount'
g10
tp1888
a(S'money'
g182
tp1889
a(S'offer'
g10
tp1890
a(S'supposedly'
g38
tp1891
a(S'international'
S'JJ'
p1892
tp1893
a(S'cast'
g10
tp1894
aa(lp1895
(S'meditation'
g10
tp1896
a(S'paid'
g29
tp1897
a(S'came'
g1617
tp1898
a(S'find'
g14
tp1899
a(S'answer'
g10
tp1900
a(S'hiring'
g16
tp1901
a(S'cheapest'
g91
tp1902
a(S'equipment'
S'NN'
p1903
tp1904
a(S'crew'
g10
tp1905
a(S'find'
g14
tp1906
aa(lp1907
(S'if'
g186
tp1908
a(S'still'
g706
tp1909
a(S'difficulty'
g10
tp1910
a(S'adjustin'
g8
tp1911
a(S'budget'
S'NN'
p1912
tp1913
a(S'writing'
g16
tp1914
a(S'directing'
g16
tp1915
a(S'movie'
g198
tp1916
a(S'trying'
S'VBG'
p1917
tp1918
a(S'produce'
g10
tp1919
a(S'vice'
S'NN'
p1920
tp1921
a(S'versa'
g10
tp1922
a(S'information'
g193
tp1923
aa(lp1924
(S'bottom'
g10
tp1925
a(S'line'
g451
tp1926
a(S'not'
g272
tp1927
a(S'bad'
g117
tp1928
a(S'movie'
g198
tp1929
a(S'everybody'
g10
tp1930
a(S'anxious'
g8
tp1931
a(S'present'
g10
tp1932
aa(lp1933
(Vmake
g14
tp1934
a(Vthink
g10
tp1935
a(Vcase
g1145
tp1936
a(Veven
g38
tp1937
a(Vmeditate
g14
tp1938
a(Vlot
g10
tp1939
a(Vmovie
g198
tp1940
a(Voutthere
g38
tp1941
a(Vgive
g14
tp1942
a(Veven
g38
tp1943
a(Vaffect
g14
tp1944
aa(lp1945
(Vone
g247
tp1946
a(Vleast
g91
tp1947
a(Vmake
g14
tp1948
a(Vthink
g8
tp1949
a(Vmake
g14
tp1950
a(Vwonder
g10
tp1951
aa(lp1952
(Vleaf
g8
tp1953
a(Vdisbelief
g10
tp1954
a(Vmake
g10
tp1955
a(Vwonder
g10
tp1956
aaa(lp1957
(lp1958
(S'rented'
g164
tp1959
a(S'one'
g247
tp1960
a(S'dvd'
g10
tp1961
a(S'without'
S'IN'
p1962
tp1963
a(S'prior'
g8
tp1964
a(S'knowledge'
g10
tp1965
aa(lp1966
(Vsuspicious
g8
tp1967
a(Vseeing
g16
tp1968
a(Vmichael
g10
tp1969
a(Vmadsen
g10
tp1970
a(Vappearing
g16
tp1971
a(Vmovie
g198
tp1972
a(Vnever
g598
tp1973
a(Vheard
g38
tp1974
a(Vbut
g156
tp1975
a(Vfreebie
S'MD'
p1976
tp1977
a(Vnot
g272
tp1978
a(Vcheck
g14
tp1979
a(Vwell
g38
tp1980
a(Vguess
g8
tp1981
a(Vmr
g10
tp1982
a(Vblonde
g10
tp1983
a(Vwould
g61
tp1984
a(Vvery
g38
tp1985
a(Vmuch
g38
tp1986
a(Vlike
g161
tp1987
a(Vforget
g10
tp1988
a(Vever
g129
tp1989
a(Vtaken
S'VBN'
p1990
tp1991
a(Vpart
g251
tp1992
a(Vshame
g10
tp1993
a(Vfilm
g98
tp1994
a(Vapparently
g196
tp1995
a(Vif
g186
tp1996
a(Vscript
g8
tp1997
a(Vdialog
g10
tp1998
a(Vterrible
g8
tp1999
a(Veven
g38
tp2000
a(Vgood
g8
tp2001
a(Vactor
g10
tp2002
a(Vcannot
g287
tp2003
a(Vsave
g189
tp2004
a(Vday
g702
tp2005
aa(lp2006
(Vnot
g272
tp2007
a(Vmention
g10
tp2008
a(Vamateur
g10
tp2009
a(Vactor
g10
tp2010
a(Vflood
g10
tp2011
a(Vfilm
g98
tp2012
aa(lp2013
(Vmany
g285
tp2014
a(Vnon
g38
tp2015
a(Vnative
g8
tp2016
a(Venglish
g8
tp2017
a(Vspeaker
g10
tp2018
a(Vplay
g14
tp2019
a(Vpart
g251
tp2020
a(Vnative
g8
tp2021
a(Venglish
g8
tp2022
a(Vspeaker
g10
tp2023
a(Vreading
g16
tp2024
a(Vline
g451
tp2025
a(Vscript
g10
tp2026
a(Vthrown
g14
tp2027
a(Vaway
g38
tp2028
a(Vnot
g272
tp2029
a(Vmade
g164
tp2030
a(Vmovie
g198
tp2031
aa(lp2032
(Vunbelievable
g8
tp2033
a(Vunbelievable
g8
tp2034
a(Vline
g451
tp2035
a(Vmovie
g198
tp2036
a(Vsound
g10
tp2037
aa(lp2038
(Vmusic
g1330
tp2039
a(Vawful
g146
tp2040
a(Vtotally
g38
tp2041
a(Vplace
g8
tp2042
a(Vwhole
g8
tp2043
a(Vthing
g896
tp2044
a(Vlook
g10
tp2045
a(Vsound
g189
tp2046
a(Vlike
g161
tp2047
a(Vpoor
g357
tp2048
a(Vschool
g1014
tp2049
a(Vplay
g189
tp2050
a(Vrecommend
g10
tp2051
a(Vwatch
g10
tp2052
a(Vwould
g61
tp2053
a(Vappreciate
g14
tp2054
a(Vbetter
g249
tp2055
a(Vmovie
g198
tp2056
aa(lp2057
(S'gave'
g578
tp2058
a(S'instead'
S'RB'
p2059
tp2060
a(S'deserves'
g287
tp2061
aaa(lp2062
(lp2063
(S'congratulate'
g8
tp2064
a(S'genius'
g10
tp2065
a(S'approved'
g29
tp2066
a(S'one'
g247
tp2067
aa(lp2068
(Vedward
g38
tp2069
a(Vfurlong
g38
tp2070
a(Vnot
g272
tp2071
a(Vgood
g8
tp2072
a(Vthink
g10
tp2073
a(Vmate
g10
tp2074
a(Vgrab
g10
tp2075
a(Vevery
g150
tp2076
a(Vpiece
g10
tp2077
a(Vlow
g8
tp2078
a(Vcost
g10
tp2079
a(Vamateur
g10
tp2080
a(Vcrap
g10
tp2081
a(Vsole
g8
tp2082
a(Vintention
g10
tp2083
a(Vget
g14
tp2084
a(Vbuck
g8
tp2085
a(Vfilming
g16
tp2086
a(Vbad
g117
tp2087
a(Vmean
g10
tp2088
a(Vbad
g117
tp2089
aa(lp2090
(Vanyone
g1253
tp2091
a(Vcamera
g10
tp2092
a(Vwould
g61
tp2093
a(Vget
g14
tp2094
a(Vresult
g14
tp2095
a(Vbetter
g249
tp2096
a(Vacting
g16
tp2097
a(Vlet
g14
tp2098
a(Vsay
g14
tp2099
a(Vgo
g14
tp2100
a(Vsupermarket
g10
tp2101
a(Vlooking
g975
tp2102
a(Vactor
g10
tp2103
aa(lp2104
(Vgood
g8
tp2105
a(Vone
g247
tp2106
a(Vusually
S'RB'
p2107
tp2108
a(Vcome
g189
tp2109
a(Vdegree
g8
tp2110
a(Vleast
g91
tp2111
a(Vdamn
g10
tp2112
a(Vexperience
g10
tp2113
aa(lp2114
(S'director'
g109
tp2115
a(S'mr'
g10
tp2116
a(S'jon'
g10
tp2117
a(S'keeyes'
g287
tp2118
a(S'please'
g189
tp2119
a(S'find'
g14
tp2120
a(S'purpose'
g8
tp2121
a(S'life'
g591
tp2122
a(S'director'
g109
tp2123
a(S'simply'
S'RB'
p2124
tp2125
a(S'suck'
g29
tp2126
aa(lp2127
(Vdirecting
g16
tp2128
a(Vpoor
g357
tp2129
a(Vangle
g287
tp2130
a(Vmessed
g29
tp2131
a(Vnot
g272
tp2132
a(Vgood
g8
tp2133
a(Vway
g418
tp2134
a(Vline
g451
tp2135
a(Vseem
g189
tp2136
a(Vif
g186
tp2137
a(Vread
g8
tp2138
a(Vtoilet
g10
tp2139
a(Vpaper
S'NN'
p2140
tp2141
a(Vdamn
g10
tp2142
a(Vmusic
g1330
tp2143
a(Valways
S'RB'
p2144
tp2145
a(Vcome
g164
tp2146
a(Vgo
g189
tp2147
a(Vno
g45
tp2148
a(Vapparent
g8
tp2149
a(Vreason
g382
tp2150
aa(lp2151
(S'go'
g14
tp2152
a(S'writer'
g10
tp2153
a(S'either'
g45
tp2154
a(S'way'
g418
tp2155
aa(lp2156
(Vmaking
g16
tp2157
a(Vmovie
g198
tp2158
a(Vlike
g161
tp2159
a(Vserving
g16
tp2160
a(Vcoffeshop
g10
tp2161
a(Vrequires
S'VBZ'
p2162
tp2163
a(Vart
g38
tp2164
a(Vskill
g8
tp2165
a(Vthing
g896
tp2166
a(Vreally
g239
tp2167
a(Vdoubt
g14
tp2168
a(Vever
g129
tp2169
a(Vinstead
g2059
tp2170
a(Vmaking
g16
tp2171
a(Vbadass
g10
tp2172
a(Vshootout
g10
tp2173
a(Vmovie
g198
tp2174
a(Vshot
g10
tp2175
a(Vone
g247
tp2176
a(Vback
g10
tp2177
a(Voblivion
g10
tp2178
a(Vwait
g10
tp2179
a(Vtill
g161
tp2180
a(Vsomething
g1424
tp2181
a(Vgood
g8
tp2182
a(Vcame
g1617
tp2183
a(Vgo
g14
tp2184
a(Vfind
g8
tp2185
a(Vjob
S'NN'
p2186
tp2187
a(Vcoffeshop
g10
tp2188
aa(lp2189
(Vle
g8
tp2190
a(Vstress
g10
tp2191
a(Vsave
g189
tp2192
a(Vmovie
g198
tp2193
a(Vgoer
g10
tp2194
a(Vmoney
g182
tp2195
a(Vbad
g117
tp2196
a(Vnight
g787
tp2197
a(Vvote
g10
tp2198
a(Vfirst
g38
tp2199
a(Vone
g247
tp2200
aaa(lp2201
(lp2202
(S'sometimes'
g38
tp2203
a(S'movie'
g198
tp2204
a(S'comprehensively'
g38
tp2205
a(S'awful'
g8
tp2206
a(S'destructive'
g8
tp2207
a(S'effect'
g295
tp2208
a(S'morale'
g10
tp2209
aa(lp2210
(S'begin'
g14
tp2211
a(S'really'
g239
tp2212
a(S'ask'
g8
tp2213
a(S'mean'
g8
tp2214
a(S'society'
g10
tp2215
a(S'standard'
g10
tp2216
a(S'terribly'
g38
tp2217
a(S'low'
g8
tp2218
aa(lp2219
(Vhonestly
g38
tp2220
a(Vexpect
g189
tp2221
a(Vendure
g10
tp2222
a(Vmany
g285
tp2223
a(Vclich
g287
tp2224
a(Vstill
g706
tp2225
a(Ventertained
g29
tp2226
a(Vcourse
g624
tp2227
a(Vstill
g706
tp2228
a(Vhollywood
g29
tp2229
a(Vmainstay
g287
tp2230
a(Vmake
g189
tp2231
a(Vgun
g10
tp2232
a(Vmajor
S'JJ'
p2233
tp2234
a(Vcharacter
g10
tp2235
a(Vplot
g10
tp2236
a(Vdevice
g10
tp2237
a(Vsource
S'NN'
p2238
tp2239
a(Vconflict
g10
tp2240
a(Vresolution
g10
tp2241
a(Vfilm
g98
tp2242
aa(lp2243
(Vcharacter
g10
tp2244
a(Vneed
g1976
tp2245
a(Vgun
g14
tp2246
aa(lp2247
(Vget
g14
tp2248
a(Vgun
g10
tp2249
aa(lp2250
(S'gun'
p2251
g10
tp2252
aa(lp2253
(Vput
g14
tp2254
a(Vgun
g10
tp2255
a(Vfirst
g38
tp2256
aa(lp2257
(S'oh'
S'UH'
p2258
tp2259
a(S'god'
g10
tp2260
a(S'going'
g835
tp2261
aa(lp2262
(S'gun'
p2263
g10
tp2264
aa(lp2265
(Vwave
g10
tp2266
a(Varound
S'RP'
p2267
tp2268
a(Vacting
g16
tp2269
a(Vmalicious
g8
tp2270
a(Vreal
g1648
tp2271
a(Vhuman
g10
tp2272
a(Vbeing
S'VBG'
p2273
tp2274
a(Vever
g129
tp2275
aa(lp2276
(Vpush
g10
tp2277
a(Vsomeone
g1217
tp2278
a(Vface
g10
tp2279
a(Vminute
g10
tp2280
a(Vshouting
g16
tp2281
a(Vquestion
g10
tp2282
aa(lp2283
(Vhallmark
g10
tp2284
a(Vconclusion
g10
tp2285
a(Vcomforting
g16
tp2286
a(Vsound
g8
tp2287
a(Vpolice
g287
tp2288
a(Vsiren
g287
tp2289
aa(lp2290
(S'real'
g1648
tp2291
a(S'challenge'
g10
tp2292
a(S'make'
g189
tp2293
a(S'tired'
g164
tp2294
a(S'hackneyed'
g8
tp2295
a(S'formula'
g10
tp2296
a(S'work'
g10
tp2297
a(S'film'
g98
tp2298
a(S'very'
g38
tp2299
a(S'clever'
g38
tp2300
a(S'well'
g38
tp2301
a(S'executed'
g164
tp2302
aa(lp2303
(S'one'
g247
tp2304
a(S'neither'
g10
tp2305
aa(lp2306
(Vno
g45
tp2307
a(Vlife
g591
tp2308
a(Vno
g45
tp2309
a(Vpersonality
g10
tp2310
a(Vsuck
g29
tp2311
a(Vcomponent
g10
tp2312
aa(lp2313
(S'make'
g14
tp2314
a(S'feel'
g10
tp2315
a(S'worse'
g161
tp2316
a(S'living'
g10
tp2317
a(S'time'
g43
tp2318
a(S'space'
S'NN'
p2319
tp2320
aa(lp2321
(Vreally
g239
tp2322
a(Vneed
g14
tp2323
aa(lp2324
(S'yes'
g287
tp2325
a(S'say'
g189
tp2326
a(S'think'
g10
tp2327
a(S'may'
S'MD'
p2328
tp2329
a(S'well'
g38
tp2330
a(S'worst'
g14
tp2331
a(S'film'
g98
tp2332
a(S'ever'
g129
tp2333
a(S'seen'
g93
tp2334
aa(lp2335
(Vanyone
g1253
tp2336
a(Vinvolved
g164
tp2337
a(Vmaking
g16
tp2338
a(Vsub
g8
tp2339
a(Vmediocre
g8
tp2340
a(Vsoul
g10
tp2341
a(Vkilling
g16
tp2342
a(Vtrash
g10
tp2343
a(Vpublicly
S'RB'
p2344
tp2345
a(Vembarrassed
g8
tp2346
a(Vdisservice
g10
tp2347
a(Vdone
g526
tp2348
a(Vu
g10
tp2349
aaa(lp2350
(lp2351
(S'saw'
g10
tp2352
a(S'capsule'
g10
tp2353
a(S'comment'
g10
tp2354
a(S'said'
g375
tp2355
a(S'great'
g81
tp2356
a(S'acting'
g10
tp2357
aa(lp2358
(Vopinion
S'NN'
p2359
tp2360
a(Vtwo
g461
tp2361
a(Vgreat
g81
tp2362
a(Vactor
g10
tp2363
a(Vgiving
S'VBG'
p2364
tp2365
a(Vhorrible
g8
tp2366
a(Vperformance
g245
tp2367
a(Vzero
g247
tp2368
a(Vchemistry
g10
tp2369
a(Vone
g247
tp2370
a(Vanother
g555
tp2371
a(Vgreat
g81
tp2372
a(Vdirector
g109
tp2373
a(Vtime
g43
tp2374
a(Vworst
g8
tp2375
a(Veffort
g1234
tp2376
aa(lp2377
(S'robert'
g10
tp2378
a(S'de'
g161
tp2379
a(S'niro'
g427
tp2380
a(S'most'
g91
tp2381
a(S'ingenious'
g8
tp2382
a(S'insightful'
g8
tp2383
a(S'illiterate'
g10
tp2384
a(S'time'
g43
tp2385
aa(lp2386
(Vjane
g10
tp2387
a(Vfonda
g10
tp2388
a(Vperformance
g245
tp2389
a(Vuncomfortably
g38
tp2390
a(Vdrift
g146
tp2391
a(Vmap
g287
tp2392
a(Vclearly
g132
tp2393
a(Vno
g45
tp2394
a(Vhandle
g8
tp2395
a(Vcharacter
g10
tp2396
a(Vmostly
S'RB'
p2397
tp2398
a(Vcharacter
g8
tp2399
a(Vpoorly
g38
tp2400
a(Vwritten
g1449
tp2401
aa(lp2402
(S'molasses'
g287
tp2403
a(S'like'
g161
tp2404
a(S'would'
g61
tp2405
a(S'swift'
g14
tp2406
a(S'adjective'
g8
tp2407
a(S'film'
g98
tp2408
a(S'excruciating'
g16
tp2409
a(S'pacing'
g10
tp2410
aa(lp2411
(S'although'
S'IN'
p2412
tp2413
a(S'film'
g98
tp2414
a(S'intent'
g10
tp2415
a(S'uplifting'
g16
tp2416
a(S'story'
g4
tp2417
a(S'curing'
g16
tp2418
a(S'illiteracy'
g10
tp2419
a(S'watching'
g16
tp2420
a(S'true'
S'JJ'
p2421
tp2422
a(S'bummer'
g10
tp2423
aa(lp2424
(Vgive
g14
tp2425
a(Vtruly
g38
tp2426
a(Vone
g247
tp2427
a(Vworst
g91
tp2428
a(Vmovie
g198
tp2429
a(Vbudget
g1912
tp2430
a(Vlevel
g10
tp2431
a(Vever
g129
tp2432
a(Vseen
g93
tp2433
aaa(lp2434
(lp2435
(S'if'
g186
tp2436
a(S'not'
g272
tp2437
a(S'read'
g14
tp2438
a(S'pat'
g10
tp2439
a(S'barker'
g10
tp2440
a(S'union'
S'NN'
p2441
tp2442
a(S'street'
g10
tp2443
a(S'seeing'
g16
tp2444
a(S'film'
g98
tp2445
a(S'would'
g61
tp2446
a(S'liked'
g14
tp2447
aa(lp2448
(S'unfortuntately'
g38
tp2449
a(S'not'
g272
tp2450
a(S'case'
g1145
tp2451
aa(lp2452
(Vactually
g908
tp2453
a(Vkind
g1623
tp2454
a(Vfilm
g98
tp2455
a(Vwell
g38
tp2456
a(Vmade
g29
tp2457
a(Vno
g45
tp2458
a(Vway
g418
tp2459
a(Vwant
g189
tp2460
a(Vsay
g189
tp2461
a(Votherwise
g38
tp2462
a(Vbut
g156
tp2463
a(Vadaptation
g10
tp2464
a(Vfails
g146
tp2465
a(Vevery
g150
tp2466
a(Vangle
g10
tp2467
a(Vharrowing
g16
tp2468
a(Vnovel
g8
tp2469
a(Vreality
g10
tp2470
a(Vliving
g16
tp2471
a(Vnorthern
g8
tp2472
a(Vengland
g38
tp2473
a(Vworking
g16
tp2474
a(Vclass
S'NN'
p2475
tp2476
a(Varea
S'NN'
p2477
tp2478
a(Vgrabbed
g29
tp2479
a(Vhold
g8
tp2480
a(Vheartstrings
g287
tp2481
a(Vrefused
g29
tp2482
a(Vlet
g10
tp2483
a(Vgo
g14
tp2484
a(Vweek
S'NN'
p2485
tp2486
a(Vfinished
g164
tp2487
aa(lp2488
(Vput
g164
tp2489
a(Vtear
g8
tp2490
a(Vrepulsion
g10
tp2491
a(Vshock
g10
tp2492
a(Vanger
g10
tp2493
a(Vsympathy
g8
tp2494
a(Vmisery
g10
tp2495
a(Vreading
g16
tp2496
a(Vwoman
g617
tp2497
a(Vunion
g2441
tp2498
a(Vstreet
g10
tp2499
aa(lp2500
(S'excellent'
p2501
g10
tp2502
aa(lp2503
(Vnovel
g8
tp2504
a(Vtime
g43
tp2505
a(Vfelt
g287
tp2506
a(Vcould
g120
tp2507
a(Vnot
g272
tp2508
a(Vread
g14
tp2509
a(Vbut
g156
tp2510
a(Vnovel
g8
tp2511
a(Vsimply
g2124
tp2512
a(Vput
g29
tp2513
aa(lp2514
(S'depressing'
g16
tp2515
a(S'yes'
g287
tp2516
a(S'but'
g156
tp2517
a(S'utterly'
g8
tp2518
a(S'gripping'
g10
tp2519
a(S'film'
g98
tp2520
aa(lp2521
(S'oh'
g2258
tp2522
a(S'dear'
g10
tp2523
aa(lp2524
(S'hollywood'
g10
tp2525
a(S'took'
g1400
tp2526
a(S'barker'
g10
tp2527
a(S'truth'
g10
tp2528
a(S'reality'
g10
tp2529
a(S'showered'
g29
tp2530
a(S'layer'
g8
tp2531
a(S'sweet'
g8
tp2532
a(S'icing'
g16
tp2533
a(S'sugar'
g10
tp2534
a(S'top'
g10
tp2535
aa(lp2536
(Vbeautiful
g8
tp2537
a(Vfilm
g98
tp2538
a(Vinspiring
g16
tp2539
a(Vsoundtrack
g8
tp2540
a(Vexcellent
g8
tp2541
a(Vperformance
g245
tp2542
a(Vtale
g10
tp2543
a(Vhope
g189
tp2544
a(Vromance
g10
tp2545
a(Vyes
g287
tp2546
aa(lp2547
(Vadaptation
g10
tp2548
a(Vunion
g2441
tp2549
a(Vstreet
g10
tp2550
a(Vno
g45
tp2551
a(Vwoman
g617
tp2552
a(Vunion
g2441
tp2553
a(Vstreet
g10
tp2554
a(Vstory
g4
tp2555
a(Vcondensed
g164
tp2556
a(Vfonda
g8
tp2557
a(Vcharacter
g10
tp2558
a(Vstory
g4
tp2559
a(Vtouched
g29
tp2560
a(Vbut
g156
tp2561
a(Vmany
g285
tp2562
a(Vdiscarded
g29
tp2563
aa(lp2564
(Vaccept
g8
tp2565
a(Vbarker
g10
tp2566
a(Vtale
g10
tp2567
a(Vsensitive
g8
tp2568
a(Vissue
g10
tp2569
a(Vhorrific
g8
tp2570
a(Vmass
g10
tp2571
a(Vviewing
g10
tp2572
a(Vfilm
g98
tp2573
a(Varound
g161
tp2574
a(Vleading
g16
tp2575
a(Vprotagonist
g8
tp2576
a(Vpractical
g8
tp2577
a(Vbut
g156
tp2578
a(Vcontent
g8
tp2579
a(Vnot
g272
tp2580
a(Vmain
g1167
tp2581
a(Vissue
g10
tp2582
aa(lp2583
(Vessence
g10
tp2584
a(Vreal
g1648
tp2585
a(Vgut
g10
tp2586
a(Vnovel
g10
tp2587
a(Vlost
g29
tp2588
a(Vdarkness
g8
tp2589
a(Vrain
g10
tp2590
a(Vbroken
g8
tp2591
a(Vwindow
g10
tp2592
a(Vcovered
g29
tp2593
a(Vcardboard
g38
tp2594
a(Vgraphically
g38
tp2595
a(Vdescribed
g164
tp2596
a(Vstench
g8
tp2597
a(Vpoverty
g10
tp2598
a(Vreplaced
g29
tp2599
a(Vsunshine
g8
tp2600
a(Vpretty
g38
tp2601
a(Vhouse
g511
tp2602
a(Vtwinkling
g16
tp2603
a(Vwilliam
S'WP'
p2604
tp2605
a(Vscore
g10
tp2606
a(Vif
g186
tp2607
a(Venjoyed
g164
tp2608
a(Vfilm
g98
tp2609
a(Vpositivity
g10
tp2610
a(Vhope
g189
tp2611
a(Vface
g10
tp2612
a(Vreality
g10
tp2613
a(Vadvise
g189
tp2614
a(Vhesitate
g10
tp2615
a(Vread
g164
tp2616
a(Vbook
g1535
tp2617
a(Vwithout
g1962
tp2618
a(Vfirst
g8
tp2619
a(Vpreparing
g16
tp2620
a(Vsomething
g1424
tp2621
a(Vlike
g161
tp2622
a(Vschindler
g8
tp2623
a(Vlist
g10
tp2624
a(Vbut
g156
tp2625
a(Vwithout
g1962
tp2626
a(Vhappy
g8
tp2627
a(Vending
g604
tp2628
aaa(lp2629
(lp2630
(Vfanciful
g8
tp2631
a(Vhorror
g10
tp2632
a(Vflick
g8
tp2633
a(Vvincent
g10
tp2634
a(Vprice
g607
tp2635
a(Vplaying
g16
tp2636
a(Vmad
g8
tp2637
a(Vmagician
g8
tp2638
a(Vrealizes
g146
tp2639
a(Vvocational
g8
tp2640
a(Vtalent
g10
tp2641
a(Vsold
g29
tp2642
a(Vanother
g555
tp2643
aa(lp2644
(Vdevise
g14
tp2645
a(Vway
g418
tp2646
a(Vavenging
g16
tp2647
a(Vwronged
g29
tp2648
aa(lp2649
(Vmaster
g10
tp2650
a(Vscheme
g10
tp2651
a(Vseems
g1041
tp2652
a(Vback
g38
tp2653
a(Vfire
g8
tp2654
a(Vprice
g607
tp2655
a(Vlittle
g8
tp2656
a(Vpar
g10
tp2657
a(Vcompared
S'VBN'
p2658
tp2659
a(Vmasterpiece
g10
tp2660
a(Vbut
g156
tp2661
a(Vstill
g706
tp2662
a(Vreason
g382
tp2663
a(Vwatch
g10
tp2664
a(Vthriller
g10
tp2665
aa(lp2666
(S'supporting'
g16
tp2667
a(S'cast'
g10
tp2668
a(S'includes'
S'VBZ'
p2669
tp2670
a(S'patrick'
g8
tp2671
a(S'neal'
g10
tp2672
a(S'mary'
g8
tp2673
a(S'murphy'
g10
tp2674
a(S'eva'
g10
tp2675
a(S'gabor'
g10
tp2676
a(S'jay'
g10
tp2677
a(S'novello'
g10
tp2678
aaa(lp2679
(lp2680
(S'basically'
g38
tp2681
a(S'skimmed'
g8
tp2682
a(S'movie'
g198
tp2683
a(S'but'
g156
tp2684
a(S'enough'
g8
tp2685
a(S'catch'
g10
tp2686
a(S'watch'
g10
tp2687
a(S'plot'
g10
tp2688
aa(lp2689
(Vtell
g14
tp2690
a(Vtruth
g10
tp2691
a(Vkind
g1623
tp2692
a(Vboring
g8
tp2693
a(Vspot
g10
tp2694
a(Vmake
g189
tp2695
a(Vsense
g10
tp2696
aa(lp2697
(S'reason'
g382
tp2698
a(S'watched'
g29
tp2699
a(S'movie'
g198
tp2700
a(S'first'
g8
tp2701
a(S'place'
g10
tp2702
a(S'see'
g189
tp2703
a(S'chace'
g10
tp2704
a(S'crawford'
g10
tp2705
aa(lp2706
(S'hot'
g8
tp2707
a(S'but'
g156
tp2708
a(S'movie'
g198
tp2709
a(S'hair'
g10
tp2710
a(S'kind'
g1623
tp2711
a(S'weird'
g10
tp2712
aa(lp2713
(S'but'
g156
tp2714
a(S'still'
g706
tp2715
a(S'hot'
g8
tp2716
a(S'however'
g106
tp2717
a(S'despite'
g1156
tp2718
a(S'hot'
g8
tp2719
a(S'chace'
g10
tp2720
a(S'really'
g239
tp2721
a(S'not'
g272
tp2722
a(S'make'
g14
tp2723
a(S'film'
g98
tp2724
aa(lp2725
(S'guess'
g10
tp2726
a(S'plot'
g10
tp2727
a(S'bad'
g117
tp2728
a(S'but'
g156
tp2729
a(S'really'
g239
tp2730
a(S'threw'
g8
tp2731
a(S'fact'
g386
tp2732
a(S'cuss'
g287
tp2733
a(S'like'
g161
tp2734
a(S'every'
g150
tp2735
a(S'sentence'
g10
tp2736
aa(lp2737
(S'hard'
g38
tp2738
a(S'express'
g10
tp2739
a(S'anger'
g10
tp2740
a(S'without'
g1962
tp2741
a(S'saying'
g16
tp2742
a(S'f'
g10
tp2743
a(S'word'
S'NN'
p2744
tp2745
a(S'every'
g150
tp2746
a(S'time'
g43
tp2747
a(S'cussing'
g16
tp2748
a(S'annoying'
g16
tp2749
a(S'whole'
g8
tp2750
a(S'flashy'
g8
tp2751
a(S'camera'
g10
tp2752
a(S'shaking'
g16
tp2753
a(S'thing'
g896
tp2754
a(S'gave'
g578
tp2755
a(S'headache'
g10
tp2756
a(S'although'
g2412
tp2757
a(S'plot'
g10
tp2758
a(S'ok'
g10
tp2759
a(S'found'
g29
tp2760
a(S'film'
g98
tp2761
a(S'bore'
g73
tp2762
a(S'dramatic'
g8
tp2763
aa(lp2764
(Vcut
g164
tp2765
a(Vscene
g10
tp2766
a(Vchace
g10
tp2767
aa(lp2768
(S'lol'
g10
tp2769
a(S'anyways'
g146
tp2770
a(S'not'
g272
tp2771
a(S'worth'
g8
tp2772
a(S'renting'
g16
tp2773
a(S'unless'
S'IN'
p2774
tp2775
a(S'die'
g8
tp2776
a(S'hard'
g8
tp2777
a(S'fan'
g10
tp2778
a(S'specific'
g8
tp2779
a(S'cast'
g8
tp2780
a(S'member'
g1752
tp2781
a(S'like'
g161
tp2782
aa(lp2783
(S'oh'
g2258
tp2784
a(S'yeah'
g2258
tp2785
a(S'cast'
g10
tp2786
a(S'hot'
g8
tp2787
aa(lp2788
(Vgirl
g10
tp2789
a(Vhot
g8
tp2790
aa(lp2791
(S'but'
g156
tp2792
a(S'chace'
g10
tp2793
a(S'best'
g91
tp2794
aa(lp2795
aa(lp2796
(lp2797
(Vbeginning
g16
tp2798
a(Vmovie
g198
tp2799
a(Vgive
g8
tp2800
a(Vfeeling
g10
tp2801
a(Vdirector
g109
tp2802
a(Vtrying
g1917
tp2803
a(Vportray
g10
tp2804
a(Vsomething
g1424
tp2805
a(Vmean
g8
tp2806
a(Vsay
g189
tp2807
a(Vinstead
g2059
tp2808
a(Vstory
g4
tp2809
a(Vdictating
g16
tp2810
a(Vstyle
g1154
tp2811
a(Vmovie
g198
tp2812
a(Vmade
g29
tp2813
a(Vgone
S'VBN'
p2814
tp2815
a(Vopposite
g8
tp2816
a(Vway
g418
tp2817
a(Vtype
g8
tp2818
a(Vmove
g10
tp2819
a(Vwanted
g29
tp2820
a(Vmake
g8
tp2821
a(Vwrote
S'VBD'
p2822
tp2823
a(Vstory
g4
tp2824
a(Vsuite
g10
tp2825
aa(lp2826
(S'failed'
g8
tp2827
a(S'very'
g38
tp2828
a(S'badly'
g38
tp2829
aa(lp2830
(S'guess'
g10
tp2831
a(S'trying'
g1917
tp2832
a(S'make'
g14
tp2833
a(S'stylish'
g8
tp2834
a(S'movie'
g198
tp2835
aa(lp2836
(S'way'
g418
tp2837
a(S'think'
g189
tp2838
a(S'movie'
g198
tp2839
a(S'total'
g8
tp2840
a(S'waste'
g10
tp2841
a(S'time'
g43
tp2842
a(S'effort'
g1234
tp2843
aa(lp2844
(Vcredit
g1828
tp2845
a(Vdirector
g109
tp2846
a(Vknow
g189
tp2847
a(Vmedium
g10
tp2848
a(Vworking
g16
tp2849
a(Vtrying
g1917
tp2850
a(Vsay
g189
tp2851
a(Vseen
g93
tp2852
a(Vworst
g91
tp2853
a(Vmovie
g198
tp2854
aa(lp2855
(Vleast
g91
tp2856
a(Vdirector
g109
tp2857
a(Vknow
g189
tp2858
a(Vmaintain
g189
tp2859
a(Vcontinuity
g10
tp2860
a(Vmovie
g198
tp2861
aa(lp2862
(Vactor
g10
tp2863
a(Valso
g255
tp2864
a(Vgiven
g899
tp2865
a(Vdecent
g8
tp2866
a(Vperformance
g245
tp2867
aaa(lp2868
(lp2869
(S'really'
g239
tp2870
a(S'new'
g135
tp2871
a(S'low'
g8
tp2872
a(S'entertainment'
S'NN'
p2873
tp2874
aa(lp2875
(Veven
g38
tp2876
a(Vthough
g161
tp2877
a(Vlot
g10
tp2878
a(Vworse
g249
tp2879
a(Vmovie
g198
tp2880
a(Vgangster
g8
tp2881
a(Vdrug
g297
tp2882
a(Vscene
g10
tp2883
a(Vgenre
g189
tp2884
a(Vhard
g8
tp2885
a(Vconvincing
g10
tp2886
a(Vstoryline
g10
tp2887
a(Vmovie
g198
tp2888
a(Vnot
g272
tp2889
a(Vmean
g8
tp2890
a(Vsebastians
g287
tp2891
a(Vmotif
g189
tp2892
a(Vexample
g20
tp2893
a(Vfar
g325
tp2894
a(Vfetched
g29
tp2895
a(Vworn
g8
tp2896
a(Vclich
g10
tp2897
aa(lp2898
(Vwould
g61
tp2899
a(Valso
g255
tp2900
a(Vneed
g14
tp2901
a(Vsetting
g16
tp2902
a(Vcharacter
g10
tp2903
a(Vrelationship
S'NN'
p2904
tp2905
a(Vbelievable
g8
tp2906
a(Vmovie
g198
tp2907
a(Vnot
g272
tp2908
aa(lp2909
(S'sure'
g8
tp2910
a(S'tristan'
g8
tp2911
a(S'drawn'
g10
tp2912
a(S'away'
g38
tp2913
a(S'family'
g514
tp2914
a(S'but'
g156
tp2915
aa(lp2916
(S'deal'
g10
tp2917
a(S'father'
g10
tp2918
a(S'ask'
g10
tp2919
a(S'permission'
g10
tp2920
a(S'go'
g189
tp2921
a(S'age'
S'NN'
p2922
tp2923
aa(lp2924
(Vinteresting
g8
tp2925
a(Vpicture
g10
tp2926
a(Vthough
g161
tp2927
a(Vask
g8
tp2928
a(Vlack
g10
tp2929
a(Vneed
g189
tp2930
a(Vrebellious
g8
tp2931
a(Vbehavior
g10
tp2932
a(Vkid
g427
tp2933
a(Vupper
g8
tp2934
a(Vclass
g2475
tp2935
a(Vfamily
g514
tp2936
aa(lp2937
(S'but'
g156
tp2938
a(S'movie'
g198
tp2939
a(S'not'
g272
tp2940
a(S'go'
g14
tp2941
a(S'direction'
g1433
tp2942
aa(lp2943
(S'even'
g38
tp2944
a(S'though'
g161
tp2945
a(S'would'
g61
tp2946
a(S'potential'
g14
tp2947
a(S'judging'
g10
tp2948
a(S'random'
g10
tp2949
a(S'backflashes'
g287
tp2950
aa(lp2951
(S'already'
p2952
g315
tp2953
aa(lp2954
(Vinteresting
g16
tp2955
a(Vquestion
g10
tp2956
a(Vbrought
g29
tp2957
a(Vsolid
g8
tp2958
a(Vsocially
g38
tp2959
a(Vcritic
g8
tp2960
a(Vdrama
g10
tp2961
a(Vbut
g156
tp2962
a(Vmovie
g198
tp2963
a(Vnot
g272
tp2964
a(Vfocusing
g16
tp2965
a(Vcool
g8
tp2966
a(Vproduction
g202
tp2967
a(Vtechnique
g10
tp2968
a(Vspecial
g8
tp2969
a(Veffect
g295
tp2970
a(Vnot
g272
tp2971
a(Vgiving
g2364
tp2972
a(Vcharacter
g10
tp2973
a(Vmoment
S'NN'
p2974
tp2975
a(Vreflect
g189
tp2976
a(Vmost
g893
tp2977
a(Vforcing
g8
tp2978
a(Vstory
g4
tp2979
a(Valong
g161
tp2980
a(Vpath
g10
tp2981
a(Vwant
g189
tp2982
a(Vnot
g272
tp2983
a(Vpaying
S'VBG'
p2984
tp2985
a(Vattention
S'NN'
p2986
tp2987
a(Vlet
g427
tp2988
a(Vstory
g4
tp2989
a(Vbreath
g10
tp2990
a(Vnaturally
g38
tp2991
a(Vevolve
g14
tp2992
aa(lp2993
(Vwant
g8
tp2994
a(Vdrama
g10
tp2995
a(Vnot
g272
tp2996
a(Vglorify
g14
tp2997
a(Vabuse
g10
tp2998
a(Vsubstance
g10
tp2999
a(Vviolence
g10
tp3000
a(Vwould
g61
tp3001
a(Vpolitical
S'JJ'
p3002
tp3003
a(Vincorrect
g10
tp3004
a(Vday
g702
tp3005
aa(lp3006
(Vbut
g156
tp3007
a(Vhand
S'NN'
p3008
tp3009
a(Vnothing
g368
tp3010
a(Vcheap
g8
tp3011
a(Vaction
g349
tp3012
a(Vmovie
g198
tp3013
a(Vlike
g161
tp3014
a(Vmany
g285
tp3015
a(Vaverage
g8
tp3016
a(Vset
g164
tp3017
a(Vactor
g10
tp3018
a(Vvinnie
g10
tp3019
a(Vjones
g287
tp3020
a(Vmanaging
g16
tp3021
a(Vnot
g272
tp3022
a(Vtotally
g38
tp3023
a(Vruin
g8
tp3024
a(Vleft
g164
tp3025
a(Vreputation
g10
tp3026
a(Valways
g2144
tp3027
a(Vrecommend
g189
tp3028
a(Vvinnie
g10
tp3029
a(Vediting
g10
tp3030
aaa(lp3031
(lp3032
(Vacting
g16
tp3033
a(Vnot
g272
tp3034
a(Vgreat
g81
tp3035
a(Vbut
g156
tp3036
a(Vgood
g8
tp3037
a(Vacting
g16
tp3038
a(Vdirector
g109
tp3039
a(Vmake
g189
tp3040
a(Vstupid
g8
tp3041
a(Vdecision
S'NN'
p3042
tp3043
a(Vfilm
g98
tp3044
a(Vwriter
g10
tp3045
a(Vstory
g4
tp3046
a(Vmake
g189
tp3047
a(Vno
g45
tp3048
a(Vsense
g10
tp3049
a(Vhuge
S'JJ'
p3050
tp3051
a(Vamount
g10
tp3052
a(Vflaw
g10
tp3053
a(Voverall
g8
tp3054
a(Vscore
g10
tp3055
a(Vmovie
g198
tp3056
a(Vwaste
g10
tp3057
a(Vtime
g43
tp3058
a(Vfilm
g98
tp3059
a(Vnot
g272
tp3060
a(Vworth
g8
tp3061
aa(lp3062
(S'gave'
g578
tp3063
a(S'movie'
g198
tp3064
a(S'may'
g2328
tp3065
a(S'much'
g14
tp3066
aa(lp3067
(Vcharacter
g10
tp3068
a(Vexaggerated
g29
tp3069
a(Vever
g129
tp3070
a(Vreal
g1648
tp3071
a(Vlife
g591
tp3072
a(Vpretty
g38
tp3073
a(Vunexplainable
g8
tp3074
a(Vstuff
g10
tp3075
a(Vhappens
g287
tp3076
a(Vstorywise
g1976
tp3077
a(Vnot
g272
tp3078
a(Vgood
g8
tp3079
a(Vway
g418
tp3080
aa(lp3081
(Vstyle
g1154
tp3082
a(Vfilm
g98
tp3083
a(Vfilmed
g29
tp3084
a(Vget
g14
tp3085
a(Vbored
g8
tp3086
a(Vminute
g10
tp3087
a(Vmany
g285
tp3088
a(Vspecial
g8
tp3089
a(Veffect
g295
tp3090
a(Vslow
g8
tp3091
a(Vmotion
g10
tp3092
a(Vcamera
g10
tp3093
a(Vshake
g14
tp3094
a(Vfast
g8
tp3095
a(Vforward
g10
tp3096
aa(lp3097
(Valways
g2144
tp3098
a(Vgood
g8
tp3099
a(Vmovie
g198
tp3100
a(Vus
S'PRP'
p3101
tp3102
a(Vmusic
g1330
tp3103
a(Vmake
g189
tp3104
a(Vstory
g4
tp3105
a(Vgo
g14
tp3106
a(Vsmooth
g8
tp3107
a(Vbut
g156
tp3108
a(Vmany
g285
tp3109
a(Vtrack
g189
tp3110
a(Vone
g247
tp3111
aa(lp3112
(Vfirst
g38
tp3113
a(Vhour
g224
tp3114
a(Valmost
g148
tp3115
a(Vdialog
g10
tp3116
a(Vmusic
g1330
tp3117
aaa(lp3118
(lp3119
(Vone
g247
tp3120
a(Vdumbest
g10
tp3121
a(Vfilm
g98
tp3122
a(Vever
g129
tp3123
a(Vseen
g93
tp3124
aa(lp3125
(Vrip
g10
tp3126
a(Vnearly
S'RB'
p3127
tp3128
a(Vever
g129
tp3129
a(Vtype
g8
tp3130
a(Vthriller
g10
tp3131
a(Vmanages
g287
tp3132
a(Vmake
g189
tp3133
a(Vmess
g10
tp3134
a(Vnot
g272
tp3135
a(Vsingle
S'JJ'
p3136
tp3137
a(Vgood
g8
tp3138
a(Vline
g451
tp3139
a(Vcharacter
g10
tp3140
a(Vwhole
g8
tp3141
a(Vmess
g10
tp3142
aa(lp3143
(Vif
g186
tp3144
a(Vplot
g10
tp3145
a(Vafterthought
g29
tp3146
a(Vfar
g325
tp3147
a(Vacting
g16
tp3148
a(Vgo
g14
tp3149
a(Vnothing
g368
tp3150
a(Vgood
g8
tp3151
a(Vsay
g10
tp3152
a(Vill
g287
tp3153
a(Vsay
g189
tp3154
a(Vnothing
g368
tp3155
aa(lp3156
(Vhonestly
g38
tp3157
a(Vcant
g8
tp3158
a(Vunderstand
g10
tp3159
a(Vtype
g10
tp3160
a(Vnonsense
g10
tp3161
a(Vget
g10
tp3162
a(Vproduced
g164
tp3163
a(Vactually
g908
tp3164
a(Vreleased
g164
tp3165
a(Vsomebody
g10
tp3166
a(Vsomewhere
g38
tp3167
a(Vnot
g272
tp3168
a(Vstage
g14
tp3169
a(Vthink
g14
tp3170
a(Voh
g8
tp3171
a(Vgod
g287
tp3172
a(Vreally
g239
tp3173
a(Vload
g8
tp3174
a(Vshite
g8
tp3175
a(Vcall
g10
tp3176
a(Vday
g702
tp3177
aa(lp3178
(Vcrap
g10
tp3179
a(Vlike
g161
tp3180
a(Vpeople
g259
tp3181
a(Vdownloading
g16
tp3182
a(Villegally
g38
tp3183
a(Vtrailer
g8
tp3184
a(Vlook
g10
tp3185
a(Vlike
g161
tp3186
a(Vcompletely
g38
tp3187
a(Vdifferent
g1321
tp3188
a(Vfilm
g98
tp3189
a(Vleast
g91
tp3190
a(Vif
g186
tp3191
a(Vdownload
g10
tp3192
a(Vwasted
g29
tp3193
a(Vtime
g43
tp3194
a(Vmoney
g182
tp3195
a(Vwaste
g10
tp3196
a(Vtime
g43
tp3197
a(Vpainful
g8
tp3198
aaa.