(lp1
(lp2
(lp3
(Vstory
S'NN'
p4
tp5
a(Vman
S'NN'
p6
tp7
a(Vunnatural
S'JJ'
p8
tp9
a(Vfeeling
S'NN'
p10
tp11
a(Vpig
g10
tp12
aa(lp13
(Vstart
S'VB'
p14
tp15
a(Vopening
S'VBG'
p16
tp17
a(Vscene
g10
tp18
a(Vterrific
g8
tp19
a(Vexample
S'NN'
p20
tp21
a(Vabsurd
g8
tp22
a(Vcomedy
g10
tp23
aa(lp24
(Vformal
g8
tp25
a(Vorchestra
g10
tp26
a(Vaudience
S'NN'
p27
tp28
a(Vturned
S'VBD'
p29
tp30
a(Vinsane
g8
tp31
a(Vviolent
g8
tp32
a(Vmob
g10
tp33
a(Vcrazy
g10
tp34
a(Vchanting
g10
tp35
a(Vsinger
g10
tp36
aa(lp37
(Vunfortunately
S'RB'
p38
tp39
a(Vstay
g8
tp40
a(Vabsurd
g8
tp41
a(Vwhole
g8
tp42
a(Vtime
S'NN'
p43
tp44
a(Vno
S'DT'
p45
tp46
a(Vgeneral
g8
tp47
a(Vnarrative
g8
tp48
a(Veventually
S'RB'
p49
tp50
a(Vmaking
g16
tp51
a(Vputting
S'VBG'
p52
tp53
aa(lp54
(S'even'
g38
tp55
a(S'era'
g10
tp56
a(S'turned'
g29
tp57
aa(lp58
(S'cryptic'
g8
tp59
a(S'dialogue'
g10
tp60
a(S'would'
S'MD'
p61
tp62
a(S'make'
g14
tp63
a(S'shakespeare'
g10
tp64
a(S'seem'
g8
tp65
a(S'easy'
g8
tp66
a(S'third'
g8
tp67
a(S'grader'
g10
tp68
aa(lp69
(S'technical'
S'JJ'
p70
tp71
a(S'level'
g10
tp72
a(S'better'
S'RBR'
p73
tp74
a(S'might'
S'MD'
p75
tp76
a(S'think'
g14
tp77
a(S'good'
g8
tp78
a(S'cinematography'
g10
tp79
a(S'future'
g10
tp80
a(S'great'
S'JJ'
p81
tp82
a(S'vilmos'
g8
tp83
a(S'zsigmond'
g10
tp84
aa(lp85
(Vfuture
g8
tp86
a(Vstar
g10
tp87
a(Vsally
g38
tp88
a(Vkirkland
g14
tp89
a(Vfrederic
g8
tp90
a(Vforrest
S'JJS'
p91
tp92
a(Vseen
S'VBN'
p93
tp94
a(Vbriefly
g10
tp95
aaa(lp96
(lp97
(Vfilm
S'NN'
p98
tp99
a(Vlot
g10
tp100
a(Vpromise
g10
tp101
a(Vplot
g10
tp102
a(Vrelatively
S'RB'
p103
tp104
a(Vinteresting
g8
tp105
a(Vhowever
S'RB'
p106
tp107
a(Vactor
g10
tp108
a(Vdirector
S'NN'
p109
tp110
a(Veditor
S'NN'
p111
tp112
a(Vseriously
g38
tp113
a(Vlet
g14
tp114
a(Vfilm
g98
tp115
a(Vfeel
g14
tp116
a(Vbad
S'JJ'
p117
tp118
a(Vwriter
g10
tp119
a(Vcould
S'MD'
p120
tp121
a(Vgood
g14
tp122
aa(lp123
(Vacting
g16
tp124
a(Vwooden
g8
tp125
a(Vvery
g38
tp126
a(Vcharacter
g73
tp127
a(Vbelievable
g8
tp128
a(Vever
S'RB'
p129
tp130
a(Vedited
g29
tp131
a(Vclearly
S'RB'
p132
tp133
a(Vlearnt
g8
tp134
a(Vnew
S'JJ'
p135
tp136
a(Vedit
g10
tp137
a(Vtechnique
g10
tp138
a(Vwanted
g29
tp139
a(Vsplash
g10
tp140
a(Vfilm
g98
tp141
aa(lp142
(Vlot
g10
tp143
a(Vquick
g8
tp144
a(Vflashy
g10
tp145
a(Vedits
S'VBZ'
p146
tp147
a(Valmost
S'RB'
p148
tp149
a(Vevery
S'DT'
p150
tp151
a(Vscene
g10
tp152
a(Vclearly
g132
tp153
a(Vmeant
g8
tp154
a(Vsymbolic
g10
tp155
a(Vbut
S'CC'
p156
tp157
a(Vend
g10
tp158
a(Vannoying
g10
tp159
a(Vwanted
g29
tp160
a(Vlike
S'IN'
p161
tp162
a(Vfilm
g98
tp163
a(Vexpected
S'VBN'
p164
tp165
a(Vdecent
g8
tp166
a(Vresolution
g10
tp167
a(Vbreakdown
g161
tp168
a(Vequilibrium
g10
tp169
a(Vbut
g156
tp170
a(Vala
g146
tp171
a(Vno
g45
tp172
a(Vleft
g8
tp173
a(Vfeeling
g10
tp174
a(Vlike
g161
tp175
a(Vwasted
g8
tp176
a(Vtime
g43
tp177
a(Vfilm
g98
tp178
a(Vmaker
S'NN'
p179
tp180
a(Vwasted
g29
tp181
a(Vmoney
S'NN'
p182
tp183
aaa(lp184
(lp185
(Vif
S'IN'
p186
tp187
a(Vlook
g164
tp188
a(Vcorey
S'VBP'
p189
tp190
a(Vlarge
S'JJ'
p191
tp192
a(Vinformation
S'NN'
p193
tp194
a(Vimdb
g10
tp195
a(Vapparently
S'RB'
p196
tp197
a(Vmovie
S'NN'
p198
tp199
a(Vcalled
g164
tp200
a(Vreload
g10
tp201
a(Vproduction
S'NN'
p202
tp203
a(Vjune
g10
tp204
a(V08
S'CD'
p205
tp206
a(Vplaying
g10
tp207
a(Vcharacter
g10
tp208
a(Vnamed
g164
tp209
a(Vsebastian
g8
tp210
a(Vcole
g10
tp211
a(Vfirst
g38
tp212
a(Vcrappy
g8
tp213
a(Vmovie
g198
tp214
a(Vever
g129
tp215
a(Vearn
g38
tp216
a(Vsequel
g8
tp217
a(Vsecond
g10
tp218
a(Vsebastian
g8
tp219
a(Vget
g10
tp220
a(Vkilled
g164
tp221
a(Vend
g10
tp222
a(Vloaded
g164
tp223
a(Vwatched
g29
tp224
a(Vwee
g8
tp225
a(Vhour
S'NN'
p226
tp227
a(Vmorning
S'NN'
p228
tp229
a(Vbattling
g10
tp230
a(Vinsomnia
g10
tp231
a(Vdrifting
g16
tp232
aa(lp233
(Vsure
g38
tp234
a(Vmissed
g164
tp235
a(Vplot
g10
tp236
a(Vpoint
g10
tp237
a(Vbut
g156
tp238
a(Voverall
g8
tp239
a(Vseemed
g29
tp240
a(Vreally
S'RB'
p241
tp242
a(Vweak
S'JJ'
p243
tp244
aa(lp245
(Vlarge
g191
tp246
a(Vperformance
S'NN'
p247
tp248
a(Vone
g205
tp249
a(Vstronger
S'JJR'
p250
tp251
a(Vpart
S'NN'
p252
tp253
a(Vfilm
g98
tp254
aa(lp255
(Valso
S'RB'
p256
tp257
a(Vbit
g10
tp258
a(Vsurprised
g8
tp259
a(Vpeople
S'NNS'
p260
tp261
a(Vcommenting
g16
tp262
a(Vbeautiful
g8
tp263
a(Vgirl
g10
tp264
a(Vsince
S'IN'
p265
tp266
a(Vthought
g10
tp267
a(Vactress
g161
tp268
a(Vplaying
g16
tp269
a(Vbrooke
g10
tp270
a(Vpretty
g38
tp271
a(Vbut
g156
tp272
a(Vnot
S'RB'
p273
tp274
a(Vexceptional
g8
tp275
aaa(lp276
(lp277
(S'could'
g120
tp278
a(S'think'
g14
tp279
a(S'watching'
g16
tp280
a(S'movie'
g198
tp281
a(S'b-grade'
g10
tp282
a(S'slop'
g10
tp283
aa(lp284
(Vmany
S'JJ'
p285
tp286
a(Vspoken
S'NNS'
p287
tp288
a(Vredeeming
g16
tp289
a(Vquality
g10
tp290
a(Vfilm
g98
tp291
a(Vportrays
g146
tp292
a(Vrealistic
g8
tp293
a(Vrepresentation
g10
tp294
a(Veffect
S'NN'
p295
tp296
a(Vdrug
S'NN'
p297
tp298
a(Vindividual
g8
tp299
a(Vsubsequent
g8
tp300
a(Vspiral
g10
tp301
a(Vself
g10
tp302
a(Vperpetuation
g10
tp303
a(Vstate
S'NN'
p304
tp305
a(Vunfortunate
g8
tp306
a(Vevent
S'NN'
p307
tp308
aa(lp309
(Vyet
g38
tp310
a(Vreally
g241
tp311
a(Vtechnique
g8
tp312
a(Vused
g29
tp313
a(Vmany
g285
tp314
a(Valready
S'RB'
p315
tp316
a(Vmentioned
g164
tp317
a(Voverused
g164
tp318
a(Vthus
S'RB'
p319
tp320
a(Vunconvincing
g8
tp321
a(Virrelevant
g8
tp322
a(Vfilm
g98
tp323
a(Vwhole
g8
tp324
a(Vfar
S'RB'
p325
tp326
a(Vplot
g10
tp327
a(Vconcerned
g8
tp328
a(Vlacklustre
g8
tp329
a(Vunimaginative
g8
tp330
a(Vimplausible
g10
tp331
a(Vconvoluted
g29
tp332
aa(lp333
(Vread
g14
tp334
a(Vmost
g91
tp335
a(Vreport
g10
tp336
a(Vfilm
g98
tp337
a(Vsay
g189
tp338
a(Vpretty
g38
tp339
a(Vmuch
g38
tp340
a(Vwould
g61
tp341
a(Vgranted
g14
tp342
a(Vactor
g10
tp343
a(Vactress
g8
tp344
a(Vattractive
g8
tp345
a(Vbut
g156
tp346
a(Vconfronted
g8
tp347
a(Vboring
g8
tp348
a(Vaction
S'NN'
p349
tp350
a(Vlook
g10
tp351
a(Vcarry
g189
tp352
a(Vfilm
g98
tp353
a(Vfar
g325
tp354
aa(lp355
(Vaction
g349
tp356
a(Vpoor
S'JJ'
p357
tp358
a(Vintermittent
g10
tp359
a(Vpunch
g10
tp360
a(Vthrown
g161
tp361
a(Vfinal
S'JJ'
p362
tp363
a(Vgunfight
g10
tp364
a(Vtowards
g287
tp365
a(Vend
g189
tp366
aa(lp367
(Vnothing
S'NN'
p368
tp369
a(Vreally
g241
tp370
a(Vwrite
g8
tp371
a(Vhome
g10
tp372
a(Vothers
S'NNS'
p373
tp374
a(Vsaid
S'VBD'
p375
tp376
a(Vbad
g117
tp377
a(Vmovie
g198
tp378
a(Vgreat
g81
tp379
a(Vwatch
g10
tp380
a(Vvery
g38
tp381
a(Vreason
S'NN'
p382
tp383
a(Vbad
g117
tp384
a(Vrevel
g10
tp385
a(Vfact
S'NN'
p386
tp387
aa(lp388
(S'film'
g98
tp389
a(S'however'
g106
tp390
a(S'void'
g10
tp391
aa(lp392
(Vnothing
g368
tp393
a(Vfurthermore
g38
tp394
a(Vif
g186
tp395
a(Vone
g205
tp396
a(Vreally
g241
tp397
a(Vneed
g14
tp398
a(Veducational
g8
tp399
a(Vmovie
g198
tp400
a(Vscare
g10
tp401
a(Vpeople
g260
tp402
a(Vaway
g38
tp403
a(Vdrug
g297
tp404
a(Vuse
g10
tp405
a(Vwould
g61
tp406
a(Vseriously
g38
tp407
a(Vrecommend
g14
tp408
a(Vnumber
S'NN'
p409
tp410
a(Vmovie
g198
tp411
a(Vboard
S'NN'
p412
tp413
a(Vissue
g10
tp414
a(Vmuch
g38
tp415
a(Veffective
S'JJ'
p416
tp417
a(Vway
S'NN'
p418
tp419
aa(lp420
(Vrequiem
g10
tp421
a(Vdream
g10
tp422
a(Vtrainspotting
g16
tp423
a(Vfear
g10
tp424
a(Vloathing
g16
tp425
a(Vla
g10
tp426
a(Vvega
S'FW'
p427
tp428
a(Vcandy
g10
tp429
a(Vexample
g20
tp430
aa(lp431
(Vthough
g161
tp432
a(Vone
g205
tp433
a(Valso
g256
tp434
a(Vcheck
g14
tp435
a(Vlighthearted
g29
tp436
a(Vfilm
g98
tp437
a(Vsubject
g10
tp438
a(Vlike
g161
tp439
a(Vgo
g189
tp440
a(Voverall
g8
tp441
a(Vserious
S'JJ'
p442
tp443
a(Vfunny
g10
tp444
a(Vhalfbaked
g29
tp445
a(Vfinal
g362
tp446
a(Vnote
g10
tp447
a(Vone
g205
tp448
a(Vpossibly
g38
tp449
a(Vredeeming
g16
tp450
a(Vline
S'NN'
p451
tp452
a(Vmovie
g198
tp453
a(Vdelivered
g29
tp454
a(Vvinnie
g8
tp455
a(Vjones
g287
tp456
a(Vstolen
g164
tp457
a(Vlock
g8
tp458
a(Vstock
S'NN'
p459
tp460
a(Vtwo
S'CD'
p461
tp462
a(Vsmokling
g10
tp463
a(Vbarrel
g10
tp464
aa(lp465
(S'think'
g14
tp466
a(S'bit'
g10
tp467
a(S'great'
g81
tp468
a(S'movie'
g198
tp469
a(S'tainted'
g164
tp470
a(S'loaded'
g29
tp471
a(S'vile'
g8
tp472
a(S'overall'
g8
tp473
a(S'strongly'
g38
tp474
a(S'suggest'
g189
tp475
a(S'save'
g14
tp476
a(S'money'
g182
tp477
a(S'time'
g43
tp478
a(S'not'
g273
tp479
a(S'seeing'
g16
tp480
a(S'movie'
g198
tp481
aaa(lp482
(lp483
(Vweak
g243
tp484
a(Vplot
g10
tp485
a(Vpredictable
g8
tp486
a(Vviolence
g10
tp487
a(Vsemi
g10
tp488
a(Vinteresting
g8
tp489
a(Vcharacter
g10
tp490
aa(lp491
(Vlike
g161
tp492
a(Vwriter
g10
tp493
a(Valso
g256
tp494
a(Vone
g205
tp495
a(Vstar
g10
tp496
aa(lp497
(Vfictionalizing
g16
tp498
a(Vscrew
g29
tp499
a(Vups
g287
tp500
a(Vadded
g29
tp501
a(Vincredulous
g8
tp502
a(Vfantasy
g8
tp503
a(Vdrug
g297
tp504
a(Vmurder
g10
tp505
a(Vmake
g189
tp506
a(Vhot
g8
tp507
aa(lp508
(Vpredictable
g8
tp509
a(Vrap
g10
tp510
a(Vhouse
S'NN'
p511
tp512
a(Vsoundtrack
g29
tp513
a(Vfamily
S'NN'
p514
tp515
a(Vconflict
g10
tp516
a(Vpoorly
g38
tp517
a(Vacted
g29
tp518
a(Vstereotypical
g8
tp519
a(Vultimately
g38
tp520
a(Vterribly
g38
tp521
a(Vboring
g16
tp522
aa(lp523
(Veven
g38
tp524
a(Vtitle
g14
tp525
a(Vdone
S'VBN'
p526
tp527
a(V-
S':'
tp528
a(Vimdb
g8
tp529
a(Vlist
g10
tp530
a(Vfive
S'CD'
p531
tp532
a(Vmovie
g198
tp533
a(Vname
g10
tp534
a(Vreleased
g29
tp535
a(V2007-2008
g8
tp536
aa(lp537
(Vnote
g10
tp538
a(Vsaw
g29
tp539
a(Vshowtime
g38
tp540
a(Vlisted
g164
tp541
a(Vsynopsis
g10
tp542
a(Vone
g205
tp543
a(Vmovie
g198
tp544
aa(lp545
(S'halfway'
g38
tp546
a(S'thru'
S'EX'
p547
tp548
a(S'realized'
g164
tp549
a(S'no'
g45
tp550
a(S'one'
g10
tp551
a(S'undercover'
g10
tp552
a(S'cop'
g10
tp553
aa(lp554
(S'even'
g38
tp555
a(S'tho'
g146
tp556
a(S'another'
S'DT'
p557
tp558
a(S'stereotype'
g10
tp559
a(S'would'
g61
tp560
a(S'made'
g14
tp561
a(S'interesting'
g16
tp562
a(S'if'
g186
tp563
a(S'happened'
g164
tp564
aaa(lp565
(lp566
(Vtime
g43
tp567
a(Vfinishing
g16
tp568
a(Vfilm
g98
tp569
a(Vone
g205
tp570
a(Vwish
g10
tp571
a(Vrefund
g10
tp572
a(Vtime
g43
tp573
a(Vspent
g10
tp574
aa(lp575
(Vone
g205
tp576
a(Vtime
g43
tp577
aa(lp578
(Valmost
g148
tp579
a(Vgave
S'VBD'
p580
tp581
a(V15
S'CD'
p582
tp583
a(Vminute
g10
tp584
a(Vleft
g29
tp585
a(Vendure
g8
tp586
a(Vwish
g8
tp587
a(Vpace
S'NN'
p588
tp589
a(Vman
g6
tp590
a(Vgo
g189
tp591
a(Vstraight-laced
g8
tp592
a(Vcontrolled
g8
tp593
a(Vlife
S'NN'
p594
tp595
a(Vone
g205
tp596
a(Vcomplete
g8
tp597
a(Vspinelessness
g10
tp598
a(Virresponsibility
g10
tp599
a(Vcould
g120
tp600
a(Vnever
S'RB'
p601
tp602
a(Vrapid
g14
tp603
a(Vgraduation
g10
tp604
a(Vcelebration
g10
tp605
a(Vpredictable
g8
tp606
a(Vending
S'VBG'
p607
tp608
a(Vtristan
g8
tp609
a(Vprice
S'NN'
p610
tp611
a(Vjesse
g10
tp612
a(Vmetcalfe
g10
tp613
a(Vman
g6
tp614
a(Vprivilege
g10
tp615
a(Vculture
S'NN'
p616
tp617
a(Vallows
g146
tp618
a(Vseduced
g164
tp619
a(Vwoman
S'NN'
p620
tp621
a(Vviolence
g10
tp622
a(Vmind
g10
tp623
a(Valtering
g16
tp624
a(Vsubstance
g10
tp625
aa(lp626
(Vcourse
S'NN'
p627
tp628
a(Vwoman
g620
tp629
a(Vpart
g252
tp630
a(Vunderstandable
g8
tp631
a(Vobserving
g16
tp632
a(Vtalent
g10
tp633
a(Vbeautiful
g8
tp634
a(Vapril
g8
tp635
a(Vnathalie
g10
tp636
a(Vkelley
g10
tp637
aa(lp638
(Vbut
g156
tp639
a(Vpenny
g8
tp640
a(Vpound
S'NN'
p641
tp642
a(Vaspect
g8
tp643
a(Vdrug
g297
tp644
a(Vviolence
g10
tp645
a(Vdedication
g10
tp646
a(Vperson
S'NN'
p647
tp648
a(Vmet
g29
tp649
a(Vimpossible
g8
tp650
a(Vunderstand
g8
tp651
a(Vfrankly
g38
tp652
a(Vbesides
g161
tp653
a(Vable
S'JJ'
p654
tp655
a(Vstare
g10
tp656
a(Vnathalie
g8
tp657
a(Vkelley
g10
tp658
a(Vmonica
g10
tp659
a(Vkeena
S'NNP'
p660
tp661
a(Vfilm
g98
tp662
a(Vno
g38
tp663
a(Vredeeming
g16
tp664
a(Vquality
g10
tp665
aa(lp666
(S'save'
g14
tp667
a(S'money'
g182
tp668
a(S'save'
g10
tp669
a(S'time'
g43
tp670
a(S'anything'
S'NN'
p671
tp672
a(S'else'
g38
tp673
aaa(lp674
(lp675
a(lp676
(S'one'
p677
g205
tp678
aa(lp679
(S'worst'
g91
tp680
a(S'movie'
g198
tp681
a(S'ever'
g129
tp682
a(S'made'
g29
tp683
aa(lp684
(S'ever'
p685
g129
tp686
aa(lp687
(Vbeat
g10
tp688
a(Veverything
S'NN'
p689
tp690
aa(lp691
(S'never'
g601
tp692
a(S'seen'
g93
tp693
a(S'worse'
g250
tp694
aa(lp695
(Vretire
g10
tp696
a(Vtrophy
g10
tp697
a(Vgive
g189
tp698
a(Vpeople
g260
tp699
a(Vno
g45
tp700
a(Vcomparison
g10
tp701
a(Veven
g38
tp702
a(Vthree
S'CD'
p703
tp704
a(Vday
S'NN'
p705
tp706
a(Vwatching
g16
tp707
a(Vreason
g382
tp708
a(Vstill
S'RB'
p709
tp710
a(Vknow
g189
tp711
a(Vcannot
g8
tp712
a(Vbelieve
g189
tp713
a(Vinsanely
g38
tp714
a(Vhorrific
g8
tp715
a(Vmovie
g198
tp716
aa(lp717
(S'bad'
p718
g117
tp719
aa(lp720
(Vfar
g325
tp721
a(Vanything
g671
tp722
a(Vcould
g120
tp723
a(Vconsidered
g14
tp724
a(Vmovie
g198
tp725
a(Vstory
g4
tp726
a(Vanything
g671
tp727
a(Vever
g129
tp728
a(Vcreated
g29
tp729
a(Vbrought
g8
tp730
a(Vexistence
g10
tp731
a(Vmade
g164
tp732
a(Vquestion
g10
tp733
a(Vwhether
S'IN'
p734
tp735
a(Vnot
g273
tp736
a(Vhuman
g8
tp737
a(Vtruly
g38
tp738
a(Vput
g29
tp739
a(Vearth
g38
tp740
a(Vgood
g8
tp741
aa(lp742
(Vmade
g164
tp743
a(Vfeel
g10
tp744
a(Vdisgusted
g8
tp745
a(Vprogress
g10
tp746
a(Vspecie
g10
tp747
a(Vuniverse
g10
tp748
aa(lp749
(Vtype
g8
tp750
a(Vmovie
g198
tp751
a(Vsincerely
g38
tp752
a(Vhurt
g29
tp753
a(Vu
g8
tp754
a(Vsociety
g10
tp755
aa(lp756
(S'ashamed'
p757
g164
tp758
aa(lp759
(Vreally
g241
tp760
a(Vcannot
g8
tp761
a(Vemphasize
g14
tp762
a(Vglobal
S'JJ'
p763
tp764
a(Vresponsibility
g10
tp765
a(Vpeople
g260
tp766
a(Vliving
g16
tp767
a(Vcreating
S'VBG'
p768
tp769
a(Vart
g38
tp770
a(Vneed
g14
tp771
a(Vprevent
g10
tp772
a(Vcreation
g10
tp773
a(Vgross
S'JJ'
p774
tp775
a(Vdistortion
g10
tp776
a(Vreality
g10
tp777
a(Vgood
g8
tp778
aa(lp779
(S'embarrassment'
p780
g10
tp781
aa(lp782
(Vknow
g14
tp783
a(Vearth
g10
tp784
a(Vactor
g8
tp785
a(Vwriter
g10
tp786
a(Vdirector
g109
tp787
a(Vfilm
g98
tp788
a(Vsleep
g8
tp789
a(Vnight
S'NN'
p790
tp791
a(Vknowing
g16
tp792
a(Vrole
S'NN'
p793
tp794
a(Vmaking
g10
tp795
a(Vloaded
g29
tp796
aa(lp797
(Vknow
g14
tp798
a(Vtype
g10
tp799
a(Vdisgusting
g16
tp800
a(Vmonster
g10
tp801
a(Venjoy
g10
tp802
a(Vwatching
g16
tp803
a(Vtype
g8
tp804
a(Vmovie
g198
tp805
a(Vsaid
g375
tp806
a(Vlove
g38
tp807
a(Vgood
g8
tp808
a(Vbad
g117
tp809
a(Vmovie
g198
tp810
aa(lp811
(S'love'
g10
tp812
a(S'shark'
g10
tp813
a(S'attack'
g10
tp814
a(S'3'
g205
tp815
a(S'love'
g10
tp816
a(S'bad'
g117
tp817
a(S'taste'
g10
tp818
a(S'hilarious'
g8
tp819
aa(lp820
(Vtell
g10
tp821
a(Vfriend
g10
tp822
a(Vsee
g189
tp823
a(Vbad
g117
tp824
a(Vbut
g156
tp825
a(Vcross
g8
tp826
a(Vline
g451
tp827
a(Vbad
g117
tp828
a(Vwhole
g8
tp829
a(Vnew
g135
tp830
a(Vdimension
g10
tp831
aa(lp832
(S'awkward'
g38
tp833
a(S'bad'
g117
tp834
aa(lp835
(Vbad
g117
tp836
a(Vknow
g189
tp837
a(Veverything
g689
tp838
a(Vgoing
S'VBG'
p839
tp840
a(Vhappen
g8
tp841
a(Vevery
g150
tp842
a(Vline
g451
tp843
a(Vevery
g150
tp844
a(Vaction
g349
tp845
a(Vevery
g150
tp846
a(Vdeath
S'NN'
p847
tp848
a(Vevery
g150
tp849
a(Vsequence
g10
tp850
a(Vhappen
g146
tp851
a(Vnot
g273
tp852
a(Vlike
g8
tp853
a(Vsecond
g8
tp854
a(Vtwo
g461
tp855
a(Vmean
g189
tp856
a(Vlike
g161
tp857
a(Vwatching
g16
tp858
a(Vfirst
g38
tp859
a(V5
S'CD'
p860
tp861
a(Vminute
g10
tp862
a(Vevery
g150
tp863
a(Vcheesy
g10
tp864
a(Vediting
g16
tp865
a(Veffect
g295
tp866
a(Vshamelessly
g38
tp867
a(Vused
g29
tp868
a(Vsickening
g16
tp869
a(Vpoint
g10
tp870
aa(lp871
(Vreally
g241
tp872
a(Vnever
g601
tp873
a(Vwant
g189
tp874
a(Vsee
g10
tp875
a(Vshaky
g8
tp876
a(Vcamera
g10
tp877
a(Vdrug
g297
tp878
a(Vbuzz
g10
tp879
a(Vrush
g10
tp880
a(Veffect
g295
tp881
a(Vjump
g10
tp882
a(Vcut
g10
tp883
a(Vswerve
g10
tp884
a(Vcut
g29
tp885
a(Vfancy
g8
tp886
a(Vcut
g10
tp887
a(Vever
g129
tp888
a(Vever
g129
tp889
aa(lp890
(Vmeticulously
g38
tp891
a(Vboring
g16
tp892
a(Vrepetitive
g8
tp893
a(Vtorture
g10
tp894
a(Vaudience
g27
tp895
a(Vbut
g156
tp896
a(Vlet
g14
tp897
a(Vspecific
g8
tp898
a(Vmost
S'RBS'
p899
tp900
a(Vdisturbing
g8
tp901
a(Vthing
S'NN'
p902
tp903
a(Vmovie
g198
tp904
a(Vgiven
S'VBN'
p905
tp906
a(Vproduction
g202
tp907
a(Vappears
S'VBZ'
p908
tp909
a(Vsomewhat
g38
tp910
a(Vdecent
g8
tp911
a(Vamount
g10
tp912
a(Vmoney
g182
tp913
a(Vactually
S'RB'
p914
tp915
a(Vput
g29
tp916
a(Vexcrement
g8
tp917
aa(lp918
(Vpersonally
g38
tp919
a(Vgrab
g8
tp920
a(Vshoulder
g10
tp921
a(Vdirector
g109
tp922
a(Vif
g186
tp923
a(Vever
g129
tp924
a(Vsee
g189
tp925
a(Vshake
g8
tp926
a(Vsubmission
g10
tp927
a(Vdemanding
g16
tp928
a(Vrun
g164
tp929
a(Vhome
g10
tp930
a(Vswallow
g10
tp931
a(Vtwo-gallons
g287
tp932
a(Vdrain-o
g10
tp933
a(Vif
g186
tp934
a(Vever
g129
tp935
a(Vneeded
g164
tp936
a(Vnew
g135
tp937
a(Vform
g10
tp938
a(Vinhumane
g8
tp939
a(Vtorture
g10
tp940
a(Vwar
S'NN'
p941
tp942
a(Vprisoner
g10
tp943
a(Vabroad
S'RB'
p944
tp945
a(Vkeep
g14
tp946
a(Vshowing
g16
tp947
a(Vmovie
g198
tp948
a(Vpadded
g164
tp949
a(Vcell
g10
tp950
aa(lp951
(Vtrust
g10
tp952
a(Vthink
g189
tp953
a(Vbecome
g164
tp954
a(Vextravagant
g8
tp955
a(Vsuicide
g8
tp956
a(Vmethod
g10
tp957
a(V72nd
g205
tp958
a(Vtime
g43
tp959
a(Vsitting
g16
tp960
a(Vstop
g8
tp961
a(Vmovie
g198
tp962
a(Vmost
g91
tp963
a(Vvile
g8
tp964
a(Vfacet
g10
tp965
a(Vsociety
g10
tp966
aa(lp967
(S'please'
p968
g10
tp969
aa(lp970
(S'stop'
p971
g10
tp972
aa(lp973
aa(lp974
(lp975
(Vlot
g10
tp976
a(Vextremely
S'RB'
p977
tp978
a(Vgood-looking
g8
tp979
a(Vpeople
g260
tp980
a(Vmovie
g198
tp981
aa(lp982
(S'probably'
S'RB'
p983
tp984
a(S'best'
g91
tp985
a(S'thing'
g902
tp986
aa(lp987
(Vperhaps
S'RB'
p988
tp989
a(Veven
g38
tp990
a(Vmake
g14
tp991
a(Vworth
g8
tp992
a(Vwatching
g16
tp993
a(Vloaded
g8
tp994
a(Vtell
g10
tp995
a(Vstory
g4
tp996
a(Vtristan
g8
tp997
a(Vprice
g610
tp998
a(Vjesse
g10
tp999
a(Vmetcalfe
g10
tp1000
a(Vyoung
S'JJ'
p1001
tp1002
a(Vman
g6
tp1003
a(Vmake
g189
tp1004
a(Vmark
g10
tp1005
a(Vworld
S'NN'
p1006
tp1007
aa(lp1008
(S'son'
g10
tp1009
a(S'well-to-do'
g8
tp1010
a(S'family'
g514
tp1011
a(S'good'
g8
tp1012
a(S'reputation'
g10
tp1013
a(S'way'
g418
tp1014
a(S'law'
S'NN'
p1015
tp1016
a(S'school'
S'NN'
p1017
tp1018
aa(lp1019
(Vbut
g156
tp1020
a(Vlike
g161
tp1021
a(Vmany
g285
tp1022
a(Vsetting
g16
tp1023
a(Vthing
g902
tp1024
a(Vquite
g38
tp1025
a(Vperfect
g8
tp1026
a(Vappear
g189
tp1027
aa(lp1028
(Vexpectation
g10
tp1029
a(Vfamily
g514
tp1030
a(Vfar
g325
tp1031
a(Voutweigh
g8
tp1032
a(Vlove
g10
tp1033
aa(lp1034
(Vexcept
g161
tp1035
a(Vschool
g1017
tp1036
a(Vtristan
g10
tp1037
a(Vfather
g73
tp1038
a(Vrarely
g38
tp1039
a(Vlet
g14
tp1040
a(Vleave
g14
tp1041
a(Vhouse
g511
tp1042
aa(lp1043
(Vseems
S'VBZ'
p1044
tp1045
a(Vresult
g10
tp1046
a(Vpast
g161
tp1047
a(Vtraumatic
g8
tp1048
a(Vevent
g307
tp1049
a(Vshook
g29
tp1050
a(Vfamily
g514
tp1051
a(Vpartially
g38
tp1052
a(Vrevealed
g29
tp1053
a(Vflashback
g10
tp1054
a(Vbut
g156
tp1055
a(Vspelled
g29
tp1056
a(Vuntil
S'IN'
p1057
tp1058
a(Vvery
g38
tp1059
a(Vend
g14
tp1060
aa(lp1061
(Vtristan
g10
tp1062
a(Vclaustrophobic
g10
tp1063
a(Venvironment
S'NN'
p1064
tp1065
a(Vcause
g10
tp1066
a(Vlet
g29
tp1067
a(Vloose
g8
tp1068
a(Vvery
g38
tp1069
a(Vextreme
g8
tp1070
a(Vway
g418
tp1071
a(Vfirst
g38
tp1072
a(Vpossible
S'JJ'
p1073
tp1074
a(Vopportunity
S'NN'
p1075
tp1076
a(Vfriend
g189
tp1077
a(Vtake
g14
tp1078
a(Vstrip
g10
tp1079
a(Vclub
g10
tp1080
a(Vcelebrate
g10
tp1081
a(Vgraduation
g10
tp1082
aa(lp1083
(Vcelebration
g10
tp1084
a(Vsoon
S'RB'
p1085
tp1086
a(Vfollows
S'VBZ'
p1087
tp1088
a(Vstripper
g250
tp1089
a(Vback
g38
tp1090
a(Vbeach
g10
tp1091
a(Vhouse
g511
tp1092
a(Vparty
S'NN'
p1093
tp1094
a(Vtristan
g8
tp1095
a(Vbefriends
g287
tp1096
a(Vsebastian
g8
tp1097
a(Vcole
g10
tp1098
a(Vcorey
g10
tp1099
a(Vlarge
g191
tp1100
a(Vpull
g8
tp1101
a(Vdrug
g297
tp1102
a(Vdealing
g16
tp1103
a(Vunderworld
g8
tp1104
a(Vtechnically
g38
tp1105
a(Vwell-made
g8
tp1106
a(Vmovie
g198
tp1107
a(Vsuffers
g287
tp1108
a(Vlackluster
g73
tp1109
a(Vscript
g10
tp1110
a(Vstoryline
g8
tp1111
a(Vvery
g38
tp1112
a(Vengaging
g16
tp1113
aa(lp1114
(Valso
g256
tp1115
a(Vcounting
g16
tp1116
a(Vagainst
S'IN'
p1117
tp1118
a(Vfilm
g98
tp1119
a(Vconstant
g8
tp1120
a(Vcamera
g10
tp1121
a(Vtrick
g10
tp1122
a(Vgenerally
S'RB'
p1123
tp1124
a(Vseemed
g29
tp1125
a(Vannoying
g16
tp1126
a(Vout-of-place
g8
tp1127
a(Vslow-motion
g8
tp1128
a(Vfast-motion
g8
tp1129
a(Vfreeze-frames
g287
tp1130
a(Vecho
g10
tp1131
aa(lp1132
(Vtype
g8
tp1133
a(Veffect
g295
tp1134
a(Vdirector
g109
tp1135
a(Vmight
g75
tp1136
a(Vnormally
g38
tp1137
a(Vutilize
g14
tp1138
a(Vshow
g10
tp1139
a(Vcharacter
g8
tp1140
a(Vperspective
g8
tp1141
a(Vdrug
g297
tp1142
a(Vexcept
g161
tp1143
a(Vcase
S'NN'
p1144
tp1145
a(Vseem
g189
tp1146
a(Vsporadically
g38
tp1147
a(Vtossed
g8
tp1148
a(Vrandom
g10
tp1149
a(Vpoint
g10
tp1150
a(Vcheap
g8
tp1151
a(Vattempt
g10
tp1152
a(Vstyle
S'NN'
p1153
tp1154
a(Vdespite
S'IN'
p1155
tp1156
a(Vcast
g8
tp1157
a(Vrelative
g8
tp1158
a(Vunknown
g8
tp1159
a(Vperformance
g247
tp1160
a(Vgood
g8
tp1161
a(Varound
g161
tp1162
a(Vmost
g91
tp1163
a(Vnotably
g38
tp1164
a(Vrespect
g189
tp1165
a(Vmain
S'JJ'
p1166
tp1167
a(Vantagonist
g10
tp1168
a(Vcorey
g10
tp1169
a(Vlarge
g191
tp1170
aa(lp1171
(Vsuspect
g8
tp1172
a(Vseeing
g16
tp1173
a(Vleast
g91
tp1174
a(Vcouple
g8
tp1175
a(Vpeople
g260
tp1176
a(Vbigger
S'JJR'
p1177
tp1178
a(Vbetter
g73
tp1179
a(Vproject
g10
tp1180
a(Vfuture
g8
tp1181
a(Vcourse
g627
tp1182
a(Vmentioning
g16
tp1183
a(Vactor
g10
tp1184
a(Vmust
S'MD'
p1185
tp1186
a(Vmention
g14
tp1187
a(Vlook
g10
tp1188
aa(lp1189
(Vrating
S'NN'
p1190
tp1191
a(Vbased
S'VBN'
p1192
tp1193
a(Vhotness
g8
tp1194
a(Vmovie
g198
tp1195
a(Vscore
g10
tp1196
a(V11
S'CD'
p1197
tp1198
aa(lp1199
(Vwoman
g620
tp1200
a(Vmovie
g198
tp1201
a(Vincredible-looking
g8
tp1202
a(Valmost
g148
tp1203
a(Vdistract
g8
tp1204
a(Vboring
g8
tp1205
a(Vmovie
g198
tp1206
a(Vwatching
g10
tp1207
aa(lp1208
(Vsure
g8
tp1209
a(Vmale
g8
tp1210
a(Vcharacter
g10
tp1211
a(Valso
g256
tp1212
a(Vquite
g38
tp1213
a(Vattractive
g8
tp1214
a(Vbut
g156
tp1215
a(Vask
g8
tp1216
a(Vsomeone
S'NN'
p1217
tp1218
a(Velse
g38
tp1219
a(Vcomment
g10
tp1220
a(Voverall
g8
tp1221
a(Vrecommend
g189
tp1222
a(Vmovie
g198
tp1223
a(Vnot
g273
tp1224
a(Vbuying
g16
tp1225
a(Vrenting
g16
tp1226
a(Veven
g38
tp1227
a(Vseeing
g16
tp1228
a(Vfree
g8
tp1229
aa(lp1230
(Vunfortunately
g38
tp1231
a(Vnot
g273
tp1232
a(Vworth
g8
tp1233
a(Veffort
S'NN'
p1234
tp1235
a(Vtake
g14
tp1236
a(Vsit
g10
tp1237
aaa(lp1238
(lp1239
(Vnine
S'CD'
p1240
tp1241
a(Vminute
g8
tp1242
a(Vpsychedelic
g8
tp1243
a(Vpulsating
g16
tp1244
a(Voften
S'RB'
p1245
tp1246
a(Vsymmetric
g8
tp1247
a(Vabstract
g8
tp1248
a(Vimage
S'NN'
p1249
tp1250
a(Venough
g8
tp1251
a(Vdrive
g10
tp1252
a(Vanyone
S'NN'
p1253
tp1254
a(Vcrazy
g10
tp1255
aa(lp1256
(Vspot
g10
tp1257
a(Vfull-frame
g8
tp1258
a(Veye
S'NN'
p1259
tp1260
a(Vstart
g10
tp1261
a(Vlater
g73
tp1262
a(Vbird
g10
tp1263
a(Vsilhouetted
g164
tp1264
a(Vagainst
g1117
tp1265
a(Vcolor
g10
tp1266
aa(lp1267
(S'not'
g273
tp1268
a(S'cup'
g8
tp1269
a(S'tea'
g10
tp1270
aa(lp1271
(V8
S'CD'
p1272
tp1273
a(Vminute
g10
tp1274
a(Vlong
g38
tp1275
aaa(lp1276
(lp1277
(Vart
g10
tp1278
a(Vfilm
g98
tp1279
a(Veither
g38
tp1280
a(Vmade
g29
tp1281
a(V1969
g205
tp1282
a(V1972
g205
tp1283
a(Vnational
S'JJ'
p1284
tp1285
a(Vfilm
g98
tp1286
a(Vpreservation
g10
tp1287
a(Vfoundation
g10
tp1288
a(Vsay
g189
tp1289
a(V1969
g205
tp1290
a(Vimdb
g287
tp1291
a(Vsay
g189
tp1292
a(V1972
g205
tp1293
aa(lp1294
(Vregardless
g38
tp1295
a(Vexact
g8
tp1296
a(Vdate
S'NN'
p1297
tp1298
a(Vfilm
g98
tp1299
a(Vdefinitely
g38
tp1300
a(Vappears
g908
tp1301
a(Vvery
g38
tp1302
a(Vindicative
g8
tp1303
a(Vgeneral
g8
tp1304
a(Vtime
g43
tp1305
a(Vperiod--with
g8
tp1306
a(Vcamera-work
g10
tp1307
a(Vpop
g10
tp1308
a(Vart
g10
tp1309
a(Vstylings
g287
tp1310
a(Vpure
g10
tp1311
a(Vlate
g8
tp1312
a(V60s-early
g8
tp1313
a(V70
S'CD'
p1314
tp1315
a(Vfilm
g98
tp1316
a(Vconsists
g287
tp1317
a(Vthree
g703
tp1318
a(Vsimple
g8
tp1319
a(Vimage
g1249
tp1320
a(Vdistorted
g29
tp1321
a(Vusing
S'VBG'
p1322
tp1323
a(Vdifferent
S'JJ'
p1324
tp1325
a(Vweird
g8
tp1326
a(Vcamera
g10
tp1327
a(Vtrick
g10
tp1328
aa(lp1329
(Vdistorted
g164
tp1330
a(Vimage
g1249
tp1331
a(Vaccompanied
g164
tp1332
a(Vmusic
S'NN'
p1333
tp1334
a(Vabsolutely
g38
tp1335
a(Vno
g45
tp1336
a(Vdialog
g10
tp1337
a(Vplot
g10
tp1338
a(Vsort
g10
tp1339
aa(lp1340
(S'obviously'
g38
tp1341
a(S'intended'
g164
tp1342
a(S'almost'
g148
tp1343
a(S'like'
g161
tp1344
a(S'form'
g10
tp1345
a(S'performance'
g247
tp1346
a(S'art'
g10
tp1347
a(S'like'
g161
tp1348
a(S'most'
g91
tp1349
a(S'performance'
g247
tp1350
a(S'art'
g10
tp1351
a(S'interesting'
g16
tp1352
a(S'first'
g8
tp1353
a(S'but'
g156
tp1354
a(S'quickly'
S'RB'
p1355
tp1356
a(S'becomes'
g146
tp1357
a(S'tiresome'
g8
tp1358
aa(lp1359
(Vfilm
g98
tp1360
a(Vput
g29
tp1361
a(Veven
g38
tp1362
a(Vbluntly
g38
tp1363
a(Vtotal
g8
tp1364
a(Vbore
g10
tp1365
a(Vwould
g61
tp1366
a(Vappeal
g14
tp1367
a(Vno
g45
tp1368
a(Vone
g10
tp1369
a(Vbut
g156
tp1370
a(Vperhaps
g988
tp1371
a(Vmade
g29
tp1372
a(Vfilm
g98
tp1373
a(Vfamily
g514
tp1374
a(Vfriend
g10
tp1375
a(Vperhaps
g988
tp1376
a(Vpeople
g260
tp1377
a(Vhip
g189
tp1378
a(Vunderstood
g8
tp1379
a(Vu
g8
tp1380
a(Vmortal
g10
tp1381
aaa(lp1382
(lp1383
(S'big'
S'JJ'
p1384
tp1385
a(S'fan'
g10
tp1386
a(S'arnold'
g29
tp1387
a(S'vosloo'
g10
tp1388
aa(lp1389
(Vfinally
S'RB'
p1390
tp1391
a(Vseeing
g16
tp1392
a(Vstar
g10
tp1393
a(Vrecent
S'JJ'
p1394
tp1395
a(Vmovie
g198
tp1396
a(Vnot
g273
tp1397
a(Vbit
g14
tp1398
a(Vpart
g252
tp1399
a(Vmade
g164
tp1400
a(Vhappy
g8
tp1401
a(Vunfortunately
g38
tp1402
a(Vtook
S'VBD'
p1403
tp1404
a(Vfilm
g98
tp1405
a(Vappreciation
g10
tp1406
a(Vcollege
S'NN'
p1407
tp1408
a(Vthing
g902
tp1409
a(Vsay
g189
tp1410
a(Vlike
g161
tp1411
a(Vfilm
g98
tp1412
a(Vmade
g164
tp1413
a(Vabandoned
g29
tp1414
a(Vpart
g252
tp1415
a(Vtown
S'NN'
p1416
tp1417
a(Vno
g45
tp1418
a(Vbackground
g10
tp1419
a(Vtraffic
S'NN'
p1420
tp1421
a(Vlookie
g10
tp1422
a(Vloo
g287
tp1423
a(Vsay
g189
tp1424
a(Vacting
g16
tp1425
a(Vleaf
g10
tp1426
a(Vsomething
S'NN'
p1427
tp1428
a(Vdesired
g164
tp1429
a(Vbut
g156
tp1430
a(Varnold
g8
tp1431
a(Vexcellent
g8
tp1432
a(Vactor
g10
tp1433
a(Vchalk
g10
tp1434
a(Vlousy
g8
tp1435
a(Vdirection
S'NN'
p1436
tp1437
a(Vsupporting
g16
tp1438
a(Vcast
g29
tp1439
a(Vleaf
g8
tp1440
a(Vsomething
g1427
tp1441
a(Vdesired
g164
tp1442
a(Vlove
g161
tp1443
a(Varnold
g10
tp1444
a(Vvosloo
g10
tp1445
a(Vmade
g29
tp1446
a(Vfilm
g98
tp1447
a(Vviewable
g8
tp1448
aa(lp1449
(Votherwise
g38
tp1450
a(Vwould
g61
tp1451
a(Vwritten
S'VBN'
p1452
tp1453
a(Vanother
g557
tp1454
a(Vlousy
g8
tp1455
a(Vfilm
g98
tp1456
a(Vfound
g29
tp1457
a(Vrape
g10
tp1458
a(Vscene
g10
tp1459
a(Vbrutal
g8
tp1460
a(Vunnecessary
g8
tp1461
a(Vbut
g156
tp1462
a(Vactor
g10
tp1463
a(Vgot
g29
tp1464
a(Vaway
g38
tp1465
a(Vend
g8
tp1466
a(Vpretty
g38
tp1467
a(Vgood
g8
tp1468
aa(lp1469
(Vbut
g156
tp1470
a(Vsound
g8
tp1471
a(Veffect
g295
tp1472
a(Vshoot-out
g10
tp1473
a(Vpretty
g10
tp1474
a(Vbad
g117
tp1475
aa(lp1476
(Vglitch
g10
tp1477
a(Vfilm
g98
tp1478
a(Vcontinuity
g10
tp1479
a(Vbut
g156
tp1480
a(Voverlookable
g8
tp1481
a(Vconsidering
S'VBG'
p1482
tp1483
a(Vlow-caliber
g8
tp1484
a(Vfilm
g98
tp1485
a(Venjoyed
g164
tp1486
a(Vfilm
g98
tp1487
a(Varnold
g10
tp1488
a(Vvosloo
g10
tp1489
a(Vjackie
g10
tp1490
aaa(lp1491
(lp1492
(Vrobert
g10
tp1493
a(Vdeniro
g10
tp1494
a(Vplay
g189
tp1495
a(Vmost
g899
tp1496
a(Vunbelievably
g8
tp1497
a(Vintelligent
g8
tp1498
a(Villiterate
g10
tp1499
a(Vtime
g43
tp1500
aa(lp1501
(S'movie'
g198
tp1502
a(S'wasteful'
g8
tp1503
a(S'talent'
g10
tp1504
a(S'truly'
g38
tp1505
a(S'disgusting'
g16
tp1506
aa(lp1507
(S'script'
g10
tp1508
a(S'unbelievable'
g8
tp1509
aa(lp1510
(S'dialog'
g10
tp1511
a(S'unbelievable'
g8
tp1512
aa(lp1513
(S'jane'
g10
tp1514
a(S'fonda'
g287
tp1515
a(S'character'
g189
tp1516
a(S'caricature'
g10
tp1517
a(S'not'
g273
tp1518
a(S'funny'
g8
tp1519
a(S'one'
g205
tp1520
aa(lp1521
(Vmovie
g198
tp1522
a(Vmove
g10
tp1523
a(Vsnail
g10
tp1524
a(Vpace
g588
tp1525
a(Vphotographed
g29
tp1526
a(Vill-advised
g8
tp1527
a(Vmanner
g10
tp1528
a(Vinsufferably
g38
tp1529
a(Vpreachy
g29
tp1530
aa(lp1531
(Valso
g256
tp1532
a(Vplug
g10
tp1533
a(Vevery
g150
tp1534
a(Vcliche
g10
tp1535
a(Vbook
S'NN'
p1536
tp1537
aa(lp1538
(Vswoozie
g10
tp1539
a(Vkurtz
g10
tp1540
a(Vexcellent
g8
tp1541
a(Vsupporting
g16
tp1542
a(Vrole
g793
tp1543
a(Vbut
g156
tp1544
a(Vequally
g38
tp1545
a(Vannoying
g16
tp1546
a(Vnew
g135
tp1547
a(Vimdb
g10
tp1548
a(Vrule
g10
tp1549
a(Vrequiring
g16
tp1550
a(Vten
g287
tp1551
a(Vline
g451
tp1552
a(Vevery
g150
tp1553
a(Vreview
g10
tp1554
aa(lp1555
(Vmovie
g198
tp1556
a(Vworthless
g10
tp1557
a(Vrequire
g189
tp1558
a(Vten
g8
tp1559
a(Vline
g451
tp1560
a(Vtext
g10
tp1561
a(Vlet
g10
tp1562
a(Vreader
g10
tp1563
a(Vknow
g14
tp1564
a(Vwaste
g10
tp1565
a(Vtime
g43
tp1566
a(Vtape
g10
tp1567
aa(lp1568
(S'avoid'
g8
tp1569
a(S'movie'
g198
tp1570
aaa(lp1571
(lp1572
(S'movie'
g198
tp1573
a(S'terrible'
g8
tp1574
aa(lp1575
(S'first'
g38
tp1576
a(S'read'
g14
tp1577
a(S'plot'
g10
tp1578
a(S'summary'
g8
tp1579
a(S'looked'
g29
tp1580
a(S'ok'
g8
tp1581
a(S'watched'
g29
tp1582
aa(lp1583
(S'acting'
g16
tp1584
a(S'terrible'
g8
tp1585
aa(lp1586
(S'like'
g161
tp1587
a(S'actor'
g10
tp1588
a(S'almost'
g148
tp1589
a(S'camera'
g10
tp1590
a(S'shy'
g10
tp1591
aa(lp1592
(S'everything'
g689
tp1593
a(S'seemed'
g29
tp1594
a(S'fake'
g8
tp1595
aa(lp1596
(Vfeel
g10
tp1597
a(Vbad
g117
tp1598
a(Vedward
g38
tp1599
a(Vfurlong
g8
tp1600
a(Vterminator
g10
tp1601
a(V2
S'CD'
p1602
tp1603
a(Vfavorite
g8
tp1604
a(Vyear
S'NN'
p1605
tp1606
a(Vago
g38
tp1607
aa(lp1608
(Vwatched
g164
tp1609
a(Vleast
g91
tp1610
a(V20
S'CD'
p1611
tp1612
a(Vtime
g43
tp1613
a(Vplot
g10
tp1614
a(Valso
g256
tp1615
a(Vcrap
g10
tp1616
aa(lp1617
(Vwriter
g10
tp1618
a(Vprobably
g983
tp1619
a(Vsleep
g8
tp1620
a(Vdeprived
g164
tp1621
a(Vcame
S'VBD'
p1622
tp1623
a(Vline
g451
tp1624
a(Vplus
S'CC'
p1625
tp1626
a(Vside
g10
tp1627
a(Vgood
g8
tp1628
a(Vkind
S'NN'
p1629
tp1630
a(Vbad
g117
tp1631
a(Vmovie
g198
tp1632
aa(lp1633
(Vone
g205
tp1634
a(Vkeep
g10
tp1635
a(Vwatching
g16
tp1636
a(Vsee
g14
tp1637
a(Vmuch
g8
tp1638
a(Vworst
g287
tp1639
a(Vcould
g120
tp1640
a(Vget
g14
tp1641
a(Vlater
g38
tp1642
a(Vtell
g189
tp1643
a(Vpeople
g260
tp1644
a(Vbelieve
g189
tp1645
a(Vterrible
g8
tp1646
a(Vmovie
g198
tp1647
a(Vthink
g189
tp1648
a(Veverybody
g10
tp1649
a(Vwatch
g10
tp1650
a(Vcould
g120
tp1651
a(Vappreciate
g14
tp1652
a(Vbetter
g250
tp1653
a(Vreal
S'JJ'
p1654
tp1655
a(Vmovie
g198
tp1656
aaa(lp1657
(lp1658
(Vturkish
g8
tp1659
a(Vactor
g10
tp1660
aa(lp1661
(Vno
g45
tp1662
a(Voffense
g10
tp1663
a(Vbut
g156
tp1664
a(Vthought
g29
tp1665
a(Vnothing
g368
tp1666
a(Vactor
g10
tp1667
aa(lp1668
(Vfilm
g98
tp1669
a(Vno
g45
tp1670
a(Vscript
g10
tp1671
a(Vtest
g10
tp1672
a(Vactor
g10
tp1673
a(Vacting
g16
tp1674
a(Vskill
g10
tp1675
a(Vability
S'NN'
p1676
tp1677
aa(lp1678
(S'demanded'
g164
tp1679
a(S'next'
g8
tp1680
a(S'nothing'
g368
tp1681
a(S'bought'
g29
tp1682
a(S'film'
g98
tp1683
a(S'see'
g10
tp1684
a(S'michael'
g10
tp1685
a(S'madsen'
g189
tp1686
aa(lp1687
(Vone
g205
tp1688
a(Vfavorite
g8
tp1689
a(Vactor
g10
tp1690
a(Vbut
g156
tp1691
a(Vfilm
g98
tp1692
a(Vanother
g557
tp1693
a(Vfailure
g10
tp1694
aa(lp1695
(S'script'
g10
tp1696
a(S'bad'
g117
tp1697
aa(lp1698
(Vnothing
g368
tp1699
a(Vsink
g10
tp1700
a(Vteeth
g189
tp1701
a(Vcharacter
g10
tp1702
a(Vtwo
g461
tp1703
a(Vdimensional
g8
tp1704
aa(lp1705
(Vmadsen
g287
tp1706
a(Vtried
g29
tp1707
a(Vact
g10
tp1708
a(Vlike
g14
tp1709
a(Vhard
g8
tp1710
a(Vas
g161
tp1711
a(Vbut
g156
tp1712
a(Vscript
g8
tp1713
a(Vdirection
g1436
tp1714
a(Veven
g38
tp1715
a(Vallow
g14
tp1716
a(Venough
g8
tp1717
a(Vcharacter
g10
tp1718
a(Vmake
g189
tp1719
a(Vinteresting
g8
tp1720
a(V3
g205
tp1721
a(Vdimensional
g8
tp1722
a(Veven
g38
tp1723
a(Vsound
g8
tp1724
a(Veffect
g295
tp1725
a(Vgunfight
g10
tp1726
a(Vbeginning
g16
tp1727
a(Vfilm
g98
tp1728
a(Vsounded
g29
tp1729
a(Vlike
g161
tp1730
a(Vnoise
g10
tp1731
a(Vpaint
g10
tp1732
a(Vball
g10
tp1733
a(Vgun
g10
tp1734
a(Vfired
g29
tp1735
a(Vskirmish
g8
tp1736
aa(lp1737
(Vreally
g241
tp1738
a(Vweird
g8
tp1739
a(Vsound
g10
tp1740
a(Vlike
g161
tp1741
a(Vreal
g1654
tp1742
a(Vgun
g10
tp1743
aa(lp1744
(Vvideo
g10
tp1745
a(Vgame
S'NN'
p1746
tp1747
a(Vbetter
g73
tp1748
a(Vsound
g8
tp1749
a(Veffect
g295
tp1750
a(Vfilm
g98
tp1751
aa(lp1752
(S'also'
g256
tp1753
a(S'really'
g241
tp1754
a(S'annoying'
g16
tp1755
a(S'bloke'
g10
tp1756
a(S'beginning'
g10
tp1757
a(S'film'
g98
tp1758
a(S'member'
S'NN'
p1759
tp1760
a(S'robbery'
g10
tp1761
a(S'gang'
g10
tp1762
aa(lp1763
(Vamerican
g8
tp1764
a(Vwhining
g16
tp1765
a(Vvoice
g10
tp1766
a(Vlike
g161
tp1767
a(Vgirl
g10
tp1768
a(Vshouting
g16
tp1769
a(Vline
g451
tp1770
a(Vlike
g161
tp1771
a(Vlet
g10
tp1772
a(Vget
g14
tp1773
a(Vf
g8
tp1774
a(Vk
g10
tp1775
a(Vgoing
g839
tp1776
a(Vman
g6
tp1777
aa(lp1778
(S'sounded'
g164
tp1779
a(S'like'
g161
tp1780
a(S'girl'
g10
tp1781
aa(lp1782
(S'positive'
S'JJ'
p1783
tp1784
a(S'funny'
g10
tp1785
a(S'watch'
g10
tp1786
a(S'made'
g29
tp1787
a(S'laugh'
g10
tp1788
aa(lp1789
(Vsecond
p1790
g8
tp1791
aa(lp1792
(S'whoo'
g10
tp1793
a(S'hoo'
g10
tp1794
aa(lp1795
(S'dumb'
g10
tp1796
a(S'film'
g98
tp1797
aa(lp1798
(S'poor'
g357
tp1799
a(S'madsen'
g287
tp1800
aa(lp1801
(S'bounce'
g10
tp1802
a(S'back'
g38
tp1803
aaa(lp1804
(lp1805
(Vsaw
g10
tp1806
a(Vdvd
g10
tp1807
a(Vfriend
g10
tp1808
a(Vhouse
g511
tp1809
a(Vthought
g29
tp1810
a(Vturkish
g8
tp1811
a(Vaction
g349
tp1812
a(Vmovie
g198
tp1813
a(Vhollywood-not
g8
tp1814
a(Vvery
g38
tp1815
a(Vbig-names
g287
tp1816
aa(lp1817
(S'interested'
g8
tp1818
a(S'enough'
g38
tp1819
a(S'decide'
g189
tp1820
a(S'give'
g14
tp1821
a(S'shot'
g10
tp1822
a(S'later'
g38
tp1823
aa(lp1824
(S'tough'
S'JJ'
p1825
tp1826
a(S'bear'
g10
tp1827
a(S'experience'
g10
tp1828
a(S'believe'
g189
tp1829
aa(lp1830
(Vfinally
g1390
tp1831
a(Vseeing
g16
tp1832
a(Vcredit
S'NN'
p1833
tp1834
a(Vroll
g10
tp1835
a(Vtought
g29
tp1836
a(Vturk
g287
tp1837
a(Vreally
g241
tp1838
a(Vsuck
g8
tp1839
a(Vhollywood
g10
tp1840
a(Vstyle
g1153
tp1841
a(Vfilm
g98
tp1842
a(Vmaking
g10
tp1843
aa(lp1844
(S'insult'
g10
tp1845
a(S'heist'
g10
tp1846
a(S'hostage'
g10
tp1847
a(S'movie'
g198
tp1848
a(S'genre'
g10
tp1849
a(S'but'
g156
tp1850
a(S'wait'
g10
tp1851
aa(lp1852
(Vchecked
g164
tp1853
a(Vname
g10
tp1854
a(Vno
g45
tp1855
a(Vnot
g273
tp1856
a(Vturkish
g8
tp1857
a(Vname
g10
tp1858
a(Vno
g45
tp1859
a(Vnot
g273
tp1860
a(Vturkish
g8
tp1861
a(Vmovie
g198
tp1862
a(Vcontrary
g8
tp1863
a(Vliterally
g38
tp1864
a(Vshot
g8
tp1865
a(Vamerica
g8
tp1866
a(Vamerican
g8
tp1867
a(Vdirector
g109
tp1868
a(Vcrew
g29
tp1869
aa(lp1870
(Vmade
g164
tp1871
a(Vthinking-again
g8
tp1872
a(V-
S':'
tp1873
a(Vearth
g10
tp1874
a(Vpersuade
g29
tp1875
a(Vname
g10
tp1876
a(Vlike
g161
tp1877
a(Vmicheal
g10
tp1878
a(Vmadsen
g427
tp1879
a(Vedward
g10
tp1880
a(Vfurlong
g38
tp1881
a(Veven
g38
tp1882
a(Varnold
g8
tp1883
a(Vvosloo
g287
tp1884
a(Vtake
g189
tp1885
a(Vpart
g252
tp1886
a(Vproject
g10
tp1887
aa(lp1888
(S'money'
g182
tp1889
a(S'probably'
g983
tp1890
a(S'kept'
g29
tp1891
a(S'thinking'
g16
tp1892
a(S'raise'
g10
tp1893
a(S'amount'
g10
tp1894
a(S'money'
g182
tp1895
a(S'offer'
g10
tp1896
a(S'supposedly'
g38
tp1897
a(S'international'
S'JJ'
p1898
tp1899
a(S'cast'
g10
tp1900
aa(lp1901
(S'meditation'
g10
tp1902
a(S'paid'
g29
tp1903
a(S'came'
g1622
tp1904
a(S'find'
g14
tp1905
a(S'answer'
g10
tp1906
a(S'hiring'
g16
tp1907
a(S'cheapest'
g91
tp1908
a(S'equipment'
S'NN'
p1909
tp1910
a(S'crew'
g10
tp1911
a(S'find'
g14
tp1912
aa(lp1913
(S'if'
g186
tp1914
a(S'still'
g709
tp1915
a(S'difficulty'
g10
tp1916
a(S'adjustin'
g8
tp1917
a(S'budget'
S'NN'
p1918
tp1919
a(S'writing'
g16
tp1920
a(S'directing'
g16
tp1921
a(S'movie'
g198
tp1922
a(S'trying'
S'VBG'
p1923
tp1924
a(S'produce-or'
g8
tp1925
a(S'vice'
S'NN'
p1926
tp1927
a(S'versa'
g10
tp1928
a(S'information'
g193
tp1929
a(S'that-'
g10
tp1930
aa(lp1931
(S'bottom'
g10
tp1932
a(S'line'
g451
tp1933
a(S'not'
g273
tp1934
a(S'bad'
g117
tp1935
a(S'movie'
g198
tp1936
a(S'everybody'
g10
tp1937
a(S'anxious'
g8
tp1938
a(S'present'
g10
tp1939
aa(lp1940
(Vmake
g14
tp1941
a(Vthink
g10
tp1942
a(V-in
g660
tp1943
a(Vcase
g1144
tp1944
a(Veven
g38
tp1945
a(Vmeditate-
g8
tp1946
a(Vlot
g10
tp1947
a(Vmovie
g198
tp1948
a(Voutthere
g38
tp1949
a(Vgive
g14
tp1950
a(Veven
g38
tp1951
a(Vaffect
g14
tp1952
aa(lp1953
(Vone
g205
tp1954
a(Vleast
g91
tp1955
a(Vmake
g14
tp1956
a(Vthink
g8
tp1957
a(Vmake
g14
tp1958
a(Vwonder
g10
tp1959
aa(lp1960
(Vleaf
g8
tp1961
a(Vdisbelief
g10
tp1962
a(Vmake
g10
tp1963
a(Vwonder
g10
tp1964
aaa(lp1965
(lp1966
(S'rented'
g164
tp1967
a(S'one'
g205
tp1968
a(S'dvd'
g10
tp1969
a(S'without'
S'IN'
p1970
tp1971
a(S'prior'
g8
tp1972
a(S'knowledge'
g10
tp1973
aa(lp1974
(Vsuspicious
g8
tp1975
a(Vseeing
g16
tp1976
a(Vmichael
g10
tp1977
a(Vmadsen
g10
tp1978
a(Vappearing
g16
tp1979
a(Vmovie
g198
tp1980
a(Vnever
g601
tp1981
a(Vheard
g38
tp1982
a(Vbut
g156
tp1983
a(Vfreebie
S'MD'
p1984
tp1985
a(Vnot
g273
tp1986
a(Vcheck
g14
tp1987
a(Vwell
g38
tp1988
a(Vguess
g8
tp1989
a(Vmr
g10
tp1990
a(Vblonde
g10
tp1991
a(Vwould
g61
tp1992
a(Vvery
g38
tp1993
a(Vmuch
g38
tp1994
a(Vlike
g161
tp1995
a(Vforget
g10
tp1996
a(Vever
g129
tp1997
a(Vtaken
S'VBN'
p1998
tp1999
a(Vpart
g252
tp2000
a(Vshame
g10
tp2001
a(Vfilm
g98
tp2002
a(Vapparently
g196
tp2003
a(Vif
g186
tp2004
a(Vscript
g8
tp2005
a(Vdialog
g10
tp2006
a(Vterrible
g8
tp2007
a(Veven
g38
tp2008
a(Vgood
g8
tp2009
a(Vactor
g10
tp2010
a(Vcannot
g287
tp2011
a(Vsave
g189
tp2012
a(Vday
g705
tp2013
aa(lp2014
(Vnot
g273
tp2015
a(Vmention
g10
tp2016
a(Vamateur
g10
tp2017
a(Vactor
g10
tp2018
a(Vflood
g10
tp2019
a(Vfilm
g98
tp2020
aa(lp2021
(Vmany
g285
tp2022
a(Vnon-native-english-speakers
g287
tp2023
a(Vplay
g189
tp2024
a(Vpart
g252
tp2025
a(Vnative-english-speakers
g287
tp2026
a(Vreading
g16
tp2027
a(Vline
g451
tp2028
a(Vscript
g10
tp2029
a(Vthrown
g14
tp2030
a(Vaway
g38
tp2031
a(Vnot
g273
tp2032
a(Vmade
g164
tp2033
a(Vmovie
g198
tp2034
aa(lp2035
(Vunbelievable
g8
tp2036
a(Vunbelievable
g8
tp2037
a(Vline
g451
tp2038
a(Vmovie
g198
tp2039
a(Vsound
g10
tp2040
aa(lp2041
(Vmusic
g1333
tp2042
a(Vawful
g146
tp2043
a(Vtotally
g38
tp2044
a(Vplace
g8
tp2045
a(Vwhole
g8
tp2046
a(Vthing
g902
tp2047
a(Vlook
g10
tp2048
a(Vsound
g189
tp2049
a(Vlike
g161
tp2050
a(Vpoor
g357
tp2051
a(Vschool
g1017
tp2052
a(Vplay
g189
tp2053
a(Vrecommend
g10
tp2054
a(Vwatch
g10
tp2055
a(Vwould
g61
tp2056
a(Vappreciate
g14
tp2057
a(Vbetter
g250
tp2058
a(Vmovie
g198
tp2059
aa(lp2060
(S'gave'
g580
tp2061
a(S'3'
g205
tp2062
a(S'instead'
S'RB'
p2063
tp2064
a(S'1'
S'CD'
p2065
tp2066
a(S'deserves'
g287
tp2067
aaa(lp2068
(lp2069
(S'congratulate'
g8
tp2070
a(S'genius'
g10
tp2071
a(S'approved'
g29
tp2072
a(S'one'
g205
tp2073
aa(lp2074
(Vedward
g38
tp2075
a(Vfurlong
g38
tp2076
a(Vnot
g273
tp2077
a(Vgood
g8
tp2078
a(Vthink
g10
tp2079
a(Vmate
g10
tp2080
a(Vgrab
g10
tp2081
a(Vevery
g150
tp2082
a(Vpiece
g10
tp2083
a(Vlow-cost
g8
tp2084
a(Vamateur
g8
tp2085
a(Vcrap
g10
tp2086
a(Vsole
g10
tp2087
a(Vintention
g10
tp2088
a(Vget
g14
tp2089
a(Vbuck
g8
tp2090
a(Vfilming
g16
tp2091
a(Vbad
g117
tp2092
a(Vmean
g10
tp2093
a(Vbad
g117
tp2094
aa(lp2095
(Vanyone
g1253
tp2096
a(Vcamera
g10
tp2097
a(Vwould
g61
tp2098
a(Vget
g14
tp2099
a(Vresult
g14
tp2100
a(Vbetter
g250
tp2101
a(Vacting
g16
tp2102
a(Vlet
g14
tp2103
a(Vsay
g14
tp2104
a(Vgo
g14
tp2105
a(Vsupermarket
g10
tp2106
a(Vlooking
S'VBG'
p2107
tp2108
a(Vactor
g10
tp2109
aa(lp2110
(Vgood
g8
tp2111
a(Vone
g205
tp2112
a(Vusually
S'RB'
p2113
tp2114
a(Vcome
g189
tp2115
a(Vdegree
g8
tp2116
a(Vleast
g91
tp2117
a(Vdamn
g10
tp2118
a(Vexperience
g10
tp2119
aa(lp2120
(S'director'
g109
tp2121
a(S'mr'
g10
tp2122
a(S'jon'
g10
tp2123
a(S'keeyes'
g287
tp2124
a(S'please'
g189
tp2125
a(S'find'
g14
tp2126
a(S'purpose'
g8
tp2127
a(S'life'
g594
tp2128
a(S'director'
g109
tp2129
a(S'simply'
S'RB'
p2130
tp2131
a(S'suck'
g29
tp2132
aa(lp2133
(Vdirecting
g16
tp2134
a(Vpoor
g357
tp2135
a(Vangle
g287
tp2136
a(Vmessed
g29
tp2137
a(Vnot
g273
tp2138
a(Vgood
g8
tp2139
a(Vway
g418
tp2140
a(Vline
g451
tp2141
a(Vseem
g189
tp2142
a(Vif
g186
tp2143
a(Vread
g8
tp2144
a(Vtoilet
g10
tp2145
a(Vpaper
S'NN'
p2146
tp2147
a(Vdamn
g10
tp2148
a(Vmusic
g1333
tp2149
a(Valways
S'RB'
p2150
tp2151
a(Vcome
g164
tp2152
a(Vgo
g189
tp2153
a(Vno
g45
tp2154
a(Vapparent
g8
tp2155
a(Vreason
g382
tp2156
aa(lp2157
(S'go'
g14
tp2158
a(S'writer'
g10
tp2159
a(S'either'
g45
tp2160
a(S'way'
g418
tp2161
aa(lp2162
(Vmaking
g16
tp2163
a(Vmovie
g198
tp2164
a(Vlike
g161
tp2165
a(Vserving
g16
tp2166
a(Vcoffeshop
g10
tp2167
a(Vrequires
S'VBZ'
p2168
tp2169
a(Vart
g38
tp2170
a(Vskill
g8
tp2171
a(Vthing
g902
tp2172
a(Vreally
g241
tp2173
a(Vdoubt
g14
tp2174
a(Vever
g129
tp2175
a(Vinstead
g2063
tp2176
a(Vmaking
g16
tp2177
a(Vbadass
g10
tp2178
a(Vshootout
g10
tp2179
a(Vmovie
g198
tp2180
a(Vshot
g10
tp2181
a(Vone
g205
tp2182
a(Vback
g10
tp2183
a(Voblivion
g10
tp2184
a(Vwait
g10
tp2185
a(Vtill
g161
tp2186
a(Vsomething
g1427
tp2187
a(Vgood
g8
tp2188
a(Vcame
g1622
tp2189
a(Vgo
g14
tp2190
a(Vfind
g8
tp2191
a(Vjob
S'NN'
p2192
tp2193
a(Vcoffeshop
g10
tp2194
aa(lp2195
(Vle
g8
tp2196
a(Vstress
g10
tp2197
a(Vsave
g189
tp2198
a(Vmovie
g198
tp2199
a(Vgoer
g10
tp2200
a(Vmoney
g182
tp2201
a(Vbad
g117
tp2202
a(Vnight
g790
tp2203
a(Vvote
g10
tp2204
a(V1
g2065
tp2205
a(V10
S'CD'
p2206
tp2207
a(Vfirst
g8
tp2208
a(Vone
g205
tp2209
aaa(lp2210
(lp2211
(S'sometimes'
g38
tp2212
a(S'movie'
g198
tp2213
a(S'comprehensively'
g38
tp2214
a(S'awful'
g8
tp2215
a(S'destructive'
g8
tp2216
a(S'effect'
g295
tp2217
a(S'morale'
g10
tp2218
aa(lp2219
(S'begin'
g14
tp2220
a(S'really'
g241
tp2221
a(S'ask'
g8
tp2222
a(S'mean'
g8
tp2223
a(S'society'
g10
tp2224
a(S'standard'
g10
tp2225
a(S'terribly'
g38
tp2226
a(S'low'
g8
tp2227
aa(lp2228
(Vhonestly
g38
tp2229
a(Vexpect
g189
tp2230
a(Vendure
g10
tp2231
a(Vmany
g285
tp2232
a(Vclich
g287
tp2233
a(Vstill
g709
tp2234
a(Ventertained
g29
tp2235
a(Vcourse
g627
tp2236
a(Vstill
g709
tp2237
a(Vhollywood
g29
tp2238
a(Vmainstay
g287
tp2239
a(Vmake
g189
tp2240
a(Vgun
g10
tp2241
a(Vmajor
S'JJ'
p2242
tp2243
a(Vcharacter
g10
tp2244
a(Vplot
g10
tp2245
a(Vdevice
g10
tp2246
a(Vsource
S'NN'
p2247
tp2248
a(Vconflict
g10
tp2249
a(Vresolution
g10
tp2250
a(Vfilm
g98
tp2251
aa(lp2252
(Vcharacter
g10
tp2253
a(Vneed
g1984
tp2254
a(Vgun
g14
tp2255
aa(lp2256
(Vget
g14
tp2257
a(Vgun
g10
tp2258
aa(lp2259
(S'gun'
p2260
g10
tp2261
aa(lp2262
(Vput
g14
tp2263
a(Vgun
g10
tp2264
a(Vfirst
g38
tp2265
aa(lp2266
(S'oh'
S'UH'
p2267
tp2268
a(S'god'
g10
tp2269
a(S'going'
g839
tp2270
aa(lp2271
(S'gun'
p2272
g10
tp2273
aa(lp2274
(Vwave
g10
tp2275
a(Varound
S'RP'
p2276
tp2277
a(Vacting
g16
tp2278
a(Vmalicious
g8
tp2279
a(Vreal
g1654
tp2280
a(Vhuman
g10
tp2281
a(Vbeing
S'VBG'
p2282
tp2283
a(Vever
g129
tp2284
aa(lp2285
(Vpush
g10
tp2286
a(Vsomeone
g1217
tp2287
a(Vface
g10
tp2288
a(V90
S'CD'
p2289
tp2290
a(Vminute
g10
tp2291
a(Vshouting
g16
tp2292
a(Vquestion
g10
tp2293
aa(lp2294
(Vhallmark
g10
tp2295
a(Vconclusion
g10
tp2296
a(Vcomforting
g16
tp2297
a(Vsound
g8
tp2298
a(Vpolice
g287
tp2299
a(Vsiren
g287
tp2300
aa(lp2301
(S'real'
g1654
tp2302
a(S'challenge'
g10
tp2303
a(S'make'
g189
tp2304
a(S'tired'
g164
tp2305
a(S'hackneyed'
g8
tp2306
a(S'formula'
g10
tp2307
a(S'work'
g10
tp2308
a(S'film'
g98
tp2309
a(S'very'
g38
tp2310
a(S'clever'
g38
tp2311
a(S'well'
g38
tp2312
a(S'executed'
g164
tp2313
aa(lp2314
(S'one'
g205
tp2315
a(S'neither'
g10
tp2316
aa(lp2317
(Vno
g45
tp2318
a(Vlife
g594
tp2319
a(Vno
g45
tp2320
a(Vpersonality
g10
tp2321
a(Vsuck
g29
tp2322
a(Vcomponent
g10
tp2323
aa(lp2324
(S'make'
g14
tp2325
a(S'feel'
g10
tp2326
a(S'worse'
g161
tp2327
a(S'living'
g10
tp2328
a(S'time'
g43
tp2329
a(S'space'
S'NN'
p2330
tp2331
aa(lp2332
(Vreally
g241
tp2333
a(Vneed
g14
tp2334
aa(lp2335
(S'yes'
g287
tp2336
a(S'say'
g189
tp2337
a(S'think'
g10
tp2338
a(S'may'
S'MD'
p2339
tp2340
a(S'well'
g38
tp2341
a(S'worst'
g14
tp2342
a(S'film'
g98
tp2343
a(S'ever'
g129
tp2344
a(S'seen'
g93
tp2345
aa(lp2346
(Vanyone
g1253
tp2347
a(Vinvolved
g164
tp2348
a(Vmaking
g16
tp2349
a(Vsub-
g8
tp2350
a(Vmediocre
g8
tp2351
a(Vsoul
g10
tp2352
a(Vkilling
g16
tp2353
a(Vtrash
g10
tp2354
a(Vpublicly
S'RB'
p2355
tp2356
a(Vembarrassed
g8
tp2357
a(Vdisservice
g10
tp2358
a(Vdone
g526
tp2359
a(Vu
g10
tp2360
aaa(lp2361
(lp2362
(S'saw'
g10
tp2363
a(S'capsule'
g10
tp2364
a(S'comment'
g10
tp2365
a(S'said'
g375
tp2366
a(S'great'
g81
tp2367
a(S'acting'
g10
tp2368
aa(lp2369
(Vopinion
S'NN'
p2370
tp2371
a(Vtwo
g461
tp2372
a(Vgreat
g81
tp2373
a(Vactor
g10
tp2374
a(Vgiving
S'VBG'
p2375
tp2376
a(Vhorrible
g8
tp2377
a(Vperformance
g247
tp2378
a(Vzero
g205
tp2379
a(Vchemistry
g10
tp2380
a(Vone
g205
tp2381
a(Vanother
g557
tp2382
a(Vgreat
g81
tp2383
a(Vdirector
g109
tp2384
a(Vall-time
g8
tp2385
a(Vworst
g8
tp2386
a(Veffort
g1234
tp2387
aa(lp2388
(S'robert'
g10
tp2389
a(S'de'
g161
tp2390
a(S'niro'
g427
tp2391
a(S'most'
g91
tp2392
a(S'ingenious'
g8
tp2393
a(S'insightful'
g8
tp2394
a(S'illiterate'
g10
tp2395
a(S'time'
g43
tp2396
aa(lp2397
(Vjane
g10
tp2398
a(Vfonda
g10
tp2399
a(Vperformance
g247
tp2400
a(Vuncomfortably
g38
tp2401
a(Vdrift
g146
tp2402
a(Vmap
g287
tp2403
a(Vclearly
g132
tp2404
a(Vno
g45
tp2405
a(Vhandle
g8
tp2406
a(Vcharacter
g10
tp2407
a(Vmostly
S'RB'
p2408
tp2409
a(Vcharacter
g8
tp2410
a(Vpoorly
g38
tp2411
a(Vwritten
g1452
tp2412
aa(lp2413
(S'molasses-like'
g10
tp2414
a(S'would'
g61
tp2415
a(S'swift'
g14
tp2416
a(S'adjective'
g8
tp2417
a(S'film'
g98
tp2418
a(S'excruciating'
g16
tp2419
a(S'pacing'
g10
tp2420
aa(lp2421
(S'although'
S'IN'
p2422
tp2423
a(S'film'
g98
tp2424
a(S'intent'
g10
tp2425
a(S'uplifting'
g16
tp2426
a(S'story'
g4
tp2427
a(S'curing'
g16
tp2428
a(S'illiteracy'
g10
tp2429
a(S'watching'
g16
tp2430
a(S'true'
S'JJ'
p2431
tp2432
a(S'bummer'
g10
tp2433
aa(lp2434
(Vgive
g14
tp2435
a(V1
g2065
tp2436
a(V10
g2206
tp2437
a(Vtruly
g38
tp2438
a(Vone
g205
tp2439
a(Vworst
g91
tp2440
a(V20
g1611
tp2441
a(Vmovie
g198
tp2442
a(Vbudget
g1918
tp2443
a(Vlevel
g10
tp2444
a(Vever
g129
tp2445
a(Vseen
g93
tp2446
aaa(lp2447
(lp2448
(S'if'
g186
tp2449
a(S'not'
g273
tp2450
a(S'read'
g14
tp2451
a(S'pat'
g10
tp2452
a(S'barker'
g10
tp2453
a(S'union'
S'NN'
p2454
tp2455
a(S'street'
g10
tp2456
a(S'seeing'
g16
tp2457
a(S'film'
g98
tp2458
a(S'would'
g61
tp2459
a(S'liked'
g14
tp2460
aa(lp2461
(S'unfortuntately'
g38
tp2462
a(S'not'
g273
tp2463
a(S'case'
g1144
tp2464
aa(lp2465
(Vactually
g914
tp2466
a(Vkind
g1629
tp2467
a(Vfilm
g98
tp2468
a(Vwell
g38
tp2469
a(Vmade
g29
tp2470
a(Vno
g45
tp2471
a(Vway
g418
tp2472
a(Vwant
g189
tp2473
a(Vsay
g189
tp2474
a(Votherwise
g38
tp2475
a(Vbut
g156
tp2476
a(Vadaptation
g10
tp2477
a(Vfails
g146
tp2478
a(Vevery
g150
tp2479
a(Vangle
g10
tp2480
a(Vharrowing
g16
tp2481
a(Vnovel
g8
tp2482
a(Vreality
g10
tp2483
a(Vliving
g16
tp2484
a(Vnorthern
g8
tp2485
a(Vengland
g8
tp2486
a(Vworking-class
g8
tp2487
a(Varea
S'NN'
p2488
tp2489
a(Vgrabbed
g29
tp2490
a(Vhold
g8
tp2491
a(Vheartstrings
g287
tp2492
a(Vrefused
g29
tp2493
a(Vlet
g10
tp2494
a(Vgo
g14
tp2495
a(Vweek
S'NN'
p2496
tp2497
a(Vfinished
g164
tp2498
aa(lp2499
(Vput
g164
tp2500
a(Vtear
g8
tp2501
a(Vrepulsion
g10
tp2502
a(Vshock
g10
tp2503
a(Vanger
g10
tp2504
a(Vsympathy
g8
tp2505
a(Vmisery
g10
tp2506
a(Vreading
g16
tp2507
a(Vwoman
g620
tp2508
a(Vunion
g2454
tp2509
a(Vstreet
g10
tp2510
aa(lp2511
(S'excellent'
p2512
g10
tp2513
aa(lp2514
(Vnovel
g8
tp2515
a(Vtime
g43
tp2516
a(Vfelt
g287
tp2517
a(Vcould
g120
tp2518
a(Vnot
g273
tp2519
a(Vread
g14
tp2520
a(Vbut
g156
tp2521
a(Vnovel
g8
tp2522
a(Vsimply
g2130
tp2523
a(Vput
g29
tp2524
aa(lp2525
(S'depressing'
g16
tp2526
a(S'yes'
g287
tp2527
a(S'but'
g156
tp2528
a(S'utterly'
g8
tp2529
a(S'gripping'
g10
tp2530
a(S'film'
g98
tp2531
aa(lp2532
(S'oh'
g2267
tp2533
a(S'dear'
g10
tp2534
aa(lp2535
(S'hollywood'
g10
tp2536
a(S'took'
g1403
tp2537
a(S'barker'
g10
tp2538
a(S'truth'
g10
tp2539
a(S'reality'
g10
tp2540
a(S'showered'
g29
tp2541
a(S'layer'
g8
tp2542
a(S'sweet'
g8
tp2543
a(S'icing'
g16
tp2544
a(S'sugar'
g10
tp2545
a(S'top'
g10
tp2546
aa(lp2547
(Vbeautiful
g8
tp2548
a(Vfilm
g98
tp2549
a(Vinspiring
g16
tp2550
a(Vsoundtrack
g8
tp2551
a(Vexcellent
g8
tp2552
a(Vperformance
g247
tp2553
a(Vtale
g10
tp2554
a(Vhope
g189
tp2555
a(Vromance
g10
tp2556
a(Vyes
g287
tp2557
aa(lp2558
(Vadaptation
g10
tp2559
a(Vunion
g2454
tp2560
a(Vstreet
g10
tp2561
a(Vno
g45
tp2562
a(Vwoman
g620
tp2563
a(Vunion
g2454
tp2564
a(Vstreet
g10
tp2565
a(Vstory
g4
tp2566
a(Vcondensed
g164
tp2567
a(Vfonda
g8
tp2568
a(Vcharacter
g10
tp2569
a(Vstory
g4
tp2570
a(Vtouched
g29
tp2571
a(Vbut
g156
tp2572
a(Vmany
g285
tp2573
a(Vdiscarded
g29
tp2574
aa(lp2575
(Vaccept
g8
tp2576
a(Vbarker
g10
tp2577
a(Vtale
g10
tp2578
a(Vsensitive
g8
tp2579
a(Vissue
g10
tp2580
a(Vhorrific
g8
tp2581
a(Vmass
g10
tp2582
a(Vviewing
g10
tp2583
a(Vfilm
g98
tp2584
a(Varound
g161
tp2585
a(V7
S'CD'
p2586
tp2587
a(Vleading
g16
tp2588
a(Vprotagonist
g8
tp2589
a(Vpractical
g8
tp2590
a(Vbut
g156
tp2591
a(Vcontent
g8
tp2592
a(Vnot
g273
tp2593
a(Vmain
g1166
tp2594
a(Vissue
g10
tp2595
aa(lp2596
(Vessence
g10
tp2597
a(Vreal
g1654
tp2598
a(Vgut
g10
tp2599
a(Vnovel
g10
tp2600
a(Vlost
g29
tp2601
a(V-
S':'
tp2602
a(Vdarkness
g10
tp2603
a(Vrain
g10
tp2604
a(Vbroken
g8
tp2605
a(Vwindow
g10
tp2606
a(Vcovered
g29
tp2607
a(Vcardboard
g38
tp2608
a(Vgraphically
g38
tp2609
a(Vdescribed
g164
tp2610
a(Vstench
g8
tp2611
a(Vpoverty
g10
tp2612
a(Vreplaced
g29
tp2613
a(Vsunshine
g8
tp2614
a(Vpretty
g38
tp2615
a(Vhouse
g511
tp2616
a(Vtwinkling
g16
tp2617
a(Vwilliam
S'WP'
p2618
tp2619
a(Vscore
g10
tp2620
a(Vif
g186
tp2621
a(Venjoyed
g164
tp2622
a(Vfilm
g98
tp2623
a(Vpositivity
g10
tp2624
a(Vhope
g189
tp2625
a(Vface
g10
tp2626
a(Vreality
g10
tp2627
a(Vadvise
g189
tp2628
a(Vhesitate
g10
tp2629
a(Vread
g164
tp2630
a(Vbook
g1536
tp2631
a(Vwithout
g1970
tp2632
a(Vfirst
g8
tp2633
a(Vpreparing
g16
tp2634
a(Vsomething
g1427
tp2635
a(Vlike
g161
tp2636
a(Vschindler
g8
tp2637
a(Vlist
g10
tp2638
a(Vbut
g156
tp2639
a(Vwithout
g1970
tp2640
a(Vhappy
g8
tp2641
a(Vending
g607
tp2642
aaa(lp2643
(lp2644
(Vfanciful
g8
tp2645
a(Vhorror
g10
tp2646
a(Vflick
g8
tp2647
a(Vvincent
g10
tp2648
a(Vprice
g610
tp2649
a(Vplaying
g16
tp2650
a(Vmad
g8
tp2651
a(Vmagician
g8
tp2652
a(Vrealizes
g146
tp2653
a(Vvocational
g8
tp2654
a(Vtalent
g10
tp2655
a(Vsold
g29
tp2656
a(Vanother
g557
tp2657
aa(lp2658
(Vdevise
g14
tp2659
a(Vway
g418
tp2660
a(Vavenging
g16
tp2661
a(Vwronged
g29
tp2662
aa(lp2663
(Vmaster
g10
tp2664
a(Vscheme
g10
tp2665
a(Vseems
g1044
tp2666
a(Vback
g38
tp2667
a(Vfire
g8
tp2668
a(Vprice
g610
tp2669
a(Vlittle
g8
tp2670
a(Vpar
g10
tp2671
a(Vcompared
S'VBN'
p2672
tp2673
a(Vmasterpiece
g10
tp2674
a(Vbut
g156
tp2675
a(Vstill
g709
tp2676
a(Vreason
g382
tp2677
a(Vwatch
g10
tp2678
a(Vthriller
g10
tp2679
aa(lp2680
(S'supporting'
g16
tp2681
a(S'cast'
g10
tp2682
a(S'includes'
S'VBZ'
p2683
tp2684
a(S'patrick'
g8
tp2685
a(S'neal'
g10
tp2686
a(S'mary'
g8
tp2687
a(S'murphy'
g10
tp2688
a(S'eva'
g10
tp2689
a(S'gabor'
g10
tp2690
a(S'jay'
g10
tp2691
a(S'novello'
g10
tp2692
aaa(lp2693
(lp2694
(S'basically'
g38
tp2695
a(S'skimmed'
g8
tp2696
a(S'movie'
g198
tp2697
a(S'but'
g156
tp2698
a(S'enough'
g8
tp2699
a(S'catch'
g10
tp2700
a(S'watch'
g10
tp2701
a(S'plot'
g10
tp2702
aa(lp2703
(Vtell
g14
tp2704
a(Vtruth
g10
tp2705
a(Vkind
g1629
tp2706
a(Vboring
g8
tp2707
a(Vspot
g10
tp2708
a(Vmake
g189
tp2709
a(Vsense
g10
tp2710
aa(lp2711
(S'reason'
g382
tp2712
a(S'watched'
g29
tp2713
a(S'movie'
g198
tp2714
a(S'first'
g8
tp2715
a(S'place'
g10
tp2716
a(S'see'
g189
tp2717
a(S'chace'
g10
tp2718
a(S'crawford'
g10
tp2719
aa(lp2720
(S'hot'
g8
tp2721
a(S'but'
g156
tp2722
a(S'movie'
g198
tp2723
a(S'hair'
g10
tp2724
a(S'kind'
g1629
tp2725
a(S'weird'
g10
tp2726
aa(lp2727
(S'but'
g156
tp2728
a(S'still'
g709
tp2729
a(S'hot'
g8
tp2730
a(S'however'
g106
tp2731
a(S'despite'
g1155
tp2732
a(S'hot'
g8
tp2733
a(S'chace'
g10
tp2734
a(S'really'
g241
tp2735
a(S'not'
g273
tp2736
a(S'make'
g14
tp2737
a(S'film'
g98
tp2738
aa(lp2739
(S'guess'
g10
tp2740
a(S'plot'
g10
tp2741
a(S'bad'
g117
tp2742
a(S'but'
g156
tp2743
a(S'really'
g241
tp2744
a(S'threw'
g8
tp2745
a(S'fact'
g386
tp2746
a(S'cuss'
g287
tp2747
a(S'like'
g161
tp2748
a(S'every'
g150
tp2749
a(S'sentence'
g10
tp2750
aa(lp2751
(S'hard'
g38
tp2752
a(S'express'
g10
tp2753
a(S'anger'
g10
tp2754
a(S'without'
g1970
tp2755
a(S'saying'
g16
tp2756
a(S'f'
g10
tp2757
a(S'word'
S'NN'
p2758
tp2759
a(S'every'
g150
tp2760
a(S'time'
g43
tp2761
a(S'cussing'
g16
tp2762
a(S'annoying'
g16
tp2763
a(S'whole'
g8
tp2764
a(S'flashy'
g8
tp2765
a(S'camera'
g10
tp2766
a(S'shaking'
g16
tp2767
a(S'thing'
g902
tp2768
a(S'gave'
g580
tp2769
a(S'headache'
g10
tp2770
a(S'although'
g2422
tp2771
a(S'plot'
g10
tp2772
a(S'ok'
g10
tp2773
a(S'found'
g29
tp2774
a(S'film'
g98
tp2775
a(S'bore'
g73
tp2776
a(S'dramatic'
g8
tp2777
aa(lp2778
(Vcut
g164
tp2779
a(Vscene
g10
tp2780
a(Vchace
g10
tp2781
aa(lp2782
(S'lol'
g10
tp2783
a(S'anyways'
g146
tp2784
a(S'not'
g273
tp2785
a(S'worth'
g8
tp2786
a(S'renting'
g16
tp2787
a(S'unless'
S'IN'
p2788
tp2789
a(S'die-hard'
g8
tp2790
a(S'fan'
g10
tp2791
a(S'specific'
g8
tp2792
a(S'cast'
g8
tp2793
a(S'member'
g1759
tp2794
a(S'like'
g161
tp2795
aa(lp2796
(S'oh'
g2267
tp2797
a(S'yeah'
g2267
tp2798
a(S'cast'
g10
tp2799
a(S'hot'
g8
tp2800
aa(lp2801
(Vgirl
g10
tp2802
a(Vhot
g8
tp2803
aa(lp2804
(S'but'
g156
tp2805
a(S'chace'
g10
tp2806
a(S'best'
g91
tp2807
aa(lp2808
aa(lp2809
(lp2810
(Vbeginning
g16
tp2811
a(Vmovie
g198
tp2812
a(Vgive
g8
tp2813
a(Vfeeling
g10
tp2814
a(Vdirector
g109
tp2815
a(Vtrying
g1923
tp2816
a(Vportray
g10
tp2817
a(Vsomething
g1427
tp2818
a(Vmean
g8
tp2819
a(Vsay
g189
tp2820
a(Vinstead
g2063
tp2821
a(Vstory
g4
tp2822
a(Vdictating
g16
tp2823
a(Vstyle
g1153
tp2824
a(Vmovie
g198
tp2825
a(Vmade
g29
tp2826
a(Vgone
S'VBN'
p2827
tp2828
a(Vopposite
g8
tp2829
a(Vway
g418
tp2830
a(Vtype
g8
tp2831
a(Vmove
g10
tp2832
a(Vwanted
g29
tp2833
a(Vmake
g8
tp2834
a(Vwrote
S'VBD'
p2835
tp2836
a(Vstory
g4
tp2837
a(Vsuite
g10
tp2838
aa(lp2839
(S'failed'
g8
tp2840
a(S'very'
g38
tp2841
a(S'badly'
g38
tp2842
aa(lp2843
(S'guess'
g10
tp2844
a(S'trying'
g1923
tp2845
a(S'make'
g14
tp2846
a(S'stylish'
g8
tp2847
a(S'movie'
g198
tp2848
aa(lp2849
(S'way'
g418
tp2850
a(S'think'
g189
tp2851
a(S'movie'
g198
tp2852
a(S'total'
g8
tp2853
a(S'waste'
g10
tp2854
a(S'time'
g43
tp2855
a(S'effort'
g1234
tp2856
aa(lp2857
(Vcredit
g1833
tp2858
a(Vdirector
g109
tp2859
a(Vknow
g189
tp2860
a(Vmedium
g10
tp2861
a(Vworking
g16
tp2862
a(Vtrying
g1923
tp2863
a(Vsay
g189
tp2864
a(Vseen
g93
tp2865
a(Vworst
g91
tp2866
a(Vmovie
g198
tp2867
aa(lp2868
(Vleast
g91
tp2869
a(Vdirector
g109
tp2870
a(Vknow
g189
tp2871
a(Vmaintain
g189
tp2872
a(Vcontinuity
g10
tp2873
a(Vmovie
g198
tp2874
aa(lp2875
(Vactor
g10
tp2876
a(Valso
g256
tp2877
a(Vgiven
g905
tp2878
a(Vdecent
g8
tp2879
a(Vperformance
g247
tp2880
aaa(lp2881
(lp2882
(S'really'
g241
tp2883
a(S'new'
g135
tp2884
a(S'low'
g8
tp2885
a(S'entertainment'
S'NN'
p2886
tp2887
aa(lp2888
(Veven
g38
tp2889
a(Vthough
g161
tp2890
a(Vlot
g10
tp2891
a(Vworse
g250
tp2892
a(Vmovie
g198
tp2893
a(Vgangster
g8
tp2894
a(Vdrug
g297
tp2895
a(Vscene
g10
tp2896
a(Vgenre
g189
tp2897
a(Vhard
g8
tp2898
a(Vconvincing
g10
tp2899
a(Vstoryline
g10
tp2900
a(Vmovie
g198
tp2901
a(Vnot
g273
tp2902
a(Vmean
g8
tp2903
a(Vsebastians
g287
tp2904
a(Vmotif
g189
tp2905
a(Vexample
g20
tp2906
a(Vfar
g325
tp2907
a(Vfetched
g29
tp2908
a(Vworn
g8
tp2909
a(Vclich
g10
tp2910
aa(lp2911
(Vwould
g61
tp2912
a(Valso
g256
tp2913
a(Vneed
g14
tp2914
a(Vsetting
g16
tp2915
a(Vcharacter
g10
tp2916
a(Vrelationship
S'NN'
p2917
tp2918
a(Vbelievable
g8
tp2919
a(Vmovie
g198
tp2920
a(Vnot
g273
tp2921
aa(lp2922
(S'sure'
g8
tp2923
a(S'tristan'
g8
tp2924
a(S'drawn'
g10
tp2925
a(S'away'
g38
tp2926
a(S'family'
g514
tp2927
a(S'but'
g156
tp2928
aa(lp2929
(S'deal'
g10
tp2930
a(S'father'
g10
tp2931
a(S'ask'
g10
tp2932
a(S'permission'
g10
tp2933
a(S'go'
g189
tp2934
a(S'age'
S'NN'
p2935
tp2936
aa(lp2937
(Vinteresting
g8
tp2938
a(Vpicture
g10
tp2939
a(Vthough
g161
tp2940
a(Vask
g8
tp2941
a(Vlack
g10
tp2942
a(Vneed
g189
tp2943
a(Vrebellious
g8
tp2944
a(Vbehavior
g10
tp2945
a(Vkid
g427
tp2946
a(Vupper
g8
tp2947
a(Vclass
S'NN'
p2948
tp2949
a(Vfamily
g514
tp2950
aa(lp2951
(S'but'
g156
tp2952
a(S'movie'
g198
tp2953
a(S'not'
g273
tp2954
a(S'go'
g14
tp2955
a(S'direction'
g1436
tp2956
aa(lp2957
(S'even'
g38
tp2958
a(S'though'
g161
tp2959
a(S'would'
g61
tp2960
a(S'potential'
g14
tp2961
a(S'judging'
g10
tp2962
a(S'random'
g10
tp2963
a(S'backflashes'
g287
tp2964
aa(lp2965
(S'already'
p2966
g315
tp2967
aa(lp2968
(Vinteresting
g16
tp2969
a(Vquestion
g10
tp2970
a(Vbrought
g29
tp2971
a(Vsolid
g8
tp2972
a(Vsocially
g38
tp2973
a(Vcritic
g8
tp2974
a(Vdrama
g10
tp2975
a(Vbut
g156
tp2976
a(Vmovie
g198
tp2977
a(Vnot
g273
tp2978
a(Vfocusing
g16
tp2979
a(Vcool
g8
tp2980
a(Vproduction
g202
tp2981
a(Vtechnique
g10
tp2982
a(Vspecial
g8
tp2983
a(Veffect
g295
tp2984
a(Vnot
g273
tp2985
a(Vgiving
g2375
tp2986
a(Vcharacter
g10
tp2987
a(Vmoment
S'NN'
p2988
tp2989
a(Vreflect
g189
tp2990
a(Vmost
g899
tp2991
a(Vforcing
g8
tp2992
a(Vstory
g4
tp2993
a(Valong
g161
tp2994
a(Vpath
g10
tp2995
a(Vwant
g189
tp2996
a(Vnot
g273
tp2997
a(Vpaying
S'VBG'
p2998
tp2999
a(Vattention
S'NN'
p3000
tp3001
a(Vlet
g427
tp3002
a(Vstory
g4
tp3003
a(Vbreath
g10
tp3004
a(Vnaturally
g38
tp3005
a(Vevolve
g14
tp3006
aa(lp3007
(Vwant
g8
tp3008
a(Vdrama
g10
tp3009
a(Vnot
g273
tp3010
a(Vglorify
g14
tp3011
a(Vabuse
g10
tp3012
a(Vsubstance
g10
tp3013
a(Vviolence
g10
tp3014
a(Vwould
g61
tp3015
a(Vpolitical
S'JJ'
p3016
tp3017
a(Vincorrect
g10
tp3018
a(Vday
g705
tp3019
aa(lp3020
(Vbut
g156
tp3021
a(Vhand
S'NN'
p3022
tp3023
a(Vnothing
g368
tp3024
a(Vcheap
g8
tp3025
a(Vaction
g349
tp3026
a(Vmovie
g198
tp3027
a(Vlike
g161
tp3028
a(Vmany
g285
tp3029
a(Vaverage
g8
tp3030
a(Vset
g164
tp3031
a(Vactor
g10
tp3032
a(Vvinnie
g10
tp3033
a(Vjones
g287
tp3034
a(Vmanaging
g16
tp3035
a(Vnot
g273
tp3036
a(Vtotally
g38
tp3037
a(Vruin
g8
tp3038
a(Vleft
g164
tp3039
a(Vreputation
g10
tp3040
a(Valways
g2150
tp3041
a(Vrecommend
g189
tp3042
a(V1
g2065
tp3043
a(Vvinnie
g10
tp3044
a(V2
g1602
tp3045
a(Vediting
g10
tp3046
aaa(lp3047
(lp3048
(V6
S'CD'
p3049
tp3050
a(V10
g2206
tp3051
a(Vacting
g16
tp3052
a(Vnot
g273
tp3053
a(Vgreat
g81
tp3054
a(Vbut
g156
tp3055
a(Vgood
g8
tp3056
a(Vacting
g16
tp3057
a(V4
S'CD'
p3058
tp3059
a(V10
g2206
tp3060
a(Vdirector
g109
tp3061
a(Vmake
g189
tp3062
a(Vstupid
g8
tp3063
a(Vdecision
S'NN'
p3064
tp3065
a(Vfilm
g98
tp3066
a(V2
g1602
tp3067
a(V10
g2206
tp3068
a(Vwriter
g10
tp3069
a(Vstory
g4
tp3070
a(Vmake
g189
tp3071
a(Vno
g45
tp3072
a(Vsense
g10
tp3073
a(Vhuge
S'JJ'
p3074
tp3075
a(Vamount
g10
tp3076
a(Vflaw
g29
tp3077
a(V4
g3058
tp3078
a(V10
g2206
tp3079
a(Voverall
g8
tp3080
a(Vscore
g10
tp3081
a(Vmovie
g198
tp3082
a(Vwaste
g10
tp3083
a(Vtime
g43
tp3084
a(Vfilm
g98
tp3085
a(Vnot
g273
tp3086
a(Vworth
g8
tp3087
aa(lp3088
(S'gave'
g580
tp3089
a(S'4'
g3058
tp3090
a(S'movie'
g198
tp3091
a(S'may'
g2339
tp3092
a(S'much'
g14
tp3093
aa(lp3094
(Vcharacter
g10
tp3095
a(Vexaggerated
g29
tp3096
a(Vever
g129
tp3097
a(Vreal
g1654
tp3098
a(Vlife
g594
tp3099
a(Vpretty
g38
tp3100
a(Vunexplainable
g8
tp3101
a(Vstuff
g10
tp3102
a(Vhappens
g287
tp3103
a(Vstorywise
g1984
tp3104
a(Vnot
g273
tp3105
a(Vgood
g8
tp3106
a(Vway
g418
tp3107
aa(lp3108
(Vstyle
g1153
tp3109
a(Vfilm
g98
tp3110
a(Vfilmed
g29
tp3111
a(Vget
g14
tp3112
a(Vbored
g8
tp3113
a(V30
S'CD'
p3114
tp3115
a(Vminute
g10
tp3116
a(Vmany
g285
tp3117
a(Vspecial
g8
tp3118
a(Veffect
g295
tp3119
a(Vslow
g8
tp3120
a(Vmotion
g10
tp3121
a(Vcamera
g10
tp3122
a(Vshake
g14
tp3123
a(Vfast
g8
tp3124
a(Vforward
g10
tp3125
aa(lp3126
(Valways
g2150
tp3127
a(Vgood
g8
tp3128
a(Vmovie
g198
tp3129
a(Vus
S'PRP'
p3130
tp3131
a(Vmusic
g1333
tp3132
a(Vmake
g189
tp3133
a(Vstory
g4
tp3134
a(Vgo
g14
tp3135
a(Vsmooth
g8
tp3136
a(Vbut
g156
tp3137
a(Vmany
g285
tp3138
a(Vtrack
g189
tp3139
a(Vone
g205
tp3140
aa(lp3141
(Vfirst
g38
tp3142
a(Vhour
g226
tp3143
a(Valmost
g148
tp3144
a(V50
S'CD'
p3145
tp3146
a(V50
g3145
tp3147
a(Vdialog
g10
tp3148
a(Vmusic
g1333
tp3149
aaa(lp3150
(lp3151
(Vone
g205
tp3152
a(Vdumbest
g10
tp3153
a(Vfilm
g98
tp3154
a(Vever
g129
tp3155
a(Vseen
g93
tp3156
aa(lp3157
(Vrip
g10
tp3158
a(Vnearly
S'RB'
p3159
tp3160
a(Vever
g129
tp3161
a(Vtype
g8
tp3162
a(Vthriller
g10
tp3163
a(Vmanages
g287
tp3164
a(Vmake
g189
tp3165
a(Vmess
g10
tp3166
a(Vnot
g273
tp3167
a(Vsingle
S'JJ'
p3168
tp3169
a(Vgood
g8
tp3170
a(Vline
g451
tp3171
a(Vcharacter
g10
tp3172
a(Vwhole
g8
tp3173
a(Vmess
g10
tp3174
aa(lp3175
(Vif
g186
tp3176
a(Vplot
g10
tp3177
a(Vafterthought
g29
tp3178
a(Vfar
g325
tp3179
a(Vacting
g16
tp3180
a(Vgo
g14
tp3181
a(Vnothing
g368
tp3182
a(Vgood
g8
tp3183
a(Vsay
g10
tp3184
a(Vill
g287
tp3185
a(Vsay
g189
tp3186
a(Vnothing
g368
tp3187
aa(lp3188
(Vhonestly
g38
tp3189
a(Vcant
g8
tp3190
a(Vunderstand
g10
tp3191
a(Vtype
g10
tp3192
a(Vnonsense
g10
tp3193
a(Vget
g10
tp3194
a(Vproduced
g164
tp3195
a(Vactually
g914
tp3196
a(Vreleased
g164
tp3197
a(Vsomebody
g10
tp3198
a(Vsomewhere
g38
tp3199
a(Vnot
g273
tp3200
a(Vstage
g14
tp3201
a(Vthink
g14
tp3202
a(Voh
g8
tp3203
a(Vgod
g287
tp3204
a(Vreally
g241
tp3205
a(Vload
g8
tp3206
a(Vshite
g8
tp3207
a(Vcall
g10
tp3208
a(Vday
g705
tp3209
aa(lp3210
(Vcrap
g10
tp3211
a(Vlike
g161
tp3212
a(Vpeople
g260
tp3213
a(Vdownloading
g16
tp3214
a(Villegally
g38
tp3215
a(Vtrailer
g8
tp3216
a(Vlook
g10
tp3217
a(Vlike
g161
tp3218
a(Vcompletely
g38
tp3219
a(Vdifferent
g1324
tp3220
a(Vfilm
g98
tp3221
a(Vleast
g91
tp3222
a(Vif
g186
tp3223
a(Vdownload
g10
tp3224
a(Vwasted
g29
tp3225
a(Vtime
g43
tp3226
a(Vmoney
g182
tp3227
a(Vwaste
g10
tp3228
a(Vtime
g43
tp3229
a(Vpainful
g8
tp3230
aaa.