(lp1
(lp2
(lp3
(Vstory
S'NN'
p4
tp5
a(Vman
S'NN'
p6
tp7
a(Vunnatural
S'JJ'
p8
tp9
a(Vfeeling
S'NN'
p10
tp11
a(Vpig
g10
tp12
aa(lp13
(Vstart
S'VB'
p14
tp15
a(Vopening
S'VBG'
p16
tp17
a(Vscene
g10
tp18
a(Vterrific
g8
tp19
a(Vexample
S'NN'
p20
tp21
a(Vabsurd
g8
tp22
a(Vcomedy
g10
tp23
aa(lp24
(Vformal
g8
tp25
a(Vorchestra
g10
tp26
a(Vaudience
S'NN'
p27
tp28
a(Vturned
S'VBD'
p29
tp30
a(Vinsane
g8
tp31
a(Vviolent
g8
tp32
a(Vmob
g10
tp33
a(Vcrazy
g10
tp34
a(Vchanting
g10
tp35
a(Vsinger
g10
tp36
aa(lp37
(Vunfortunately
S'RB'
p38
tp39
a(Vstay
g8
tp40
a(Vabsurd
g8
tp41
a(Vwhole
g8
tp42
a(Vtime
S'NN'
p43
tp44
a(Vno
S'DT'
p45
tp46
a(Vgeneral
g8
tp47
a(Vnarrative
g8
tp48
a(Veventually
S'RB'
p49
tp50
a(Vmaking
g16
tp51
a(Vputting
S'VBG'
p52
tp53
aa(lp54
(S'even'
g38
tp55
a(S'era'
g10
tp56
a(S'turned'
g29
tp57
aa(lp58
(S'cryptic'
g8
tp59
a(S'dialogue'
g10
tp60
a(S'would'
S'MD'
p61
tp62
a(S'make'
g14
tp63
a(S'shakespeare'
g10
tp64
a(S'seem'
g8
tp65
a(S'easy'
g8
tp66
a(S'third'
g8
tp67
a(S'grader'
g10
tp68
aa(lp69
(S'technical'
S'JJ'
p70
tp71
a(S'level'
g10
tp72
a(S'better'
S'RBR'
p73
tp74
a(S'might'
S'MD'
p75
tp76
a(S'think'
g14
tp77
a(S'good'
g8
tp78
a(S'cinematography'
g10
tp79
a(S'future'
g10
tp80
a(S'great'
S'JJ'
p81
tp82
a(S'vilmos'
g8
tp83
a(S'zsigmond'
g10
tp84
aa(lp85
(Vfuture
g8
tp86
a(Vstar
g10
tp87
a(Vsally
g38
tp88
a(Vkirkland
g14
tp89
a(Vfrederic
g8
tp90
a(Vforrest
S'JJS'
p91
tp92
a(Vseen
S'VBN'
p93
tp94
a(Vbriefly
g10
tp95
aaa(lp96
(lp97
(Vfilm
S'NN'
p98
tp99
a(Vlot
g10
tp100
a(Vpromise
g10
tp101
a(Vplot
g10
tp102
a(Vrelatively
S'RB'
p103
tp104
a(Vinteresting
g8
tp105
a(Vhowever
S'RB'
p106
tp107
a(Vactor
g10
tp108
a(Vdirector
S'NN'
p109
tp110
a(Veditor
S'NN'
p111
tp112
a(Vseriously
g38
tp113
a(Vlet
g14
tp114
a(Vfilm
g98
tp115
a(Vdownbr
g14
tp116
a(Vbr
g10
tp117
a(Vfeel
g10
tp118
a(Vbad
S'JJ'
p119
tp120
a(Vwriter
g10
tp121
a(Vcould
S'MD'
p122
tp123
a(Vgood
g14
tp124
aa(lp125
(Vacting
g16
tp126
a(Vwooden
g8
tp127
a(Vvery
g38
tp128
a(Vcharacter
g8
tp129
a(Vbelievablebr
g10
tp130
a(Vbr
g10
tp131
a(Vever
S'RB'
p132
tp133
a(Vedited
g29
tp134
a(Vclearly
S'RB'
p135
tp136
a(Vlearnt
g8
tp137
a(Vnew
S'JJ'
p138
tp139
a(Vedit
g10
tp140
a(Vtechnique
g10
tp141
a(Vwanted
g29
tp142
a(Vsplash
g10
tp143
a(Vfilm
g98
tp144
aa(lp145
(Vlot
g10
tp146
a(Vquick
g8
tp147
a(Vflashy
g10
tp148
a(Vedits
S'VBZ'
p149
tp150
a(Valmost
S'RB'
p151
tp152
a(Vevery
S'DT'
p153
tp154
a(Vscene
g10
tp155
a(Vclearly
g135
tp156
a(Vmeant
g8
tp157
a(Vsymbolic
g10
tp158
a(Vbut
S'CC'
p159
tp160
a(Vend
S'VBP'
p161
tp162
a(Vannoyingbr
g8
tp163
a(Vbr
g10
tp164
a(Vwanted
g29
tp165
a(Vlike
S'IN'
p166
tp167
a(Vfilm
g98
tp168
a(Vexpected
S'VBN'
p169
tp170
a(Vdecent
g8
tp171
a(Vresolution
g10
tp172
a(Vbreakdown
g166
tp173
a(Vequilibrium
g10
tp174
a(Vbut
g159
tp175
a(Vala
g149
tp176
a(Vno
g45
tp177
a(Vleft
g8
tp178
a(Vfeeling
g10
tp179
a(Vlike
g166
tp180
a(Vid
g10
tp181
a(Vwasted
g29
tp182
a(Vtime
g43
tp183
a(Vfilm
g98
tp184
a(Vmaker
S'NN'
p185
tp186
a(Vwasted
g29
tp187
a(Vmoney
S'NN'
p188
tp189
aaa(lp190
(lp191
(Vif
S'IN'
p192
tp193
a(Vlook
g169
tp194
a(Vcorey
g161
tp195
a(Vlarge
S'JJ'
p196
tp197
a(Vinformation
S'NN'
p198
tp199
a(Vimdb
g10
tp200
a(Vapparently
S'RB'
p201
tp202
a(Vthere
S'EX'
p203
tp204
a(Vmovie
S'NN'
p205
tp206
a(Vcalled
g169
tp207
a(Vreload
g10
tp208
a(Vproduction
S'NN'
p209
tp210
a(Vjune
g10
tp211
a(V08
S'CD'
p212
tp213
a(Vhe
S'PRP'
p214
tp215
a(Vplaying
g16
tp216
a(Vcharacter
g10
tp217
a(Vnamed
g169
tp218
a(Vsebastian
g8
tp219
a(Vcolebr
g10
tp220
a(Vbr
g10
tp221
a(Vfirst
g38
tp222
a(Vcrappy
g8
tp223
a(Vmovie
g205
tp224
a(Vever
g132
tp225
a(Vearn
g38
tp226
a(Vsequel
g8
tp227
a(Vsecond
g8
tp228
a(Vdidnt
g10
tp229
a(Vsebastian
g8
tp230
a(Vget
g10
tp231
a(Vkilled
g169
tp232
a(Vend
g10
tp233
a(Vloadedbr
g10
tp234
a(Vbr
g10
tp235
a(Vwatched
g29
tp236
a(Vwee
g8
tp237
a(Vhour
S'NN'
p238
tp239
a(Vmorning
S'NN'
p240
tp241
a(Vbattling
g10
tp242
a(Vinsomnia
g10
tp243
a(Vdrifting
g16
tp244
aa(lp245
(Vim
g8
tp246
a(Vsure
g10
tp247
a(Vmissed
g29
tp248
a(Vplot
g10
tp249
a(Vpoint
g10
tp250
a(Vbut
g159
tp251
a(Voverall
g8
tp252
a(Vseemed
g29
tp253
a(Vreally
S'RB'
p254
tp255
a(Vweak
S'JJ'
p256
tp257
aa(lp258
(Vlarge
g196
tp259
a(Vperformance
S'NN'
p260
tp261
a(Vone
g212
tp262
a(Vstronger
S'JJR'
p263
tp264
a(Vpart
S'NN'
p265
tp266
a(Vfilm
g98
tp267
aa(lp268
(Vim
g10
tp269
a(Valso
S'RB'
p270
tp271
a(Vbit
g38
tp272
a(Vsurprised
g8
tp273
a(Vpeople
S'NNS'
p274
tp275
a(Vcommenting
g16
tp276
a(Vbeautiful
g8
tp277
a(Vgirl
g10
tp278
a(Vsince
S'IN'
p279
tp280
a(Vthought
g10
tp281
a(Vactress
g166
tp282
a(Vplaying
g16
tp283
a(Vbrooke
g10
tp284
a(Vpretty
g38
tp285
a(Vbut
g159
tp286
a(Vnot
S'RB'
p287
tp288
a(Vexceptional
g8
tp289
aaa(lp290
(lp291
(S'could'
g122
tp292
a(S'think'
g14
tp293
a(S'watching'
g16
tp294
a(S'movie'
g205
tp295
a(S'b-grade'
g10
tp296
a(S'slop'
g10
tp297
aa(lp298
(Vmany
S'JJ'
p299
tp300
a(Vspoken
S'NNS'
p301
tp302
a(Vredeeming
g16
tp303
a(Vquality
g10
tp304
a(Vfilm
g98
tp305
a(Vportrays
g149
tp306
a(Vrealistic
g8
tp307
a(Vrepresentation
g10
tp308
a(Veffect
S'NN'
p309
tp310
a(Vdrug
S'NN'
p311
tp312
a(Vindividual
g8
tp313
a(Vsubsequent
g8
tp314
a(Vspiral
g10
tp315
a(Vself
g10
tp316
a(Vperpetuation
g10
tp317
a(Vstate
S'NN'
p318
tp319
a(Vunfortunate
g8
tp320
a(Vevent
S'NN'
p321
tp322
aa(lp323
(Vyet
g38
tp324
a(Vreally
g254
tp325
a(Vtechnique
g8
tp326
a(Vused
g29
tp327
a(Vmany
g299
tp328
a(Valready
S'RB'
p329
tp330
a(Vmentioned
g169
tp331
a(Voverused
g169
tp332
a(Vthus
S'RB'
p333
tp334
a(Vunconvincing
g8
tp335
a(Virrelevant
g8
tp336
a(Vfilm
g98
tp337
a(Vwholebr
g10
tp338
a(Vbr
g10
tp339
a(Vfar
S'RB'
p340
tp341
a(Vplot
g10
tp342
a(Vconcerned
g8
tp343
a(Vlacklustre
g8
tp344
a(Vunimaginative
g8
tp345
a(Vimplausible
g10
tp346
a(Vconvoluted
g29
tp347
aa(lp348
(Vread
g14
tp349
a(Vmost
g91
tp350
a(Vreport
g10
tp351
a(Vfilm
g98
tp352
a(Vsay
g161
tp353
a(Vpretty
g38
tp354
a(Vmuch
g8
tp355
a(Vwouldbr
g10
tp356
a(Vbr
g10
tp357
a(Vgranted
g29
tp358
a(Vactor
g10
tp359
a(Vactress
g10
tp360
a(Vattractive
g8
tp361
a(Vbut
g159
tp362
a(Vconfronted
g8
tp363
a(Vboring
g8
tp364
a(Vaction
S'NN'
p365
tp366
a(Vlook
g10
tp367
a(Vcarry
g161
tp368
a(Vfilm
g98
tp369
a(Vfar
g340
tp370
aa(lp371
(Vaction
g365
tp372
a(Vpoor
S'JJ'
p373
tp374
a(Vintermittent
g10
tp375
a(Vpunch
g10
tp376
a(Vthrown
g166
tp377
a(Vfinal
S'JJ'
p378
tp379
a(Vgunfight
g10
tp380
a(Vtowards
g301
tp381
a(Vend
g161
tp382
aa(lp383
(Vnothing
S'NN'
p384
tp385
a(Vreally
g254
tp386
a(Vwrite
g8
tp387
a(Vhome
g10
tp388
a(Vaboutbr
g10
tp389
a(Vbr
g10
tp390
a(Vothers
S'NNS'
p391
tp392
a(Vsaid
S'VBD'
p393
tp394
a(Vbad
g119
tp395
a(Vmovie
g205
tp396
a(Vgreat
g81
tp397
a(Vwatch
g10
tp398
a(Vvery
g38
tp399
a(Vreason
S'NN'
p400
tp401
a(Vbad
g119
tp402
a(Vrevel
g10
tp403
a(Vfact
S'NN'
p404
tp405
aa(lp406
(S'film'
g98
tp407
a(S'however'
g106
tp408
a(S'void'
g10
tp409
aa(lp410
(Vnothingbr
g8
tp411
a(Vbr
g10
tp412
a(Vfurthermore
g38
tp413
a(Vif
g192
tp414
a(Vone
g212
tp415
a(Vreally
g254
tp416
a(Vneed
g14
tp417
a(Veducational
g8
tp418
a(Vmovie
g205
tp419
a(Vscare
g10
tp420
a(Vpeople
g274
tp421
a(Vaway
g38
tp422
a(Vdrug
g311
tp423
a(Vuse
g10
tp424
a(Vwould
g61
tp425
a(Vseriously
g38
tp426
a(Vrecommend
g14
tp427
a(Vnumber
S'NN'
p428
tp429
a(Vmovie
g205
tp430
a(Vboard
S'NN'
p431
tp432
a(Vissue
g10
tp433
a(Vmuch
g38
tp434
a(Veffective
S'JJ'
p435
tp436
a(Vway
S'NN'
p437
tp438
aa(lp439
(Vrequiem
g10
tp440
a(Vdream
g10
tp441
a(Vtrainspotting
g16
tp442
a(Vfear
g10
tp443
a(Vloathing
g16
tp444
a(Vla
g10
tp445
a(Vvega
S'FW'
p446
tp447
a(Vcandy
g10
tp448
a(Vexample
g20
tp449
aa(lp450
(Vthough
g166
tp451
a(Vone
g212
tp452
a(Valso
g270
tp453
a(Vcheck
g14
tp454
a(Vlighthearted
g29
tp455
a(Vfilm
g98
tp456
a(Vsubject
g10
tp457
a(Vlike
g166
tp458
a(Vgo
g161
tp459
a(Voverall
g8
tp460
a(Vserious
S'JJ'
p461
tp462
a(Vfunny
g10
tp463
a(Vhalfbakedbr
g10
tp464
a(Vbr
g29
tp465
a(Vfinal
g378
tp466
a(Vnote
g10
tp467
a(Vone
g212
tp468
a(Vpossibly
g38
tp469
a(Vredeeming
g16
tp470
a(Vline
S'NN'
p471
tp472
a(Vmovie
g205
tp473
a(Vdelivered
g29
tp474
a(Vvinnie
g8
tp475
a(Vjones
g301
tp476
a(Vstolen
g169
tp477
a(Vlock
g8
tp478
a(Vstock
S'NN'
p479
tp480
a(Vtwo
S'CD'
p481
tp482
a(Vsmokling
g10
tp483
a(Vbarrel
g10
tp484
aa(lp485
(S'think'
g14
tp486
a(S'bit'
g10
tp487
a(S'great'
g81
tp488
a(S'movie'
g205
tp489
a(S'tainted'
g169
tp490
a(S'loaded'
g29
tp491
a(S'vilebr'
g8
tp492
a(S'br'
g10
tp493
a(S'overall'
g8
tp494
a(S'strongly'
g38
tp495
a(S'suggest'
g161
tp496
a(S'save'
g14
tp497
a(S'money'
g188
tp498
a(S'time'
g43
tp499
a(S'not'
g287
tp500
a(S'seeing'
g16
tp501
a(S'movie'
g205
tp502
aaa(lp503
(lp504
(Vweak
g256
tp505
a(Vplot
g10
tp506
a(Vpredictable
g8
tp507
a(Vviolence
g10
tp508
a(Vsemi
g10
tp509
a(Vinteresting
g8
tp510
a(Vcharacter
g10
tp511
aa(lp512
(Vlike
g166
tp513
a(Vwriter
g10
tp514
a(Valso
g270
tp515
a(Vone
g212
tp516
a(Vstar
g10
tp517
aa(lp518
(Vfictionalizing
g16
tp519
a(Vscrew
g29
tp520
a(Vups
g301
tp521
a(Vadded
g29
tp522
a(Vincredulous
g8
tp523
a(Vfantasy
g8
tp524
a(Vdrug
g311
tp525
a(Vmurder
g10
tp526
a(Vmake
g161
tp527
a(Vhot
g8
tp528
aa(lp529
(Vpredictable
g8
tp530
a(Vrap
g10
tp531
a(Vhouse
S'NN'
p532
tp533
a(Vsoundtrack
g29
tp534
a(Vfamily
S'NN'
p535
tp536
a(Vconflict
g10
tp537
a(Vpoorly
g38
tp538
a(Vacted
g29
tp539
a(Vstereotypical
g8
tp540
a(Vultimately
g38
tp541
a(Vterribly
g38
tp542
a(Vboring
g16
tp543
aa(lp544
(Veven
g38
tp545
a(Vtitle
g14
tp546
a(Vdone
S'VBN'
p547
tp548
a(V-
S':'
tp549
a(Vimdb
g8
tp550
a(Vlist
g10
tp551
a(Vfive
S'CD'
p552
tp553
a(Vmovie
g205
tp554
a(Vname
g10
tp555
a(Vreleased
g29
tp556
a(V2007-2008
g8
tp557
aa(lp558
(Vbr
g10
tp559
a(Vbr
g10
tp560
a(Vnote
g10
tp561
a(Vsaw
g29
tp562
a(Vshowtime
g38
tp563
a(Vlisted
g169
tp564
a(Vsynopsis
g10
tp565
a(Vone
g212
tp566
a(Vmovie
g205
tp567
aa(lp568
(S'halfway'
g38
tp569
a(S'thru'
g203
tp570
a(S'realized'
g169
tp571
a(S'no'
g45
tp572
a(S'one'
g10
tp573
a(S'undercover'
g10
tp574
a(S'cop'
g10
tp575
aa(lp576
(S'even'
g38
tp577
a(S'tho'
g149
tp578
a(S'another'
S'DT'
p579
tp580
a(S'stereotype'
g10
tp581
a(S'would'
g61
tp582
a(S'made'
g14
tp583
a(S'interesting'
g16
tp584
a(S'if'
g192
tp585
a(S'happened'
g169
tp586
aaa(lp587
(lp588
(Vtime
g43
tp589
a(Vfinishing
g16
tp590
a(Vfilm
g98
tp591
a(Vone
g212
tp592
a(Vwish
g10
tp593
a(Vrefund
g10
tp594
a(Vtime
g43
tp595
a(Vspent
g10
tp596
aa(lp597
(Vone
g212
tp598
a(Vtime
g43
tp599
aa(lp600
(Valmost
g151
tp601
a(Vgave
S'VBD'
p602
tp603
a(V15
S'CD'
p604
tp605
a(Vminute
g10
tp606
a(Vleft
g29
tp607
a(Vendure
g8
tp608
a(Vwish
g8
tp609
a(Vhadbr
g10
tp610
a(Vbr
g10
tp611
a(Vpace
S'NN'
p612
tp613
a(Vman
g6
tp614
a(Vgo
g161
tp615
a(Vstraight-laced
g8
tp616
a(Vcontrolled
g8
tp617
a(Vlife
S'NN'
p618
tp619
a(Vone
g212
tp620
a(Vcomplete
g8
tp621
a(Vspinelessness
g10
tp622
a(Virresponsibility
g10
tp623
a(Vcould
g122
tp624
a(Vnever
S'RB'
p625
tp626
a(Vrapidbr
g14
tp627
a(Vbr
g10
tp628
a(Vgraduation
g10
tp629
a(Vcelebration
g10
tp630
a(Vpredictable
g8
tp631
a(Vending
S'VBG'
p632
tp633
a(Vtristan
g8
tp634
a(Vprice
S'NN'
p635
tp636
a(Vjesse
g10
tp637
a(Vmetcalfe
g10
tp638
a(Vman
g6
tp639
a(Vprivilege
g10
tp640
a(Vculture
S'NN'
p641
tp642
a(Vallows
g149
tp643
a(Vseduced
g169
tp644
a(Vwoman
S'NN'
p645
tp646
a(Vviolence
g10
tp647
a(Vmind
g10
tp648
a(Valtering
g16
tp649
a(Vsubstance
g10
tp650
aa(lp651
(Vcourse
S'NN'
p652
tp653
a(Vwoman
g645
tp654
a(Vpart
g265
tp655
a(Vunderstandable
g8
tp656
a(Vobserving
g16
tp657
a(Vtalent
g10
tp658
a(Vbeautiful
g8
tp659
a(Vapril
g8
tp660
a(Vnathalie
g10
tp661
a(Vkelley
g10
tp662
aa(lp663
(Vbut
g159
tp664
a(Vpenny
g8
tp665
a(Vpound
S'NN'
p666
tp667
a(Vaspect
g8
tp668
a(Vdrug
g311
tp669
a(Vviolence
g10
tp670
a(Vdedication
g10
tp671
a(Vperson
S'NN'
p672
tp673
a(Vmet
g29
tp674
a(Vimpossible
g8
tp675
a(Vunderstandbr
g8
tp676
a(Vbr
g10
tp677
a(Vfrankly
g38
tp678
a(Vbesides
g166
tp679
a(Vable
S'JJ'
p680
tp681
a(Vstare
g10
tp682
a(Vnathalie
g8
tp683
a(Vkelley
g10
tp684
a(Vmonica
g10
tp685
a(Vkeena
S'NNP'
p686
tp687
a(Vfilm
g98
tp688
a(Vno
g38
tp689
a(Vredeeming
g16
tp690
a(Vquality
g10
tp691
aa(lp692
(S'save'
g14
tp693
a(S'money'
g188
tp694
a(S'save'
g10
tp695
a(S'time'
g43
tp696
a(S'anything'
S'NN'
p697
tp698
a(S'else'
g38
tp699
aaa(lp700
(lp701
a(lp702
(S'one'
p703
g212
tp704
aa(lp705
(S'worst'
g91
tp706
a(S'movie'
g205
tp707
a(S'ever'
g132
tp708
a(S'made'
g29
tp709
aa(lp710
(S'ever'
p711
g132
tp712
aa(lp713
(Vbeat
g10
tp714
a(Veverything
S'NN'
p715
tp716
aa(lp717
(S'never'
g625
tp718
a(S'seen'
g93
tp719
a(S'worse'
g263
tp720
aa(lp721
(Vretire
g10
tp722
a(Vtrophy
g10
tp723
a(Vgive
g161
tp724
a(Vpeopletheres
g149
tp725
a(Vno
g45
tp726
a(Vcomparisonbr
g10
tp727
a(Vbr
g29
tp728
a(Veven
g38
tp729
a(Vthree
S'CD'
p730
tp731
a(Vday
S'NN'
p732
tp733
a(Vwatching
g16
tp734
a(Vreason
g400
tp735
a(Vstill
S'RB'
p736
tp737
a(Vdont
g149
tp738
a(Vknow
g8
tp739
a(Vcannot
g10
tp740
a(Vbelieve
g161
tp741
a(Vinsanely
g38
tp742
a(Vhorrific
g8
tp743
a(Vmovie
g205
tp744
a(Viswas
g10
tp745
aa(lp746
(S'bad'
p747
g119
tp748
aa(lp749
(Vfar
g340
tp750
a(Vanything
g697
tp751
a(Vcould
g122
tp752
a(Vconsidered
g14
tp753
a(Vmovie
g205
tp754
a(Vstory
g4
tp755
a(Vanything
g697
tp756
a(Vever
g132
tp757
a(Vcreated
g29
tp758
a(Vbrought
g8
tp759
a(Vexistencebr
g10
tp760
a(Vbr
g10
tp761
a(Vmade
g169
tp762
a(Vquestion
g10
tp763
a(Vwhether
S'IN'
p764
tp765
a(Vnot
g287
tp766
a(Vhuman
g8
tp767
a(Vtruly
g38
tp768
a(Vput
g29
tp769
a(Vearth
g38
tp770
a(Vgood
g8
tp771
aa(lp772
(Vmade
g169
tp773
a(Vfeel
g10
tp774
a(Vdisgusted
g8
tp775
a(Vprogress
g10
tp776
a(Vspecie
g10
tp777
a(Vuniverse
g10
tp778
aa(lp779
(Vtype
g8
tp780
a(Vmovie
g205
tp781
a(Vsincerely
g38
tp782
a(Vhurt
g29
tp783
a(Vu
g8
tp784
a(Vsociety
g10
tp785
aa(lp786
(S'ashamed'
p787
g169
tp788
aa(lp789
(Vreally
g254
tp790
a(Vcannot
g8
tp791
a(Vemphasize
g14
tp792
a(Vglobal
S'JJ'
p793
tp794
a(Vresponsibility
g10
tp795
a(Vpeople
g274
tp796
a(Vliving
g16
tp797
a(Vcreating
S'VBG'
p798
tp799
a(Vart
g38
tp800
a(Vneed
g14
tp801
a(Vprevent
g10
tp802
a(Vcreation
g10
tp803
a(Vgross
S'JJ'
p804
tp805
a(Vdistortion
g10
tp806
a(Vreality
g10
tp807
a(Vgood
g8
tp808
aa(lp809
(S'embarrassment'
p810
g10
tp811
aa(lp812
(Vdont
g10
tp813
a(Vknow
g161
tp814
a(Vearth
g10
tp815
a(Vactor
g10
tp816
a(Vwriter
g10
tp817
a(Vdirector
g109
tp818
a(Vfilm
g98
tp819
a(Vsleep
g8
tp820
a(Vnight
S'NN'
p821
tp822
a(Vknowing
g16
tp823
a(Vrole
S'NN'
p824
tp825
a(Vmaking
g10
tp826
a(Vloaded
g29
tp827
aa(lp828
(Vdont
g10
tp829
a(Vknow
g161
tp830
a(Vtype
g10
tp831
a(Vdisgusting
g16
tp832
a(Vmonster
g10
tp833
a(Venjoy
g10
tp834
a(Vwatching
g16
tp835
a(Vtype
g8
tp836
a(Vmoviesbr
g10
tp837
a(Vbr
g10
tp838
a(Vsaid
g393
tp839
a(Vlove
g38
tp840
a(Vgood
g8
tp841
a(Vbad
g119
tp842
a(Vmovie
g205
tp843
aa(lp844
(S'love'
g10
tp845
a(S'shark'
g10
tp846
a(S'attack'
g10
tp847
a(S'3'
g212
tp848
a(S'love'
g10
tp849
a(S'bad'
g119
tp850
a(S'taste'
g10
tp851
a(S'hilarious'
g8
tp852
aa(lp853
(Vtell
g10
tp854
a(Vfriend
g10
tp855
a(Vsee
g161
tp856
a(Vbadbr
g8
tp857
a(Vbr
g301
tp858
a(Vbut
g159
tp859
a(Vthisthis
g8
tp860
a(Vcross
g10
tp861
a(Vline
g471
tp862
a(Vbad
g119
tp863
a(Vwhole
g8
tp864
a(Vnew
g138
tp865
a(Vdimension
g10
tp866
aa(lp867
(S'awkward'
g38
tp868
a(S'bad'
g119
tp869
aa(lp870
(Vbad
g119
tp871
a(Vknow
g161
tp872
a(Veverything
g715
tp873
a(Vgoing
S'VBG'
p874
tp875
a(Vhappen
g8
tp876
a(Vevery
g153
tp877
a(Vline
g471
tp878
a(Vevery
g153
tp879
a(Vaction
g365
tp880
a(Vevery
g153
tp881
a(Vdeath
S'NN'
p882
tp883
a(Vevery
g153
tp884
a(Vsequence
g10
tp885
a(Vhappen
g149
tp886
a(Vnot
g287
tp887
a(Vlike
g8
tp888
a(Vsecond
g8
tp889
a(Vtwo
g481
tp890
a(Vmean
g161
tp891
a(Vlike
g166
tp892
a(Vwatching
g16
tp893
a(Vfirst
g38
tp894
a(V5
S'CD'
p895
tp896
a(Vminute
g10
tp897
a(Vbeforebr
g10
tp898
a(Vbr
g10
tp899
a(Vevery
g153
tp900
a(Vcheesy
g10
tp901
a(Vediting
g16
tp902
a(Veffect
g309
tp903
a(Vshamelessly
g38
tp904
a(Vused
g29
tp905
a(Vsickening
g16
tp906
a(Vpoint
g10
tp907
aa(lp908
(Vreally
g254
tp909
a(Vnever
g625
tp910
a(Vwant
g161
tp911
a(Vsee
g10
tp912
a(Vshaky
g8
tp913
a(Vcamera
g10
tp914
a(Vdrug
g311
tp915
a(Vbuzz
g10
tp916
a(Vrush
g10
tp917
a(Veffect
g309
tp918
a(Vjump
g10
tp919
a(Vcut
g10
tp920
a(Vswerve
g10
tp921
a(Vcut
g29
tp922
a(Vfancy
g8
tp923
a(Vcut
g10
tp924
a(Vever
g132
tp925
a(Vever
g132
tp926
aa(lp927
(Vmeticulously
g38
tp928
a(Vboring
g16
tp929
a(Vrepetitive
g8
tp930
a(Vtorture
g10
tp931
a(Vaudiencebr
g10
tp932
a(Vbr
g10
tp933
a(Vbutand
g10
tp934
a(Vlet
g169
tp935
a(Vspecific
g8
tp936
a(Vmost
S'RBS'
p937
tp938
a(Vdisturbing
g8
tp939
a(Vthing
S'NN'
p940
tp941
a(Vmovie
g205
tp942
a(Vgiven
S'VBN'
p943
tp944
a(Vproduction
g209
tp945
a(Vappears
S'VBZ'
p946
tp947
a(Vsomewhat
g38
tp948
a(Vdecent
g8
tp949
a(Vamount
g10
tp950
a(Vmoney
g188
tp951
a(Vactually
S'RB'
p952
tp953
a(Vput
g29
tp954
a(Vexcrement
g8
tp955
aa(lp956
(Vpersonally
g38
tp957
a(Vgrab
g8
tp958
a(Vshoulder
g10
tp959
a(Vdirector
g109
tp960
a(Vif
g192
tp961
a(Vever
g132
tp962
a(Vsee
g161
tp963
a(Vshake
g8
tp964
a(Vsubmission
g10
tp965
a(Vdemanding
g16
tp966
a(Vrun
g169
tp967
a(Vhome
g10
tp968
a(Vswallow
g10
tp969
a(Vtwo-gallons
g301
tp970
a(Vdrain-o
g8
tp971
a(Vhimbr
g10
tp972
a(Vbr
g10
tp973
a(Vif
g192
tp974
a(Vever
g132
tp975
a(Vneeded
g169
tp976
a(Vnew
g138
tp977
a(Vform
g10
tp978
a(Vinhumane
g8
tp979
a(Vtorture
g10
tp980
a(Vwar
S'NN'
p981
tp982
a(Vprisoner
g10
tp983
a(Vabroad
S'RB'
p984
tp985
a(Vkeep
g14
tp986
a(Vshowing
g16
tp987
a(Vmovie
g205
tp988
a(Vpadded
g169
tp989
a(Vcell
g10
tp990
aa(lp991
(Vtrust
g10
tp992
a(Vthink
g161
tp993
a(Vbecome
g169
tp994
a(Vextravagant
g8
tp995
a(Vsuicide
g8
tp996
a(Vmethod
g10
tp997
a(V72nd
g212
tp998
a(Vtime
g43
tp999
a(Vsitting
g16
tp1000
a(Vthisbr
g8
tp1001
a(Vbr
g8
tp1002
a(Vstop
g8
tp1003
a(Vmovie
g205
tp1004
a(Vmost
g91
tp1005
a(Vvile
g8
tp1006
a(Vfacet
g10
tp1007
a(Vsociety
g10
tp1008
aa(lp1009
(S'please'
p1010
g10
tp1011
aa(lp1012
(S'stop'
p1013
g10
tp1014
aa(lp1015
aa(lp1016
(lp1017
(Vlot
g10
tp1018
a(Vextremely
S'RB'
p1019
tp1020
a(Vgood-looking
g8
tp1021
a(Vpeople
g274
tp1022
a(Vmovie
g205
tp1023
aa(lp1024
(S'thats'
g301
tp1025
a(S'probably'
S'RB'
p1026
tp1027
a(S'best'
g91
tp1028
a(S'thing'
g940
tp1029
aa(lp1030
(Vperhaps
S'RB'
p1031
tp1032
a(Veven
g38
tp1033
a(Vmake
g14
tp1034
a(Vworth
g8
tp1035
a(Vwatchingbr
g301
tp1036
a(Vbr
g10
tp1037
a(Vloaded
g169
tp1038
a(Vtell
g161
tp1039
a(Vstory
g4
tp1040
a(Vtristan
g8
tp1041
a(Vprice
g635
tp1042
a(Vjesse
g10
tp1043
a(Vmetcalfe
g10
tp1044
a(Vyoung
S'JJ'
p1045
tp1046
a(Vman
g6
tp1047
a(Vwho
S'WP'
p1048
tp1049
a(Vmake
g161
tp1050
a(Vmark
g10
tp1051
a(Vworld
S'NN'
p1052
tp1053
aa(lp1054
(Vhe
g214
tp1055
a(Vson
g29
tp1056
a(Vwell-to-do
g8
tp1057
a(Vfamily
g535
tp1058
a(Vgood
g8
tp1059
a(Vreputation
g10
tp1060
a(Vhe
g214
tp1061
a(Vway
g437
tp1062
a(Vlaw
S'NN'
p1063
tp1064
a(Vschool
S'NN'
p1065
tp1066
aa(lp1067
(Vbut
g159
tp1068
a(Vlike
g166
tp1069
a(Vmany
g299
tp1070
a(Vsetting
g16
tp1071
a(Vthing
g940
tp1072
a(Varent
g8
tp1073
a(Vquite
g38
tp1074
a(Vperfect
g8
tp1075
a(Vappear
g161
tp1076
aa(lp1077
(Vexpectation
g10
tp1078
a(Vfamily
g535
tp1079
a(Vfar
g340
tp1080
a(Voutweigh
g8
tp1081
a(Vlove
g10
tp1082
aa(lp1083
(Vexcept
g166
tp1084
a(Vschool
g1065
tp1085
a(Vtristan
g10
tp1086
a(Vfather
g73
tp1087
a(Vrarely
g38
tp1088
a(Vlet
g14
tp1089
a(Vleave
g14
tp1090
a(Vhouse
g532
tp1091
aa(lp1092
(Vseems
S'VBZ'
p1093
tp1094
a(Vresult
g10
tp1095
a(Vpast
g166
tp1096
a(Vtraumatic
g8
tp1097
a(Vevent
g321
tp1098
a(Vshook
g29
tp1099
a(Vfamily
g535
tp1100
a(Vpartially
g38
tp1101
a(Vrevealed
g29
tp1102
a(Vflashback
g10
tp1103
a(Vbut
g159
tp1104
a(Visnt
g10
tp1105
a(Vspelled
g29
tp1106
a(Vuntil
S'IN'
p1107
tp1108
a(Vvery
g38
tp1109
a(Vend
g14
tp1110
aa(lp1111
(Vtristan
g10
tp1112
a(Vclaustrophobic
g10
tp1113
a(Venvironment
S'NN'
p1114
tp1115
a(Vcause
g10
tp1116
a(Vlet
g29
tp1117
a(Vloose
g8
tp1118
a(Vvery
g38
tp1119
a(Vextreme
g8
tp1120
a(Vway
g437
tp1121
a(Vfirst
g38
tp1122
a(Vpossible
S'JJ'
p1123
tp1124
a(Vopportunity
S'NN'
p1125
tp1126
a(Vfriend
g161
tp1127
a(Vtake
g14
tp1128
a(Vstrip
g10
tp1129
a(Vclub
g10
tp1130
a(Vcelebrate
g10
tp1131
a(Vgraduation
g10
tp1132
aa(lp1133
(Vcelebration
g10
tp1134
a(Vsoon
S'RB'
p1135
tp1136
a(Vfollows
S'VBZ'
p1137
tp1138
a(Vstripper
g263
tp1139
a(Vback
g38
tp1140
a(Vbeach
g10
tp1141
a(Vhouse
g532
tp1142
a(Vparty
S'NN'
p1143
tp1144
a(Vtristan
g8
tp1145
a(Vbefriends
g301
tp1146
a(Vsebastian
g8
tp1147
a(Vcole
g10
tp1148
a(Vcorey
g10
tp1149
a(Vlarge
g196
tp1150
a(Vpull
g8
tp1151
a(Vdrug
g311
tp1152
a(Vdealing
g16
tp1153
a(Vunderworldbr
g8
tp1154
a(Vbr
g10
tp1155
a(Vtechnically
g38
tp1156
a(Vwell-made
g8
tp1157
a(Vmovie
g205
tp1158
a(Vsuffers
g301
tp1159
a(Vlackluster
g73
tp1160
a(Vscript
g10
tp1161
a(Vstoryline
g10
tp1162
a(Visnt
g8
tp1163
a(Vvery
g38
tp1164
a(Vengaging
g16
tp1165
aa(lp1166
(Valso
g270
tp1167
a(Vcounting
g16
tp1168
a(Vagainst
S'IN'
p1169
tp1170
a(Vfilm
g98
tp1171
a(Vconstant
g8
tp1172
a(Vcamera
g10
tp1173
a(Vtrick
g10
tp1174
a(Vgenerally
S'RB'
p1175
tp1176
a(Vseemed
g29
tp1177
a(Vannoying
g16
tp1178
a(Vout-of-place
g8
tp1179
a(Vslow-motion
g8
tp1180
a(Vfast-motion
g8
tp1181
a(Vfreeze-frames
g301
tp1182
a(Vecho
g10
tp1183
aa(lp1184
(Vtype
g8
tp1185
a(Veffect
g309
tp1186
a(Vdirector
g109
tp1187
a(Vmight
g75
tp1188
a(Vnormally
g38
tp1189
a(Vutilize
g14
tp1190
a(Vshow
g10
tp1191
a(Vcharacter
g8
tp1192
a(Vperspective
g8
tp1193
a(Vdrug
g311
tp1194
a(Vexcept
g166
tp1195
a(Vcase
S'NN'
p1196
tp1197
a(Vseem
g161
tp1198
a(Vsporadically
g38
tp1199
a(Vtossed
g8
tp1200
a(Vrandom
g10
tp1201
a(Vpoint
g10
tp1202
a(Vcheap
g8
tp1203
a(Vattempt
g10
tp1204
a(Vstylebr
g10
tp1205
a(Vbr
g10
tp1206
a(Vdespite
S'IN'
p1207
tp1208
a(Vcast
g8
tp1209
a(Vrelative
g8
tp1210
a(Vunknown
g8
tp1211
a(Vperformance
g260
tp1212
a(Vgood
g8
tp1213
a(Varound
g166
tp1214
a(Vmost
g91
tp1215
a(Vnotably
g38
tp1216
a(Vrespect
g161
tp1217
a(Vmain
S'JJ'
p1218
tp1219
a(Vantagonist
g10
tp1220
a(Vcorey
g10
tp1221
a(Vlarge
g196
tp1222
aa(lp1223
(Vsuspect
g10
tp1224
a(Vwell
g38
tp1225
a(Vseeing
g16
tp1226
a(Vleast
g91
tp1227
a(Vcouple
g8
tp1228
a(Vpeople
g274
tp1229
a(Vbigger
S'JJR'
p1230
tp1231
a(Vbetter
g73
tp1232
a(Vproject
g10
tp1233
a(Vfuturebr
g8
tp1234
a(Vbr
g8
tp1235
a(Vcourse
g652
tp1236
a(Vmentioning
g16
tp1237
a(Vactor
g10
tp1238
a(Vmust
S'MD'
p1239
tp1240
a(Vmention
g14
tp1241
a(Vlook
g10
tp1242
aa(lp1243
(Vrating
S'NN'
p1244
tp1245
a(Vbased
S'VBN'
p1246
tp1247
a(Vhotness
g8
tp1248
a(Vmovie
g205
tp1249
a(Vscore
g10
tp1250
a(V11
S'CD'
p1251
tp1252
aa(lp1253
(Vwoman
g645
tp1254
a(Vmovie
g205
tp1255
a(Vincredible-looking
g8
tp1256
a(Valmost
g151
tp1257
a(Vdistract
g8
tp1258
a(Vboring
g8
tp1259
a(Vmovie
g205
tp1260
a(Vyoure
g10
tp1261
a(Vwatching
g16
tp1262
aa(lp1263
(Vim
g8
tp1264
a(Vsure
g8
tp1265
a(Vmale
g8
tp1266
a(Vcharacter
g10
tp1267
a(Valso
g270
tp1268
a(Vquite
g38
tp1269
a(Vattractive
g8
tp1270
a(Vbut
g159
tp1271
a(Vyoull
g8
tp1272
a(Vask
g10
tp1273
a(Vsomeone
S'NN'
p1274
tp1275
a(Velse
g38
tp1276
a(Vcomment
g10
tp1277
a(Vthatbr
g10
tp1278
a(Vbr
g166
tp1279
a(Voverall
g8
tp1280
a(Vcant
g8
tp1281
a(Vrecommend
g10
tp1282
a(Vmovie
g205
tp1283
a(Vnot
g287
tp1284
a(Vbuying
g16
tp1285
a(Vrenting
g16
tp1286
a(Veven
g38
tp1287
a(Vseeing
g16
tp1288
a(Vfree
g8
tp1289
aa(lp1290
(Vunfortunately
g38
tp1291
a(Vnot
g287
tp1292
a(Vworth
g8
tp1293
a(Veffort
S'NN'
p1294
tp1295
a(Vtake
g14
tp1296
a(Vsit
g10
tp1297
aaa(lp1298
(lp1299
(Vnine
S'CD'
p1300
tp1301
a(Vminute
g8
tp1302
a(Vpsychedelic
g8
tp1303
a(Vpulsating
g16
tp1304
a(Voften
S'RB'
p1305
tp1306
a(Vsymmetric
g8
tp1307
a(Vabstract
g8
tp1308
a(Vimage
S'NN'
p1309
tp1310
a(Venough
g8
tp1311
a(Vdrive
g10
tp1312
a(Vanyone
S'NN'
p1313
tp1314
a(Vcrazy
g10
tp1315
aa(lp1316
(Vspot
g10
tp1317
a(Vfull-frame
g8
tp1318
a(Veye
S'NN'
p1319
tp1320
a(Vstart
g10
tp1321
a(Vlater
g73
tp1322
a(Vbird
g10
tp1323
a(Vsilhouetted
g169
tp1324
a(Vagainst
g1169
tp1325
a(Vcolor
g10
tp1326
aa(lp1327
(S'not'
g287
tp1328
a(S'cup'
g8
tp1329
a(S'tea'
g10
tp1330
aa(lp1331
(V8
S'CD'
p1332
tp1333
a(Vminute
g10
tp1334
a(Vlong
g38
tp1335
aaa(lp1336
(lp1337
(Vart
g10
tp1338
a(Vfilm
g98
tp1339
a(Veither
g38
tp1340
a(Vmade
g29
tp1341
a(V1969
g212
tp1342
a(V1972
g212
tp1343
a(Vnational
S'JJ'
p1344
tp1345
a(Vfilm
g98
tp1346
a(Vpreservation
g10
tp1347
a(Vfoundation
g10
tp1348
a(Vsay
g161
tp1349
a(V1969
g212
tp1350
a(Vimdb
g301
tp1351
a(Vsay
g161
tp1352
a(V1972
g212
tp1353
aa(lp1354
(Vregardless
g38
tp1355
a(Vexact
g8
tp1356
a(Vdate
S'NN'
p1357
tp1358
a(Vfilm
g98
tp1359
a(Vdefinitely
g38
tp1360
a(Vappears
g946
tp1361
a(Vvery
g38
tp1362
a(Vindicative
g8
tp1363
a(Vgeneral
g8
tp1364
a(Vtime
g43
tp1365
a(Vperiod--with
g8
tp1366
a(Vcamera-work
g10
tp1367
a(Vpop
g10
tp1368
a(Vart
g10
tp1369
a(Vstylings
g301
tp1370
a(Vpure
g10
tp1371
a(Vlate
g8
tp1372
a(V60s-early
g8
tp1373
a(V70sbr
g212
tp1374
a(Vbr
g10
tp1375
a(Vfilm
g98
tp1376
a(Vconsists
g149
tp1377
a(Vthree
g730
tp1378
a(Vsimple
g8
tp1379
a(Vimage
g1309
tp1380
a(Vdistorted
g29
tp1381
a(Vusing
S'VBG'
p1382
tp1383
a(Vdifferent
S'JJ'
p1384
tp1385
a(Vweird
g8
tp1386
a(Vcamera
g10
tp1387
a(Vtrick
g10
tp1388
aa(lp1389
(Vdistorted
g169
tp1390
a(Vimage
g1309
tp1391
a(Vaccompanied
g169
tp1392
a(Vmusic
S'NN'
p1393
tp1394
a(Vabsolutely
g38
tp1395
a(Vno
g45
tp1396
a(Vdialog
g10
tp1397
a(Vplot
g10
tp1398
a(Vsort
g10
tp1399
aa(lp1400
(S'obviously'
g38
tp1401
a(S'intended'
g169
tp1402
a(S'almost'
g151
tp1403
a(S'like'
g166
tp1404
a(S'form'
g10
tp1405
a(S'performance'
g260
tp1406
a(S'art'
g10
tp1407
a(S'like'
g166
tp1408
a(S'most'
g91
tp1409
a(S'performance'
g260
tp1410
a(S'art'
g10
tp1411
a(S'interesting'
g16
tp1412
a(S'first'
g8
tp1413
a(S'but'
g159
tp1414
a(S'quickly'
S'RB'
p1415
tp1416
a(S'becomes'
g149
tp1417
a(S'tiresome'
g8
tp1418
aa(lp1419
(Vfilm
g98
tp1420
a(Vput
g29
tp1421
a(Veven
g38
tp1422
a(Vbluntly
g38
tp1423
a(Vtotal
g8
tp1424
a(Vbore
g10
tp1425
a(Vwould
g61
tp1426
a(Vappeal
g14
tp1427
a(Vno
g45
tp1428
a(Vone
g10
tp1429
a(Vbut
g159
tp1430
a(Vperhaps
g1031
tp1431
a(Vmade
g29
tp1432
a(Vfilm
g98
tp1433
a(Vfamily
g535
tp1434
a(Vfriend
g10
tp1435
a(Vperhaps
g1031
tp1436
a(Vpeople
g274
tp1437
a(Vhip
g161
tp1438
a(Vunderstood
g8
tp1439
a(Vu
g8
tp1440
a(Vmortal
g10
tp1441
aaa(lp1442
(lp1443
(S'big'
S'JJ'
p1444
tp1445
a(S'fan'
g10
tp1446
a(S'arnold'
g29
tp1447
a(S'vosloo'
g10
tp1448
aa(lp1449
(Vfinally
S'RB'
p1450
tp1451
a(Vseeing
g16
tp1452
a(Vstar
g10
tp1453
a(Vrecent
S'JJ'
p1454
tp1455
a(Vmovie
g205
tp1456
a(Vnot
g287
tp1457
a(Vbit
g14
tp1458
a(Vpart
g265
tp1459
a(Vmade
g169
tp1460
a(Vhappybr
g10
tp1461
a(Vbr
g10
tp1462
a(Vunfortunately
g38
tp1463
a(Vtook
S'VBD'
p1464
tp1465
a(Vfilm
g98
tp1466
a(Vappreciation
g10
tp1467
a(Vcollege
S'NN'
p1468
tp1469
a(Vthing
g940
tp1470
a(Vsay
g161
tp1471
a(Vdidnt
g301
tp1472
a(Vlike
g166
tp1473
a(Vfilm
g98
tp1474
a(Vmade
g169
tp1475
a(Vabandoned
g29
tp1476
a(Vpart
g265
tp1477
a(Vtown
S'NN'
p1478
tp1479
a(Vno
g45
tp1480
a(Vbackground
g10
tp1481
a(Vtraffic
S'NN'
p1482
tp1483
a(Vlookie
g10
tp1484
a(Vloosbr
g10
tp1485
a(Vbr
g301
tp1486
a(Vsay
g161
tp1487
a(Vacting
g16
tp1488
a(Vleaf
g10
tp1489
a(Vsomething
S'NN'
p1490
tp1491
a(Vdesired
g169
tp1492
a(Vbut
g159
tp1493
a(Varnold
g8
tp1494
a(Vexcellent
g8
tp1495
a(Vactor
g10
tp1496
a(Vchalk
g10
tp1497
a(Vlousy
g8
tp1498
a(Vdirection
S'NN'
p1499
tp1500
a(Vsupporting
g16
tp1501
a(Vcast
g29
tp1502
a(Vleaf
g8
tp1503
a(Vsomething
g1490
tp1504
a(Vdesiredbr
g8
tp1505
a(Vbr
g10
tp1506
a(Vlove
g10
tp1507
a(Varnold
g10
tp1508
a(Vvosloo
g10
tp1509
a(Vmade
g29
tp1510
a(Vfilm
g98
tp1511
a(Vviewable
g8
tp1512
aa(lp1513
(Votherwise
g38
tp1514
a(Vwould
g61
tp1515
a(Vwritten
S'VBN'
p1516
tp1517
a(Vanother
g579
tp1518
a(Vlousy
g8
tp1519
a(Vfilmbr
g10
tp1520
a(Vbr
g10
tp1521
a(Vfound
g29
tp1522
a(Vrape
g10
tp1523
a(Vscene
g10
tp1524
a(Vbrutal
g8
tp1525
a(Vunnecessary
g8
tp1526
a(Vbut
g159
tp1527
a(Vactor
g10
tp1528
a(Vgot
g29
tp1529
a(Vaway
g38
tp1530
a(Vend
g8
tp1531
a(Vpretty
g38
tp1532
a(Vgood
g8
tp1533
aa(lp1534
(Vbut
g159
tp1535
a(Vsound
g8
tp1536
a(Veffect
g309
tp1537
a(Vshoot-out
g10
tp1538
a(Vpretty
g10
tp1539
a(Vbad
g119
tp1540
aa(lp1541
(Vglitch
g10
tp1542
a(Vfilm
g98
tp1543
a(Vcontinuity
g10
tp1544
a(Vbut
g159
tp1545
a(Voverlookable
g8
tp1546
a(Vconsidering
S'VBG'
p1547
tp1548
a(Vlow-caliber
g8
tp1549
a(Vfilmbr
g10
tp1550
a(Vbr
g10
tp1551
a(Venjoyed
g29
tp1552
a(Vfilm
g98
tp1553
a(Varnold
g10
tp1554
a(Vvosloo
g10
tp1555
a(Vitbr
g10
tp1556
a(Vbr
g10
tp1557
a(Vjackie
g10
tp1558
aaa(lp1559
(lp1560
(Vrobert
g10
tp1561
a(Vdeniro
g10
tp1562
a(Vplay
g161
tp1563
a(Vmost
g937
tp1564
a(Vunbelievably
g8
tp1565
a(Vintelligent
g8
tp1566
a(Villiterate
g10
tp1567
a(Vtime
g43
tp1568
aa(lp1569
(S'movie'
g205
tp1570
a(S'wasteful'
g8
tp1571
a(S'talent'
g10
tp1572
a(S'truly'
g38
tp1573
a(S'disgusting'
g16
tp1574
aa(lp1575
(S'script'
g10
tp1576
a(S'unbelievable'
g8
tp1577
aa(lp1578
(S'dialog'
g10
tp1579
a(S'unbelievable'
g8
tp1580
aa(lp1581
(Vjane
g10
tp1582
a(Vfonda
g301
tp1583
a(Vcharacter
g161
tp1584
a(Vcaricature
g10
tp1585
a(Vnot
g287
tp1586
a(Vfunny
g8
tp1587
a(Vone
g212
tp1588
aa(lp1589
(Vmovie
g205
tp1590
a(Vmove
g10
tp1591
a(Vsnail
g10
tp1592
a(Vpace
g612
tp1593
a(Vphotographed
g29
tp1594
a(Vill-advised
g8
tp1595
a(Vmanner
g10
tp1596
a(Vinsufferably
g38
tp1597
a(Vpreachy
g29
tp1598
aa(lp1599
(Valso
g270
tp1600
a(Vplug
g10
tp1601
a(Vevery
g153
tp1602
a(Vcliche
g10
tp1603
a(Vbook
S'NN'
p1604
tp1605
aa(lp1606
(Vswoozie
g10
tp1607
a(Vkurtz
g10
tp1608
a(Vexcellent
g8
tp1609
a(Vsupporting
g16
tp1610
a(Vrole
g824
tp1611
a(Vbut
g159
tp1612
a(Vwhatbr
g8
tp1613
a(Vbr
g10
tp1614
a(Vequally
g38
tp1615
a(Vannoying
g16
tp1616
a(Vnew
g138
tp1617
a(Vimdb
g10
tp1618
a(Vrule
g10
tp1619
a(Vrequiring
g16
tp1620
a(Vten
g301
tp1621
a(Vline
g471
tp1622
a(Vevery
g153
tp1623
a(Vreview
g10
tp1624
aa(lp1625
(Vmovie
g205
tp1626
a(Vworthless
g10
tp1627
a(Vdoesnt
g10
tp1628
a(Vrequire
g161
tp1629
a(Vten
g8
tp1630
a(Vline
g471
tp1631
a(Vtext
g10
tp1632
a(Vlet
g10
tp1633
a(Vreader
g10
tp1634
a(Vknow
g14
tp1635
a(Vwaste
g10
tp1636
a(Vtime
g43
tp1637
a(Vtape
g10
tp1638
aa(lp1639
(S'avoid'
g8
tp1640
a(S'movie'
g205
tp1641
aaa(lp1642
(lp1643
(S'movie'
g205
tp1644
a(S'terrible'
g8
tp1645
aa(lp1646
(S'first'
g38
tp1647
a(S'read'
g14
tp1648
a(S'plot'
g10
tp1649
a(S'summary'
g8
tp1650
a(S'looked'
g29
tp1651
a(S'ok'
g8
tp1652
a(S'watched'
g29
tp1653
aa(lp1654
(S'acting'
g16
tp1655
a(S'terrible'
g8
tp1656
aa(lp1657
(S'like'
g166
tp1658
a(S'actor'
g10
tp1659
a(S'almost'
g151
tp1660
a(S'camera'
g10
tp1661
a(S'shy'
g10
tp1662
aa(lp1663
(S'everything'
g715
tp1664
a(S'seemed'
g29
tp1665
a(S'fake'
g8
tp1666
aa(lp1667
(Vfeel
g10
tp1668
a(Vbad
g119
tp1669
a(Vedward
g38
tp1670
a(Vfurlong
g8
tp1671
a(Vterminator
g10
tp1672
a(V2
S'CD'
p1673
tp1674
a(Vfavorite
g8
tp1675
a(Vyear
S'NN'
p1676
tp1677
a(Vago
g38
tp1678
aa(lp1679
(S'ive'
g8
tp1680
a(S'watched'
g29
tp1681
a(S'least'
g91
tp1682
a(S'20'
S'CD'
p1683
tp1684
a(S'timesbr'
g8
tp1685
a(S'br'
g10
tp1686
a(S'plot'
g10
tp1687
a(S'also'
g270
tp1688
a(S'crap'
g10
tp1689
aa(lp1690
(Vwriter
g10
tp1691
a(Vprobably
g1026
tp1692
a(Vsleep
g8
tp1693
a(Vdeprived
g169
tp1694
a(Vcame
S'VBD'
p1695
tp1696
a(Vlinesbr
g8
tp1697
a(Vbr
g10
tp1698
a(Vplus
S'CC'
p1699
tp1700
a(Vside
g10
tp1701
a(Vgood
g8
tp1702
a(Vkind
S'NN'
p1703
tp1704
a(Vbad
g119
tp1705
a(Vmovie
g205
tp1706
aa(lp1707
(Vone
g212
tp1708
a(Vkeep
g10
tp1709
a(Vwatching
g16
tp1710
a(Vsee
g14
tp1711
a(Vmuch
g8
tp1712
a(Vworst
g301
tp1713
a(Vcould
g122
tp1714
a(Vget
g14
tp1715
a(Vlater
g38
tp1716
a(Vtell
g8
tp1717
a(Vpeople
g274
tp1718
a(Vcouldnt
g161
tp1719
a(Vbelieve
g161
tp1720
a(Vterrible
g8
tp1721
a(Vmovie
g205
tp1722
a(Vwasbr
g10
tp1723
a(Vbr
g10
tp1724
a(Vthink
g161
tp1725
a(Veverybody
g10
tp1726
a(Vwatch
g10
tp1727
a(Vcould
g122
tp1728
a(Vappreciate
g14
tp1729
a(Vbetter
g263
tp1730
a(Vreal
S'JJ'
p1731
tp1732
a(Vmovie
g205
tp1733
aaa(lp1734
(lp1735
(Vturkish
g8
tp1736
a(Vactor
g10
tp1737
aa(lp1738
(Vno
g45
tp1739
a(Voffense
g10
tp1740
a(Vbut
g159
tp1741
a(Vthought
g29
tp1742
a(Vnothing
g384
tp1743
a(Vactor
g10
tp1744
aa(lp1745
(Vfilm
g98
tp1746
a(Vno
g45
tp1747
a(Vscript
g10
tp1748
a(Vtest
g10
tp1749
a(Vactor
g10
tp1750
a(Vacting
g16
tp1751
a(Vskill
g10
tp1752
a(Vability
S'NN'
p1753
tp1754
aa(lp1755
(S'demanded'
g169
tp1756
a(S'next'
g8
tp1757
a(S'nothing'
g384
tp1758
a(S'bought'
g29
tp1759
a(S'film'
g98
tp1760
a(S'see'
g10
tp1761
a(S'michael'
g10
tp1762
a(S'madsen'
g161
tp1763
aa(lp1764
(Vone
g212
tp1765
a(Vfavorite
g8
tp1766
a(Vactor
g10
tp1767
a(Vbut
g159
tp1768
a(Vfilm
g98
tp1769
a(Vanother
g579
tp1770
a(Vfailure
g10
tp1771
aa(lp1772
(S'script'
g10
tp1773
a(S'bad'
g119
tp1774
aa(lp1775
(Vnothing
g384
tp1776
a(Vsink
g10
tp1777
a(Vteeth
g161
tp1778
a(Vcharacter
g10
tp1779
a(Vtwo
g481
tp1780
a(Vdimensional
g8
tp1781
aa(lp1782
(Vmadsen
g301
tp1783
a(Vtried
g29
tp1784
a(Vact
g10
tp1785
a(Vlike
g14
tp1786
a(Vhard
g8
tp1787
a(Vas
g166
tp1788
a(Vbut
g159
tp1789
a(Vscript
g8
tp1790
a(Vdirection
g1499
tp1791
a(Vdidnt
g10
tp1792
a(Veven
g38
tp1793
a(Vallow
g14
tp1794
a(Venough
g8
tp1795
a(Vcharacter
g10
tp1796
a(Vmake
g161
tp1797
a(Vinteresting
g8
tp1798
a(V3
g212
tp1799
a(Vdimensionalbr
g10
tp1800
a(Vbr
g10
tp1801
a(Veven
g38
tp1802
a(Vsound
g8
tp1803
a(Veffect
g309
tp1804
a(Vgunfight
g10
tp1805
a(Vbeginning
g16
tp1806
a(Vfilm
g98
tp1807
a(Vsounded
g29
tp1808
a(Vlike
g166
tp1809
a(Vnoise
g10
tp1810
a(Vpaint
g10
tp1811
a(Vball
g10
tp1812
a(Vgun
g10
tp1813
a(Vfired
g29
tp1814
a(Vskirmish
g8
tp1815
aa(lp1816
(Vreally
g254
tp1817
a(Vweird
g8
tp1818
a(Vdidnt
g10
tp1819
a(Vsound
g10
tp1820
a(Vlike
g166
tp1821
a(Vreal
g1731
tp1822
a(Vgun
g10
tp1823
aa(lp1824
(Vvideo
g10
tp1825
a(Vgame
S'NN'
p1826
tp1827
a(Vbetter
g73
tp1828
a(Vsound
g8
tp1829
a(Veffect
g309
tp1830
a(Vfilm
g98
tp1831
aa(lp1832
(S'also'
g270
tp1833
a(S'really'
g254
tp1834
a(S'annoying'
g16
tp1835
a(S'bloke'
g10
tp1836
a(S'beginning'
g10
tp1837
a(S'film'
g98
tp1838
a(S'member'
S'NN'
p1839
tp1840
a(S'robbery'
g10
tp1841
a(S'gang'
g10
tp1842
aa(lp1843
(Vamerican
g8
tp1844
a(Vwhining
g16
tp1845
a(Vvoice
g10
tp1846
a(Vlike
g166
tp1847
a(Vgirl
g10
tp1848
a(Vshouting
g16
tp1849
a(Vline
g471
tp1850
a(Vlike
g166
tp1851
a(Vlet
g10
tp1852
a(Vget
g14
tp1853
a(Vfk
g8
tp1854
a(Vgoing
g874
tp1855
a(Vman
g6
tp1856
aa(lp1857
(S'sounded'
g169
tp1858
a(S'like'
g166
tp1859
a(S'girl'
g10
tp1860
aa(lp1861
(S'positive'
S'JJ'
p1862
tp1863
a(S'funny'
g10
tp1864
a(S'watch'
g10
tp1865
a(S'made'
g29
tp1866
a(S'laugh'
g10
tp1867
aa(lp1868
(Vsecond
p1869
g8
tp1870
aa(lp1871
(S'whoo'
g10
tp1872
a(S'hoo'
g10
tp1873
aa(lp1874
(S'dumb'
g10
tp1875
a(S'film'
g98
tp1876
aa(lp1877
(S'poor'
g373
tp1878
a(S'madsen'
g301
tp1879
aa(lp1880
(S'bounce'
g10
tp1881
a(S'back'
g38
tp1882
aaa(lp1883
(lp1884
(Vsaw
g10
tp1885
a(Vdvd
g10
tp1886
a(Vfriend
g10
tp1887
a(Vhouse
g532
tp1888
a(Vthought
g29
tp1889
a(Vturkish
g8
tp1890
a(Vaction
g365
tp1891
a(Vmovie
g205
tp1892
a(Vhollywood-not
g8
tp1893
a(Vvery
g38
tp1894
a(Vbig-names
g301
tp1895
aa(lp1896
(S'interested'
g8
tp1897
a(S'enough'
g38
tp1898
a(S'decide'
g161
tp1899
a(S'give'
g14
tp1900
a(S'shot'
g10
tp1901
a(S'later'
g38
tp1902
aa(lp1903
(S'tough'
S'JJ'
p1904
tp1905
a(S'bear'
g10
tp1906
a(S'experience'
g10
tp1907
a(S'believe'
g161
tp1908
aa(lp1909
(Vfinally
g1450
tp1910
a(Vseeing
g16
tp1911
a(Vcredit
S'NN'
p1912
tp1913
a(Vroll
g10
tp1914
a(Vtought
g29
tp1915
a(Vturk
g301
tp1916
a(Vreally
g254
tp1917
a(Vsuck
g8
tp1918
a(Vhollywood
g10
tp1919
a(Vstyle
S'NN'
p1920
tp1921
a(Vfilm
g98
tp1922
a(Vmaking
g10
tp1923
aa(lp1924
(S'insult'
g10
tp1925
a(S'heisthostage'
g10
tp1926
a(S'movie'
g205
tp1927
a(S'genre'
g10
tp1928
a(S'but'
g159
tp1929
a(S'wait'
g10
tp1930
aa(lp1931
(Vchecked
g169
tp1932
a(Vname
g10
tp1933
a(Vno
g45
tp1934
a(Vnot
g287
tp1935
a(Vturkish
g8
tp1936
a(Vname
g10
tp1937
a(Vno
g45
tp1938
a(Vnot
g287
tp1939
a(Vturkish
g8
tp1940
a(Vmovie
g205
tp1941
a(Vcontrary
g8
tp1942
a(Vliterally
g38
tp1943
a(Vshot
g8
tp1944
a(Vamerica
g8
tp1945
a(Vamerican
g8
tp1946
a(Vdirector
g109
tp1947
a(Vcrew
g29
tp1948
aa(lp1949
(Vmade
g169
tp1950
a(Vthinking-again-
g8
tp1951
a(Vearth
g10
tp1952
a(Vpersuade
g29
tp1953
a(Vname
g10
tp1954
a(Vlike
g166
tp1955
a(Vmicheal
g10
tp1956
a(Vmadsen
g446
tp1957
a(Vedward
g10
tp1958
a(Vfurlong
g38
tp1959
a(Veven
g38
tp1960
a(Varnold
g8
tp1961
a(Vvosloo
g301
tp1962
a(Vtake
g161
tp1963
a(Vpart
g265
tp1964
a(Vproject
g10
tp1965
aa(lp1966
(S'money'
g188
tp1967
a(S'probably'
g1026
tp1968
a(S'kept'
g29
tp1969
a(S'thinking'
g16
tp1970
a(S'raise'
g10
tp1971
a(S'amount'
g10
tp1972
a(S'money'
g188
tp1973
a(S'offer'
g10
tp1974
a(S'supposedly'
g38
tp1975
a(S'international'
S'JJ'
p1976
tp1977
a(S'cast'
g10
tp1978
aa(lp1979
(S'meditation'
g10
tp1980
a(S'paid'
g29
tp1981
a(S'came'
g1695
tp1982
a(S'find'
g38
tp1983
a(S'answerby'
g8
tp1984
a(S'hiring'
g16
tp1985
a(S'cheapest'
g91
tp1986
a(S'equipment'
S'NN'
p1987
tp1988
a(S'crew'
g10
tp1989
a(S'find'
g14
tp1990
aa(lp1991
(S'if'
g192
tp1992
a(S'still'
g736
tp1993
a(S'difficulty'
g10
tp1994
a(S'adjustin'
g8
tp1995
a(S'budget'
S'NN'
p1996
tp1997
a(S'writing'
g16
tp1998
a(S'directing'
g16
tp1999
a(S'movie'
g205
tp2000
a(S'trying'
S'VBG'
p2001
tp2002
a(S'produce-or'
g8
tp2003
a(S'vice'
S'NN'
p2004
tp2005
a(S'versa'
g10
tp2006
a(S'dont'
g8
tp2007
a(S'information'
g198
tp2008
a(S'that-'
g10
tp2009
aa(lp2010
(S'bottom'
g10
tp2011
a(S'line'
g471
tp2012
a(S'not'
g287
tp2013
a(S'bad'
g119
tp2014
a(S'movie'
g205
tp2015
a(S'everybody'
g10
tp2016
a(S'anxious'
g8
tp2017
a(S'present'
g10
tp2018
aa(lp2019
(Vmake
g14
tp2020
a(Vthink
g10
tp2021
a(V-in
g686
tp2022
a(Vcase
g1196
tp2023
a(Veven
g38
tp2024
a(Vmeditate-
g8
tp2025
a(Vlot
g10
tp2026
a(Vmovie
g205
tp2027
a(Voutthere
g38
tp2028
a(Vdoesnt
g149
tp2029
a(Vgive
g14
tp2030
a(Veven
g38
tp2031
a(Vaffect
g14
tp2032
aa(lp2033
(Vone
g212
tp2034
a(Vleast
g91
tp2035
a(Vmake
g14
tp2036
a(Vthink
g8
tp2037
a(Vmake
g14
tp2038
a(Vwonder
g10
tp2039
aa(lp2040
(Vleaf
g8
tp2041
a(Vdisbelief
g10
tp2042
a(Vmake
g10
tp2043
a(Vwonder
g10
tp2044
aaa(lp2045
(lp2046
(S'rented'
g169
tp2047
a(S'one'
g212
tp2048
a(S'dvd'
g10
tp2049
a(S'without'
S'IN'
p2050
tp2051
a(S'prior'
g8
tp2052
a(S'knowledge'
g10
tp2053
aa(lp2054
(Vsuspicious
g8
tp2055
a(Vseeing
g16
tp2056
a(Vmichael
g10
tp2057
a(Vmadsen
g10
tp2058
a(Vappearing
g16
tp2059
a(Vmovie
g205
tp2060
a(Vnever
g625
tp2061
a(Vheard
g38
tp2062
a(Vbut
g159
tp2063
a(Vfreebie
S'MD'
p2064
tp2065
a(Vnot
g287
tp2066
a(Vcheck
g14
tp2067
a(Voutbr
g10
tp2068
a(Vbr
g10
tp2069
a(Vwell
g38
tp2070
a(Vguess
g8
tp2071
a(Vmr
g10
tp2072
a(Vblonde
g10
tp2073
a(Vwould
g61
tp2074
a(Vvery
g38
tp2075
a(Vmuch
g38
tp2076
a(Vlike
g166
tp2077
a(Vforget
g10
tp2078
a(Vhe
g214
tp2079
a(Vever
g132
tp2080
a(Vtaken
S'VBN'
p2081
tp2082
a(Vpart
g265
tp2083
a(Vshame
g10
tp2084
a(Vfilmbr
g10
tp2085
a(Vbr
g10
tp2086
a(Vapparently
g201
tp2087
a(Vif
g192
tp2088
a(Vscript
g8
tp2089
a(Vdialog
g10
tp2090
a(Vterrible
g8
tp2091
a(Veven
g38
tp2092
a(Vgood
g8
tp2093
a(Vactor
g10
tp2094
a(Vcannot
g301
tp2095
a(Vsave
g161
tp2096
a(Vday
g732
tp2097
aa(lp2098
(Vnot
g287
tp2099
a(Vmention
g10
tp2100
a(Vamateur
g10
tp2101
a(Vactor
g10
tp2102
a(Vflood
g10
tp2103
a(Vfilm
g98
tp2104
aa(lp2105
(Vmany
g299
tp2106
a(Vnon-native-english-speakers
g301
tp2107
a(Vplay
g161
tp2108
a(Vpart
g265
tp2109
a(Vnative-english-speakers
g301
tp2110
a(Vreading
g16
tp2111
a(Vline
g471
tp2112
a(Vscript
g10
tp2113
a(Vthrown
g14
tp2114
a(Vaway
g38
tp2115
a(Vnot
g287
tp2116
a(Vmade
g169
tp2117
a(Vmovie
g205
tp2118
aa(lp2119
(Vunbelievable
g8
tp2120
a(Vunbelievable
g8
tp2121
a(Vline
g471
tp2122
a(Vmovie
g205
tp2123
a(Vsound
g10
tp2124
aa(lp2125
(Vmusic
g1393
tp2126
a(Vawful
g149
tp2127
a(Vtotally
g38
tp2128
a(Vplace
g8
tp2129
a(Vwhole
g8
tp2130
a(Vthing
g940
tp2131
a(Vlook
g10
tp2132
a(Vsound
g161
tp2133
a(Vlike
g166
tp2134
a(Vpoor
g373
tp2135
a(Vschool
g1065
tp2136
a(Vplaybr
g10
tp2137
a(Vbr
g8
tp2138
a(Vrecommend
g10
tp2139
a(Vwatch
g10
tp2140
a(Vwould
g61
tp2141
a(Vappreciate
g14
tp2142
a(Vbetter
g263
tp2143
a(Vmovie
g205
tp2144
aa(lp2145
(S'gave'
g602
tp2146
a(S'3'
g212
tp2147
a(S'instead'
S'RB'
p2148
tp2149
a(S'1'
S'CD'
p2150
tp2151
a(S'deserves'
g301
tp2152
aaa(lp2153
(lp2154
(S'congratulate'
g8
tp2155
a(S'genius'
g10
tp2156
a(S'approved'
g29
tp2157
a(S'one'
g212
tp2158
aa(lp2159
(S'edward'
g38
tp2160
a(S'furlong'
g8
tp2161
a(S'youre'
g10
tp2162
a(S'not'
g287
tp2163
a(S'good'
g8
tp2164
a(S'think'
g10
tp2165
a(S'mate'
g10
tp2166
a(S'cant'
g10
tp2167
a(S'grab'
g10
tp2168
a(S'every'
g153
tp2169
a(S'piece'
g10
tp2170
a(S'low-cost'
g8
tp2171
a(S'amateur'
g8
tp2172
a(S'crap'
g10
tp2173
a(S'sole'
g10
tp2174
a(S'intention'
g10
tp2175
a(S'get'
g14
tp2176
a(S'bucksbr'
g8
tp2177
a(S'br'
g10
tp2178
a(S'filming'
g16
tp2179
a(S'bad'
g119
tp2180
a(S'mean'
g10
tp2181
a(S'bad'
g119
tp2182
aa(lp2183
(Vanyone
g1313
tp2184
a(Vcamera
g10
tp2185
a(Vwould
g61
tp2186
a(Vget
g14
tp2187
a(Vresult
g14
tp2188
a(Vbetterbr
g8
tp2189
a(Vbr
g10
tp2190
a(Vacting
g16
tp2191
a(Vlet
g301
tp2192
a(Vsay
g14
tp2193
a(Vdont
g301
tp2194
a(Vgo
g161
tp2195
a(Vsupermarket
g10
tp2196
a(Vlooking
S'VBG'
p2197
tp2198
a(Vactor
g10
tp2199
aa(lp2200
(Vgood
g8
tp2201
a(Vone
g212
tp2202
a(Vusually
S'RB'
p2203
tp2204
a(Vcome
g161
tp2205
a(Vdegree
g8
tp2206
a(Vleast
g91
tp2207
a(Vdamn
g10
tp2208
a(Vexperience
g10
tp2209
aa(lp2210
(S'director'
g109
tp2211
a(S'mr'
g10
tp2212
a(S'jon'
g10
tp2213
a(S'keeyes'
g301
tp2214
a(S'please'
g161
tp2215
a(S'find'
g14
tp2216
a(S'purpose'
g8
tp2217
a(S'life'
g618
tp2218
a(S'director'
g109
tp2219
a(S'simply'
S'RB'
p2220
tp2221
a(S'suck'
g29
tp2222
aa(lp2223
(Vdirecting
g16
tp2224
a(Vpoor
g373
tp2225
a(Vangle
g301
tp2226
a(Vmessed
g29
tp2227
a(Vnot
g287
tp2228
a(Vgood
g8
tp2229
a(Vway
g437
tp2230
a(Vline
g471
tp2231
a(Vseem
g161
tp2232
a(Vif
g192
tp2233
a(Vtheyre
g8
tp2234
a(Vread
g161
tp2235
a(Vtoilet
g8
tp2236
a(Vpaper
S'NN'
p2237
tp2238
a(Vdamn
g10
tp2239
a(Vmusic
g1393
tp2240
a(Valways
S'RB'
p2241
tp2242
a(Vcome
g14
tp2243
a(Vshouldnt
g10
tp2244
a(Vgo
g161
tp2245
a(Vno
g45
tp2246
a(Vapparent
g8
tp2247
a(Vreason
g400
tp2248
aa(lp2249
(S'dont'
g10
tp2250
a(S'go'
g161
tp2251
a(S'writer'
g10
tp2252
a(S'either'
g45
tp2253
a(S'way'
g437
tp2254
aa(lp2255
(Vmaking
g16
tp2256
a(Vmovie
g205
tp2257
a(Visnt
g10
tp2258
a(Vlike
g166
tp2259
a(Vserving
g16
tp2260
a(Vcoffeshop
g10
tp2261
a(Vrequires
S'VBZ'
p2262
tp2263
a(Vart
g38
tp2264
a(Vskill
g8
tp2265
a(Vthing
g940
tp2266
a(Vreally
g254
tp2267
a(Vdoubt
g14
tp2268
a(Vyoull
g10
tp2269
a(Vever
g132
tp2270
a(Vhavebr
g29
tp2271
a(Vbr
g8
tp2272
a(Vinstead
g2148
tp2273
a(Vmaking
g16
tp2274
a(Vbadass
g10
tp2275
a(Vshootout
g10
tp2276
a(Vmovie
g205
tp2277
a(Vshouldve
g10
tp2278
a(Vshot
g29
tp2279
a(Vone
g212
tp2280
a(Vback
g10
tp2281
a(Voblivion
g10
tp2282
a(Vwait
g10
tp2283
a(Vtill
g166
tp2284
a(Vsomething
g1490
tp2285
a(Vgood
g8
tp2286
a(Vcame
g1695
tp2287
a(Vgo
g14
tp2288
a(Vfind
g8
tp2289
a(Vjob
S'NN'
p2290
tp2291
a(Vcoffeshop
g10
tp2292
aa(lp2293
(Vyoull
g10
tp2294
a(Vle
g10
tp2295
a(Vstress
g10
tp2296
a(Vyoull
g10
tp2297
a(Vsave
g161
tp2298
a(Vmovie
g205
tp2299
a(Vgoer
g10
tp2300
a(Vmoney
g188
tp2301
a(Vbad
g119
tp2302
a(Vnightbr
g38
tp2303
a(Vbr
g8
tp2304
a(Vvote
g10
tp2305
a(V110
g212
tp2306
a(Vfirst
g8
tp2307
a(Vone
g212
tp2308
aaa(lp2309
(lp2310
(S'sometimes'
g38
tp2311
a(S'movie'
g205
tp2312
a(S'comprehensively'
g38
tp2313
a(S'awful'
g8
tp2314
a(S'destructive'
g8
tp2315
a(S'effect'
g309
tp2316
a(S'morale'
g10
tp2317
aa(lp2318
(S'begin'
g14
tp2319
a(S'really'
g254
tp2320
a(S'ask'
g8
tp2321
a(S'mean'
g8
tp2322
a(S'society'
g10
tp2323
a(S'standard'
g10
tp2324
a(S'terribly'
g38
tp2325
a(S'low'
g8
tp2326
aa(lp2327
(Vhonestly
g38
tp2328
a(Vexpect
g161
tp2329
a(Vwell
g38
tp2330
a(Vendure
g38
tp2331
a(Vmany
g299
tp2332
a(Vclichs
g301
tp2333
a(Vstill
g736
tp2334
a(Ventertainedbr
g161
tp2335
a(Vbr
g8
tp2336
a(Vcourse
g652
tp2337
a(Vstill
g736
tp2338
a(Vhollywood
g29
tp2339
a(Vmainstay
g301
tp2340
a(Vmake
g161
tp2341
a(Vgun
g10
tp2342
a(Vmajor
S'JJ'
p2343
tp2344
a(Vcharacter
g10
tp2345
a(Vplot
g10
tp2346
a(Vdevice
g10
tp2347
a(Vsource
S'NN'
p2348
tp2349
a(Vconflict
g10
tp2350
a(Vresolution
g10
tp2351
a(Vfilm
g98
tp2352
aa(lp2353
(Vcharacter
g10
tp2354
a(Vneed
g2064
tp2355
a(Vgun
g14
tp2356
aa(lp2357
(Vget
g14
tp2358
a(Vgun
g10
tp2359
aa(lp2360
(S'cant'
g10
tp2361
a(S'gun'
g10
tp2362
aa(lp2363
(Vput
g14
tp2364
a(Vgun
g10
tp2365
a(Vfirst
g38
tp2366
aa(lp2367
(S'oh'
S'UH'
p2368
tp2369
a(S'god'
g10
tp2370
a(S'going'
g874
tp2371
aa(lp2372
(S'gun'
p2373
g10
tp2374
aa(lp2375
(Vwave
g10
tp2376
a(Varound
S'RP'
p2377
tp2378
a(Vacting
g16
tp2379
a(Vmalicious
g8
tp2380
a(Vreal
g1731
tp2381
a(Vhuman
g10
tp2382
a(Vbeing
S'VBG'
p2383
tp2384
a(Vever
g132
tp2385
aa(lp2386
(Vpush
g10
tp2387
a(Vsomeone
g1274
tp2388
a(Vface
g10
tp2389
a(V90
S'CD'
p2390
tp2391
a(Vminute
g10
tp2392
a(Vshouting
g16
tp2393
a(Vquestion
g10
tp2394
aa(lp2395
(Vhallmark
g10
tp2396
a(Vconclusion
g10
tp2397
a(Vcomforting
g16
tp2398
a(Vsound
g8
tp2399
a(Vpolice
g301
tp2400
a(Vsiren
g301
tp2401
aa(lp2402
(S'br'
g10
tp2403
a(S'br'
g10
tp2404
a(S'real'
g1731
tp2405
a(S'challenge'
g10
tp2406
a(S'make'
g161
tp2407
a(S'tired'
g169
tp2408
a(S'hackneyed'
g8
tp2409
a(S'formula'
g10
tp2410
a(S'work'
g10
tp2411
a(S'film'
g98
tp2412
a(S'very'
g38
tp2413
a(S'clever'
g38
tp2414
a(S'well'
g38
tp2415
a(S'executed'
g169
tp2416
aa(lp2417
(S'one'
g212
tp2418
a(S'neither'
g10
tp2419
aa(lp2420
(Vno
g45
tp2421
a(Vlife
g618
tp2422
a(Vno
g45
tp2423
a(Vpersonality
g10
tp2424
a(Vsuck
g29
tp2425
a(Vcomponent
g10
tp2426
aa(lp2427
(S'make'
g14
tp2428
a(S'feel'
g10
tp2429
a(S'worse'
g166
tp2430
a(S'living'
g10
tp2431
a(S'time'
g43
tp2432
a(S'space'
S'NN'
p2433
tp2434
aa(lp2435
(Vreally
g254
tp2436
a(Vneed
g14
tp2437
aa(lp2438
(S'yes'
g301
tp2439
a(S'ill'
g161
tp2440
a(S'say'
g161
tp2441
a(S'think'
g10
tp2442
a(S'may'
S'MD'
p2443
tp2444
a(S'well'
g38
tp2445
a(S'worst'
g14
tp2446
a(S'film'
g98
tp2447
a(S'ever'
g132
tp2448
a(S'seen'
g93
tp2449
aa(lp2450
(Vanyone
g1313
tp2451
a(Vinvolved
g169
tp2452
a(Vmaking
g16
tp2453
a(Vsub-
g8
tp2454
a(Vmediocre
g8
tp2455
a(Vsoul
g10
tp2456
a(Vkilling
g16
tp2457
a(Vtrash
g10
tp2458
a(Vpublicly
S'RB'
p2459
tp2460
a(Vembarrassed
g8
tp2461
a(Vdisservice
g10
tp2462
a(Vtheyve
g10
tp2463
a(Vdone
g547
tp2464
a(Vu
g10
tp2465
aaa(lp2466
(lp2467
(S'saw'
g10
tp2468
a(S'capsule'
g10
tp2469
a(S'comment'
g10
tp2470
a(S'said'
g393
tp2471
a(S'great'
g81
tp2472
a(S'acting'
g10
tp2473
aa(lp2474
(Vopinion
S'NN'
p2475
tp2476
a(Vtwo
g481
tp2477
a(Vgreat
g81
tp2478
a(Vactor
g10
tp2479
a(Vgiving
S'VBG'
p2480
tp2481
a(Vhorrible
g8
tp2482
a(Vperformance
g260
tp2483
a(Vzero
g212
tp2484
a(Vchemistry
g10
tp2485
a(Vone
g212
tp2486
a(Vanother
g579
tp2487
a(Vgreat
g81
tp2488
a(Vdirector
g109
tp2489
a(Vall-time
g8
tp2490
a(Vworst
g8
tp2491
a(Veffort
g1294
tp2492
aa(lp2493
(S'robert'
g10
tp2494
a(S'de'
g166
tp2495
a(S'niro'
g446
tp2496
a(S'most'
g91
tp2497
a(S'ingenious'
g8
tp2498
a(S'insightful'
g8
tp2499
a(S'illiterate'
g10
tp2500
a(S'time'
g43
tp2501
aa(lp2502
(Vjane
g10
tp2503
a(Vfonda
g10
tp2504
a(Vperformance
g260
tp2505
a(Vuncomfortably
g38
tp2506
a(Vdrift
g149
tp2507
a(Vmap
g301
tp2508
a(Vclearly
g135
tp2509
a(Vno
g45
tp2510
a(Vhandle
g8
tp2511
a(Vcharacter
g10
tp2512
a(Vmostly
S'RB'
p2513
tp2514
a(Vcharacter
g8
tp2515
a(Vpoorly
g38
tp2516
a(Vwritten
g1516
tp2517
aa(lp2518
(Vmolasses-like
g10
tp2519
a(Vwould
g61
tp2520
a(Vswift
g14
tp2521
a(Vadjective
g8
tp2522
a(Vfilm
g98
tp2523
a(Vexcruciating
g16
tp2524
a(Vpacing
g10
tp2525
aa(lp2526
(Valthough
S'IN'
p2527
tp2528
a(Vfilm
g98
tp2529
a(Vintent
g10
tp2530
a(Vuplifting
g16
tp2531
a(Vstory
g4
tp2532
a(Vcuring
g16
tp2533
a(Villiteracy
g10
tp2534
a(Vwatching
g16
tp2535
a(Vtrue
S'JJ'
p2536
tp2537
a(Vbummer
g10
tp2538
aa(lp2539
(Vgive
g14
tp2540
a(V1
g2150
tp2541
a(V10
S'CD'
p2542
tp2543
a(Vtruly
g38
tp2544
a(Vone
g212
tp2545
a(Vworst
g91
tp2546
a(V20
g1683
tp2547
a(Vmovie
g205
tp2548
a(Vbudget
g1996
tp2549
a(Vlevel
g10
tp2550
a(Vever
g132
tp2551
a(Vseen
g93
tp2552
aaa(lp2553
(lp2554
(Vif
g192
tp2555
a(Vnot
g287
tp2556
a(Vread
g14
tp2557
a(Vpat
g10
tp2558
a(Vbarker
g10
tp2559
a(Vunion
S'NN'
p2560
tp2561
a(Vstreet
g10
tp2562
a(Vseeing
g16
tp2563
a(Vfilm
g98
tp2564
a(Vwould
g61
tp2565
a(Vliked
g14
tp2566
aa(lp2567
(S'unfortuntately'
g38
tp2568
a(S'not'
g287
tp2569
a(S'case'
g1196
tp2570
aa(lp2571
(Vactually
g952
tp2572
a(Vkind
g1703
tp2573
a(Vfilm
g98
tp2574
a(Vwell
g38
tp2575
a(Vmade
g29
tp2576
a(Vno
g45
tp2577
a(Vway
g437
tp2578
a(Vwant
g161
tp2579
a(Vsay
g161
tp2580
a(Votherwise
g38
tp2581
a(Vbut
g159
tp2582
a(Vadaptation
g10
tp2583
a(Vfails
g149
tp2584
a(Vevery
g153
tp2585
a(Vanglebr
g10
tp2586
a(Vbr
g10
tp2587
a(Vharrowing
g16
tp2588
a(Vnovel
g8
tp2589
a(Vreality
g10
tp2590
a(Vliving
g16
tp2591
a(Vnorthern
g8
tp2592
a(Vengland
g8
tp2593
a(Vworking-class
g8
tp2594
a(Varea
S'NN'
p2595
tp2596
a(Vgrabbed
g29
tp2597
a(Vhold
g8
tp2598
a(Vheartstrings
g301
tp2599
a(Vrefused
g29
tp2600
a(Vlet
g10
tp2601
a(Vgo
g14
tp2602
a(Vweek
S'NN'
p2603
tp2604
a(Vfinished
g169
tp2605
aa(lp2606
(Vput
g169
tp2607
a(Vtear
g8
tp2608
a(Vrepulsion
g10
tp2609
a(Vshock
g10
tp2610
a(Vanger
g10
tp2611
a(Vsympathy
g8
tp2612
a(Vmisery
g10
tp2613
a(Vreading
g16
tp2614
a(Vwoman
g645
tp2615
a(Vunion
g2560
tp2616
a(Vstreet
g10
tp2617
aa(lp2618
(S'excellent'
p2619
g10
tp2620
aa(lp2621
(Vnovel
g8
tp2622
a(Vtime
g43
tp2623
a(Vfelt
g301
tp2624
a(Vcould
g122
tp2625
a(Vnot
g287
tp2626
a(Vread
g14
tp2627
a(Vbut
g159
tp2628
a(Vnovel
g14
tp2629
a(Vsimply
g2220
tp2630
a(Vcouldnt
g8
tp2631
a(Vput
g10
tp2632
aa(lp2633
(S'depressing'
g16
tp2634
a(S'yes'
g301
tp2635
a(S'but'
g159
tp2636
a(S'utterly'
g8
tp2637
a(S'grippingbr'
g10
tp2638
a(S'br'
g10
tp2639
a(S'film'
g98
tp2640
aa(lp2641
(S'oh'
g2368
tp2642
a(S'dear'
g10
tp2643
aa(lp2644
(Vhollywood
g10
tp2645
a(Vtook
g1464
tp2646
a(Vbarker
g10
tp2647
a(Vtruth
g10
tp2648
a(Vreality
g10
tp2649
a(Vshowered
g29
tp2650
a(Vlayer
g8
tp2651
a(Vsweet
g8
tp2652
a(Vicing
g16
tp2653
a(Vsugar
g10
tp2654
a(Vtop
g10
tp2655
aa(lp2656
(Vbeautiful
g8
tp2657
a(Vfilm
g98
tp2658
a(Vinspiring
g16
tp2659
a(Vsoundtrack
g8
tp2660
a(Vexcellent
g8
tp2661
a(Vperformance
g260
tp2662
a(Vtale
g10
tp2663
a(Vhope
g161
tp2664
a(Vromanceyes
g301
tp2665
aa(lp2666
(Vadaptation
g10
tp2667
a(Vunion
g2560
tp2668
a(Vstreetnobr
g10
tp2669
a(Vbr
g10
tp2670
a(Vwoman
g645
tp2671
a(Vunion
g2560
tp2672
a(Vstreet
g10
tp2673
a(Vstory
g4
tp2674
a(Vcondensed
g169
tp2675
a(Vfonda
g8
tp2676
a(Vcharacter
g10
tp2677
a(Vstory
g4
tp2678
a(Vtouched
g29
tp2679
a(Vbut
g159
tp2680
a(Vmany
g299
tp2681
a(Vdiscarded
g29
tp2682
aa(lp2683
(Vaccept
g8
tp2684
a(Vbarker
g10
tp2685
a(Vtale
g10
tp2686
a(Vsensitive
g8
tp2687
a(Vissue
g10
tp2688
a(Vhorrific
g8
tp2689
a(Vmass
g10
tp2690
a(Vviewing
g10
tp2691
a(Vfilm
g98
tp2692
a(Varound
g166
tp2693
a(V7
S'CD'
p2694
tp2695
a(Vleading
g16
tp2696
a(Vprotagonist
g10
tp2697
a(Visnt
g8
tp2698
a(Vpractical
g8
tp2699
a(Vbut
g159
tp2700
a(Vcontent
g8
tp2701
a(Vnot
g287
tp2702
a(Vmain
g1218
tp2703
a(Vissue
g10
tp2704
aa(lp2705
(Vessence
g10
tp2706
a(Vreal
g1731
tp2707
a(Vgut
g10
tp2708
a(Vnovel
g10
tp2709
a(Vlost
g29
tp2710
a(V-
S':'
tp2711
a(Vdarkness
g10
tp2712
a(Vrain
g10
tp2713
a(Vbroken
g8
tp2714
a(Vwindow
g10
tp2715
a(Vcovered
g29
tp2716
a(Vcardboard
g38
tp2717
a(Vgraphically
g38
tp2718
a(Vdescribed
g169
tp2719
a(Vstench
g8
tp2720
a(Vpoverty
g10
tp2721
a(Vreplaced
g29
tp2722
a(Vsunshine
g8
tp2723
a(Vpretty
g38
tp2724
a(Vhouse
g532
tp2725
a(Vtwinkling
g16
tp2726
a(Vwilliams
g301
tp2727
a(Vscorebr
g161
tp2728
a(Vbr
g10
tp2729
a(Vif
g192
tp2730
a(Venjoyed
g169
tp2731
a(Vfilm
g98
tp2732
a(Vpositivity
g10
tp2733
a(Vhope
g161
tp2734
a(Vface
g10
tp2735
a(Vreality
g10
tp2736
a(Vadvise
g161
tp2737
a(Vhesitate
g10
tp2738
a(Vread
g169
tp2739
a(Vbook
g1604
tp2740
a(Vwithout
g2050
tp2741
a(Vfirst
g8
tp2742
a(Vpreparing
g16
tp2743
a(Vsomething
g1490
tp2744
a(Vlike
g166
tp2745
a(Vschindlers
g301
tp2746
a(Vlistbut
g161
tp2747
a(Vwithout
g2050
tp2748
a(Vhappy
g8
tp2749
a(Vending
g632
tp2750
aaa(lp2751
(lp2752
(Vfanciful
g8
tp2753
a(Vhorror
g10
tp2754
a(Vflick
g8
tp2755
a(Vvincent
g10
tp2756
a(Vprice
g635
tp2757
a(Vplaying
g16
tp2758
a(Vmad
g8
tp2759
a(Vmagician
g8
tp2760
a(Vrealizes
g149
tp2761
a(Vvocational
g8
tp2762
a(Vtalent
g10
tp2763
a(Vsold
g29
tp2764
a(Vanother
g579
tp2765
aa(lp2766
(Vdevise
g14
tp2767
a(Vway
g437
tp2768
a(Vavenging
g16
tp2769
a(Vwronged
g29
tp2770
aa(lp2771
(Vmaster
g10
tp2772
a(Vscheme
g10
tp2773
a(Vseems
g1093
tp2774
a(Vback
g38
tp2775
a(Vfire
g10
tp2776
a(Vhimbr
g10
tp2777
a(Vbr
g8
tp2778
a(Vprice
g635
tp2779
a(Vlittle
g8
tp2780
a(Vpar
g10
tp2781
a(Vcompared
S'VBN'
p2782
tp2783
a(Vmasterpiece
g10
tp2784
a(Vbut
g159
tp2785
a(Vstill
g736
tp2786
a(Vreason
g400
tp2787
a(Vwatch
g10
tp2788
a(Vthriller
g10
tp2789
aa(lp2790
(S'supporting'
g16
tp2791
a(S'cast'
g10
tp2792
a(S'includes'
S'VBZ'
p2793
tp2794
a(S'patrick'
g8
tp2795
a(S'oneal'
g10
tp2796
a(S'mary'
g8
tp2797
a(S'murphy'
g10
tp2798
a(S'eva'
g10
tp2799
a(S'gabor'
g10
tp2800
a(S'jay'
g10
tp2801
a(S'novellobr'
g10
tp2802
a(S'br'
g10
tp2803
aaa(lp2804
(lp2805
(S'basically'
g38
tp2806
a(S'skimmed'
g8
tp2807
a(S'movie'
g205
tp2808
a(S'but'
g159
tp2809
a(S'enough'
g8
tp2810
a(S'catch'
g10
tp2811
a(S'watch'
g10
tp2812
a(S'plot'
g10
tp2813
aa(lp2814
(Vtell
g14
tp2815
a(Vtruth
g10
tp2816
a(Vkind
g1703
tp2817
a(Vboring
g16
tp2818
a(Vspot
g10
tp2819
a(Vdidnt
g301
tp2820
a(Vmake
g161
tp2821
a(Vsense
g10
tp2822
aa(lp2823
(S'reason'
g400
tp2824
a(S'watched'
g29
tp2825
a(S'movie'
g205
tp2826
a(S'first'
g8
tp2827
a(S'place'
g10
tp2828
a(S'see'
g161
tp2829
a(S'chace'
g10
tp2830
a(S'crawford'
g10
tp2831
aa(lp2832
(S'hot'
g8
tp2833
a(S'but'
g159
tp2834
a(S'movie'
g205
tp2835
a(S'hair'
g10
tp2836
a(S'kind'
g1703
tp2837
a(S'weird'
g10
tp2838
aa(lp2839
(S'but'
g159
tp2840
a(S'still'
g736
tp2841
a(S'hotbr'
g8
tp2842
a(S'br'
g10
tp2843
a(S'however'
g106
tp2844
a(S'despite'
g1207
tp2845
a(S'hot'
g8
tp2846
a(S'chace'
g10
tp2847
a(S'really'
g254
tp2848
a(S'not'
g287
tp2849
a(S'make'
g14
tp2850
a(S'film'
g98
tp2851
aa(lp2852
(S'guess'
g10
tp2853
a(S'plot'
g10
tp2854
a(S'isnt'
g8
tp2855
a(S'bad'
g119
tp2856
a(S'but'
g159
tp2857
a(S'really'
g254
tp2858
a(S'threw'
g8
tp2859
a(S'fact'
g404
tp2860
a(S'cuss'
g301
tp2861
a(S'like'
g166
tp2862
a(S'every'
g153
tp2863
a(S'sentence'
g10
tp2864
aa(lp2865
(S'hard'
g38
tp2866
a(S'express'
g10
tp2867
a(S'anger'
g10
tp2868
a(S'without'
g2050
tp2869
a(S'saying'
g16
tp2870
a(S'f'
g10
tp2871
a(S'word'
S'NN'
p2872
tp2873
a(S'every'
g153
tp2874
a(S'timethe'
g10
tp2875
a(S'cussing'
g16
tp2876
a(S'annoying'
g16
tp2877
a(S'whole'
g8
tp2878
a(S'flashy'
g8
tp2879
a(S'camera'
g10
tp2880
a(S'shaking'
g16
tp2881
a(S'thing'
g940
tp2882
a(S'gave'
g602
tp2883
a(S'headachebr'
g8
tp2884
a(S'br'
g10
tp2885
a(S'although'
g2527
tp2886
a(S'plot'
g10
tp2887
a(S'ok'
g10
tp2888
a(S'found'
g29
tp2889
a(S'film'
g98
tp2890
a(S'bore'
g73
tp2891
a(S'dramatic'
g8
tp2892
aa(lp2893
(Vthats
g301
tp2894
a(Vcut
g29
tp2895
a(Vscene
g10
tp2896
a(Vchace
g10
tp2897
aa(lp2898
(S'lol'
g10
tp2899
a(S'anyways'
g149
tp2900
a(S'not'
g287
tp2901
a(S'worth'
g8
tp2902
a(S'renting'
g16
tp2903
a(S'unless'
S'IN'
p2904
tp2905
a(S'die-hard'
g8
tp2906
a(S'fan'
g10
tp2907
a(S'specific'
g8
tp2908
a(S'cast'
g8
tp2909
a(S'member'
g1839
tp2910
a(S'like'
g166
tp2911
aa(lp2912
(S'oh'
g2368
tp2913
a(S'yeah'
g2368
tp2914
a(S'cast'
g10
tp2915
a(S'hot'
g8
tp2916
aa(lp2917
(Vgirl
g10
tp2918
a(Vhot
g8
tp2919
aa(lp2920
(S'but'
g159
tp2921
a(S'chace'
g10
tp2922
a(S'best'
g91
tp2923
aa(lp2924
aa(lp2925
(lp2926
(Vbeginning
g16
tp2927
a(Vmovie
g205
tp2928
a(Vgive
g8
tp2929
a(Vfeeling
g10
tp2930
a(Vdirector
g109
tp2931
a(Vtrying
g2001
tp2932
a(Vportray
g10
tp2933
a(Vsomething
g1490
tp2934
a(Vmean
g8
tp2935
a(Vsay
g161
tp2936
a(Vinstead
g2148
tp2937
a(Vstory
g4
tp2938
a(Vdictating
g16
tp2939
a(Vstyle
g1920
tp2940
a(Vmovie
g205
tp2941
a(Vmade
g29
tp2942
a(Vgone
S'VBN'
p2943
tp2944
a(Vopposite
g8
tp2945
a(Vway
g437
tp2946
a(Vtype
g8
tp2947
a(Vmove
g10
tp2948
a(Vwanted
g29
tp2949
a(Vmake
g8
tp2950
a(Vwrote
S'VBD'
p2951
tp2952
a(Vstory
g4
tp2953
a(Vsuite
g10
tp2954
aa(lp2955
(S'failed'
g8
tp2956
a(S'very'
g38
tp2957
a(S'badly'
g38
tp2958
aa(lp2959
(S'guess'
g10
tp2960
a(S'trying'
g2001
tp2961
a(S'make'
g14
tp2962
a(S'stylish'
g8
tp2963
a(S'movie'
g205
tp2964
aa(lp2965
(S'way'
g437
tp2966
a(S'think'
g161
tp2967
a(S'movie'
g205
tp2968
a(S'total'
g8
tp2969
a(S'waste'
g10
tp2970
a(S'time'
g43
tp2971
a(S'effort'
g1294
tp2972
aa(lp2973
(Vcredit
g1912
tp2974
a(Vdirector
g109
tp2975
a(Vknow
g161
tp2976
a(Vmedium
g10
tp2977
a(Vworking
g16
tp2978
a(Vtrying
g2001
tp2979
a(Vsay
g161
tp2980
a(Vseen
g93
tp2981
a(Vworst
g91
tp2982
a(Vmovie
g205
tp2983
aa(lp2984
(Vleast
g91
tp2985
a(Vdirector
g109
tp2986
a(Vknow
g161
tp2987
a(Vmaintain
g161
tp2988
a(Vcontinuity
g10
tp2989
a(Vmovie
g205
tp2990
aa(lp2991
(Vactor
g10
tp2992
a(Valso
g270
tp2993
a(Vgiven
g943
tp2994
a(Vdecent
g8
tp2995
a(Vperformance
g260
tp2996
aaa(lp2997
(lp2998
(S'really'
g254
tp2999
a(S'new'
g138
tp3000
a(S'low'
g8
tp3001
a(S'entertainment'
S'NN'
p3002
tp3003
aa(lp3004
(Veven
g38
tp3005
a(Vthough
g166
tp3006
a(Vlot
g10
tp3007
a(Vworse
g263
tp3008
a(Vmovie
g205
tp3009
a(Voutbr
g166
tp3010
a(Vbr
g8
tp3011
a(Vgangster
g8
tp3012
a(Vdrug
g311
tp3013
a(Vscene
g10
tp3014
a(Vgenre
g161
tp3015
a(Vhard
g8
tp3016
a(Vconvincing
g10
tp3017
a(Vstoryline
g10
tp3018
a(Vmovie
g205
tp3019
a(Vnot
g287
tp3020
a(Vmean
g8
tp3021
a(Vsebastians
g301
tp3022
a(Vmotif
g161
tp3023
a(Vexample
g20
tp3024
a(Vcouldnt
g10
tp3025
a(Vfar
g340
tp3026
a(Vfetched
g29
tp3027
a(Vworn
g8
tp3028
a(Vclich
g10
tp3029
aa(lp3030
(Vwould
g61
tp3031
a(Valso
g270
tp3032
a(Vneed
g14
tp3033
a(Vsetting
g16
tp3034
a(Vcharacter
g10
tp3035
a(Vrelationship
S'NN'
p3036
tp3037
a(Vbelievable
g8
tp3038
a(Vmovie
g205
tp3039
a(Vnot
g287
tp3040
aa(lp3041
(S'br'
g10
tp3042
a(S'br'
g10
tp3043
a(S'sure'
g8
tp3044
a(S'tristan'
g8
tp3045
a(S'drawn'
g10
tp3046
a(S'away'
g38
tp3047
a(S'family'
g535
tp3048
a(S'but'
g159
tp3049
aa(lp3050
(S'whats'
g301
tp3051
a(S'deal'
g161
tp3052
a(S'father'
g38
tp3053
a(S'ask'
g14
tp3054
a(S'permission'
g10
tp3055
a(S'go'
g161
tp3056
a(S'age'
S'NN'
p3057
tp3058
aa(lp3059
(Vinteresting
g8
tp3060
a(Vpicture
g10
tp3061
a(Vthough
g166
tp3062
a(Vask
g8
tp3063
a(Vlack
g10
tp3064
a(Vneed
g161
tp3065
a(Vrebellious
g8
tp3066
a(Vbehavior
g10
tp3067
a(Vkid
g446
tp3068
a(Vupper
g8
tp3069
a(Vclass
S'NN'
p3070
tp3071
a(Vfamily
g535
tp3072
aa(lp3073
(S'but'
g159
tp3074
a(S'movie'
g205
tp3075
a(S'not'
g287
tp3076
a(S'go'
g14
tp3077
a(S'direction'
g1499
tp3078
aa(lp3079
(S'even'
g38
tp3080
a(S'though'
g166
tp3081
a(S'would'
g61
tp3082
a(S'potential'
g14
tp3083
a(S'judging'
g10
tp3084
a(S'random'
g10
tp3085
a(S'backflashes'
g301
tp3086
aa(lp3087
(S'wasnt'
g301
tp3088
a(S'already'
g329
tp3089
aa(lp3090
(Vbr
g10
tp3091
a(Vbr
g10
tp3092
a(Vinteresting
g16
tp3093
a(Vquestion
g10
tp3094
a(Vbrought
g29
tp3095
a(Vsolid
g8
tp3096
a(Vsocially
g38
tp3097
a(Vcritic
g8
tp3098
a(Vdrama
g10
tp3099
a(Vbut
g159
tp3100
a(Vmovie
g205
tp3101
a(Vnot
g287
tp3102
a(Vfocusing
g16
tp3103
a(Vcool
g8
tp3104
a(Vproduction
g209
tp3105
a(Vtechnique
g10
tp3106
a(Vspecial
g8
tp3107
a(Veffect
g309
tp3108
a(Vnot
g287
tp3109
a(Vgiving
g2480
tp3110
a(Vcharacter
g10
tp3111
a(Vmoment
S'NN'
p3112
tp3113
a(Vreflect
g161
tp3114
a(Vmost
g937
tp3115
a(Vforcing
g8
tp3116
a(Vstory
g4
tp3117
a(Valong
g166
tp3118
a(Vpath
g10
tp3119
a(Vwant
g161
tp3120
a(Vnot
g287
tp3121
a(Vpaying
S'VBG'
p3122
tp3123
a(Vattention
S'NN'
p3124
tp3125
a(Vlet
g446
tp3126
a(Vstory
g4
tp3127
a(Vbreath
g10
tp3128
a(Vnaturally
g38
tp3129
a(Vevolve
g14
tp3130
aa(lp3131
(Vbr
g301
tp3132
a(Vbr
g161
tp3133
a(Vwant
g161
tp3134
a(Vdrama
g10
tp3135
a(Vnot
g287
tp3136
a(Vglorify
g14
tp3137
a(Vabuse
g10
tp3138
a(Vsubstance
g10
tp3139
a(Vviolence
g10
tp3140
a(Vwould
g61
tp3141
a(Vpolitical
S'JJ'
p3142
tp3143
a(Vincorrect
g10
tp3144
a(Vday
g732
tp3145
a(Vwouldnt
g29
tp3146
aa(lp3147
(Vbut
g159
tp3148
a(Vhand
S'NN'
p3149
tp3150
a(Vnothing
g384
tp3151
a(Vcheap
g8
tp3152
a(Vaction
g365
tp3153
a(Vmovie
g205
tp3154
a(Vlike
g166
tp3155
a(Vmany
g299
tp3156
a(Vaverage
g8
tp3157
a(Vset
g169
tp3158
a(Vactor
g10
tp3159
a(Vvinnie
g10
tp3160
a(Vjones
g301
tp3161
a(Vmanaging
g16
tp3162
a(Vnot
g287
tp3163
a(Vtotally
g38
tp3164
a(Vruin
g8
tp3165
a(Vwhats
g301
tp3166
a(Vleft
g29
tp3167
a(Vreputation
g10
tp3168
a(Valways
g2241
tp3169
a(Vdoesbr
g149
tp3170
a(Vbr
g8
tp3171
a(Vcant
g8
tp3172
a(Vrecommend
g10
tp3173
a(Vitbr
g10
tp3174
a(Vbr
g29
tp3175
a(V1
g2150
tp3176
a(Vvinnie
g10
tp3177
a(V2
g1673
tp3178
a(Vediting
g10
tp3179
aaa(lp3180
(lp3181
(V610
g212
tp3182
a(Vacting
g16
tp3183
a(Vnot
g287
tp3184
a(Vgreat
g81
tp3185
a(Vbut
g159
tp3186
a(Vgood
g8
tp3187
a(Vactingbr
g10
tp3188
a(Vbr
g10
tp3189
a(V410
g212
tp3190
a(Vdirector
g109
tp3191
a(Vmake
g161
tp3192
a(Vstupid
g8
tp3193
a(Vdecision
S'NN'
p3194
tp3195
a(Vfilmbr
g10
tp3196
a(Vbr
g29
tp3197
a(V210
g212
tp3198
a(Vwriter
g10
tp3199
a(Vstory
g4
tp3200
a(Vmake
g161
tp3201
a(Vno
g45
tp3202
a(Vsense
g10
tp3203
a(Vhuge
S'JJ'
p3204
tp3205
a(Vamount
g10
tp3206
a(Vflawsbr
g29
tp3207
a(Vbr
g38
tp3208
a(V410
g212
tp3209
a(Voverall
g8
tp3210
a(Vscore
g10
tp3211
a(Vmoviebr
g10
tp3212
a(Vbr
g10
tp3213
a(Vdont
g10
tp3214
a(Vwaste
g10
tp3215
a(Vtime
g43
tp3216
a(Vfilm
g98
tp3217
a(Vnot
g287
tp3218
a(Vworth
g8
tp3219
aa(lp3220
(S'gave'
g602
tp3221
a(S'4'
S'CD'
p3222
tp3223
a(S'movie'
g205
tp3224
a(S'may'
g2443
tp3225
a(S'much'
g14
tp3226
aa(lp3227
(Vcharacter
g10
tp3228
a(Vexaggerated
g29
tp3229
a(Vever
g132
tp3230
a(Vreal
g1731
tp3231
a(Vlife
g618
tp3232
a(Vpretty
g38
tp3233
a(Vunexplainable
g8
tp3234
a(Vstuff
g10
tp3235
a(Vhappens
g301
tp3236
a(Vstorywise
g2064
tp3237
a(Vnot
g287
tp3238
a(Vgood
g8
tp3239
a(Vway
g437
tp3240
aa(lp3241
(Vstyle
g1920
tp3242
a(Vfilm
g98
tp3243
a(Vfilmed
g29
tp3244
a(Vget
g14
tp3245
a(Vbored
g8
tp3246
a(V30
S'CD'
p3247
tp3248
a(Vminute
g10
tp3249
a(Vmany
g299
tp3250
a(Vspecial
g8
tp3251
a(Veffect
g309
tp3252
a(Vslow
g8
tp3253
a(Vmotion
g10
tp3254
a(Vcamera
g10
tp3255
a(Vshake
g14
tp3256
a(Vfast
g8
tp3257
a(Vforward
g10
tp3258
aa(lp3259
(Valways
g2241
tp3260
a(Vgood
g8
tp3261
a(Vmovie
g205
tp3262
a(Vus
S'PRP'
p3263
tp3264
a(Vmusic
g1393
tp3265
a(Vmake
g161
tp3266
a(Vstory
g4
tp3267
a(Vgo
g14
tp3268
a(Vsmooth
g8
tp3269
a(Vbut
g159
tp3270
a(Vthere
g38
tp3271
a(Vmany
g299
tp3272
a(Vtrack
g161
tp3273
a(Vone
g212
tp3274
aa(lp3275
(Vfirst
g38
tp3276
a(Vhour
g238
tp3277
a(Valmost
g151
tp3278
a(V5050
g212
tp3279
a(Vdialog
g10
tp3280
a(Vmusic
g1393
tp3281
aaa(lp3282
(lp3283
(Vone
g212
tp3284
a(Vdumbest
g91
tp3285
a(Vfilm
g98
tp3286
a(Vive
g8
tp3287
a(Vever
g132
tp3288
a(Vseen
g93
tp3289
aa(lp3290
(Vrip
g10
tp3291
a(Vnearly
S'RB'
p3292
tp3293
a(Vever
g132
tp3294
a(Vtype
g8
tp3295
a(Vthriller
g10
tp3296
a(Vmanages
g301
tp3297
a(Vmake
g161
tp3298
a(Vmess
g10
tp3299
a(Vallbr
g10
tp3300
a(Vbr
g10
tp3301
a(Vthere
g38
tp3302
a(Vnot
g287
tp3303
a(Vsingle
S'JJ'
p3304
tp3305
a(Vgood
g8
tp3306
a(Vline
g471
tp3307
a(Vcharacter
g10
tp3308
a(Vwhole
g8
tp3309
a(Vmess
g10
tp3310
aa(lp3311
(Vif
g192
tp3312
a(Vplot
g10
tp3313
a(Vafterthought
g29
tp3314
a(Vfar
g340
tp3315
a(Vacting
g16
tp3316
a(Vgo
g14
tp3317
a(Vthere
g38
tp3318
a(Vnothing
g384
tp3319
a(Vgood
g8
tp3320
a(Vsay
g10
tp3321
a(Vill
g301
tp3322
a(Vsay
g161
tp3323
a(Vnothing
g384
tp3324
aa(lp3325
(Vhonestly
g38
tp3326
a(Vcant
g8
tp3327
a(Vunderstand
g10
tp3328
a(Vtype
g10
tp3329
a(Vnonsense
g10
tp3330
a(Vget
g10
tp3331
a(Vproduced
g169
tp3332
a(Vactually
g952
tp3333
a(Vreleased
g169
tp3334
a(Vsomebody
g10
tp3335
a(Vsomewhere
g38
tp3336
a(Vnot
g287
tp3337
a(Vstage
g14
tp3338
a(Vthink
g14
tp3339
a(Voh
g8
tp3340
a(Vgod
g301
tp3341
a(Vreally
g254
tp3342
a(Vload
g8
tp3343
a(Vshite
g8
tp3344
a(Vcall
g10
tp3345
a(Vday
g732
tp3346
aa(lp3347
(Vcrap
g10
tp3348
a(Vlike
g166
tp3349
a(Vpeople
g274
tp3350
a(Vdownloading
g16
tp3351
a(Villegally
g38
tp3352
a(Vtrailer
g8
tp3353
a(Vlook
g10
tp3354
a(Vlike
g166
tp3355
a(Vcompletely
g38
tp3356
a(Vdifferent
g1384
tp3357
a(Vfilm
g98
tp3358
a(Vleast
g91
tp3359
a(Vif
g192
tp3360
a(Vdownload
g8
tp3361
a(Vhavent
g10
tp3362
a(Vwasted
g29
tp3363
a(Vtime
g43
tp3364
a(Vmoney
g188
tp3365
a(Vdont
g10
tp3366
a(Vwaste
g10
tp3367
a(Vtime
g43
tp3368
a(Vpainful
g8
tp3369
aaa.