(lp1
(lp2
(lp3
(Vstory
S'NN'
p4
tp5
a(Vman
S'NN'
p6
tp7
a(Vunnatural
S'JJ'
p8
tp9
a(Vfeeling
S'NN'
p10
tp11
a(Vpig
g10
tp12
aa(lp13
(Vstart
S'VB'
p14
tp15
a(Vopening
S'VBG'
p16
tp17
a(Vscene
g10
tp18
a(Vterrific
g8
tp19
a(Vexample
S'NN'
p20
tp21
a(Vabsurd
g8
tp22
a(Vcomedy
g10
tp23
aa(lp24
(Vformal
g8
tp25
a(Vorchestra
g10
tp26
a(Vaudience
S'NN'
p27
tp28
a(Vturned
S'VBD'
p29
tp30
a(Vinsane
g8
tp31
a(Vviolent
g8
tp32
a(Vmob
g10
tp33
a(Vcrazy
g10
tp34
a(Vchanting
g10
tp35
a(Vsinger
g10
tp36
aa(lp37
(Vunfortunately
S'RB'
p38
tp39
a(Vstay
g8
tp40
a(Vabsurd
g8
tp41
a(Vwhole
g8
tp42
a(Vtime
S'NN'
p43
tp44
a(Vno
S'DT'
p45
tp46
a(Vgeneral
g8
tp47
a(Vnarrative
g8
tp48
a(Veventually
S'RB'
p49
tp50
a(Vmaking
g16
tp51
a(Vputting
S'VBG'
p52
tp53
aa(lp54
(S'even'
g38
tp55
a(S'era'
g10
tp56
a(S'turned'
g29
tp57
aa(lp58
(S'cryptic'
g8
tp59
a(S'dialogue'
g10
tp60
a(S'would'
S'MD'
p61
tp62
a(S'make'
g14
tp63
a(S'shakespeare'
g10
tp64
a(S'seem'
g8
tp65
a(S'easy'
g8
tp66
a(S'third'
g8
tp67
a(S'grader'
g10
tp68
aa(lp69
(S'technical'
S'JJ'
p70
tp71
a(S'level'
g10
tp72
a(S'better'
S'RBR'
p73
tp74
a(S'might'
S'MD'
p75
tp76
a(S'think'
g14
tp77
a(S'good'
g8
tp78
a(S'cinematography'
g10
tp79
a(S'future'
g10
tp80
a(S'great'
S'JJ'
p81
tp82
a(S'vilmos'
g8
tp83
a(S'zsigmond'
g10
tp84
aa(lp85
(Vfuture
g8
tp86
a(Vstar
g10
tp87
a(Vsally
g38
tp88
a(Vkirkland
g14
tp89
a(Vfrederic
g8
tp90
a(Vforrest
S'JJS'
p91
tp92
a(Vseen
S'VBN'
p93
tp94
a(Vbriefly
g10
tp95
aaa(lp96
(lp97
(Vfilm
S'NN'
p98
tp99
a(Vlot
g10
tp100
a(Vpromise
g10
tp101
a(Vplot
g10
tp102
a(Vrelatively
S'RB'
p103
tp104
a(Vinteresting
g8
tp105
a(Vhowever
S'RB'
p106
tp107
a(Vactor
g10
tp108
a(Vdirector
S'NN'
p109
tp110
a(Veditor
S'NN'
p111
tp112
a(Vseriously
g38
tp113
a(Vlet
g14
tp114
a(Vfilm
g98
tp115
a(Vdownbr
g14
tp116
a(Vbr
g10
tp117
a(Vfeel
g10
tp118
a(Vbad
S'JJ'
p119
tp120
a(Vwriter
g10
tp121
a(Vcould
S'MD'
p122
tp123
a(Vgood
g14
tp124
aa(lp125
(Vacting
g16
tp126
a(Vwooden
g8
tp127
a(Vvery
g38
tp128
a(Vcharacter
g8
tp129
a(Vbelievablebr
g10
tp130
a(Vbr
g10
tp131
a(Vever
S'RB'
p132
tp133
a(Vedited
g29
tp134
a(Vclearly
S'RB'
p135
tp136
a(Vlearnt
g8
tp137
a(Vnew
S'JJ'
p138
tp139
a(Vedit
g10
tp140
a(Vtechnique
g10
tp141
a(Vwanted
g29
tp142
a(Vsplash
g10
tp143
a(Vfilm
g98
tp144
aa(lp145
(Vlot
g10
tp146
a(Vquick
g8
tp147
a(Vflashy
g10
tp148
a(Vedits
S'VBZ'
p149
tp150
a(Valmost
S'RB'
p151
tp152
a(Vevery
S'DT'
p153
tp154
a(Vscene
g10
tp155
a(Vclearly
g135
tp156
a(Vmeant
g8
tp157
a(Vsymbolic
g10
tp158
a(Vbut
S'CC'
p159
tp160
a(Vend
S'VBP'
p161
tp162
a(Vannoyingbr
g8
tp163
a(Vbr
g10
tp164
a(Vwanted
g29
tp165
a(Vlike
S'IN'
p166
tp167
a(Vfilm
g98
tp168
a(Vexpected
S'VBN'
p169
tp170
a(Vdecent
g8
tp171
a(Vresolution
g10
tp172
a(Vbreakdown
g166
tp173
a(Vequilibrium
g10
tp174
a(Vbut
g159
tp175
a(Vala
g149
tp176
a(Vno
g45
tp177
a(Vleft
g8
tp178
a(Vfeeling
g10
tp179
a(Vlike
g166
tp180
a(Vid
g10
tp181
a(Vwasted
g29
tp182
a(Vtime
g43
tp183
a(Vfilm
g98
tp184
a(Vmaker
S'NN'
p185
tp186
a(Vwasted
g29
tp187
a(Vmoney
S'NN'
p188
tp189
aaa(lp190
(lp191
(Vrobert
g10
tp192
a(Vdeniro
g10
tp193
a(Vplay
g161
tp194
a(Vmost
S'RBS'
p195
tp196
a(Vunbelievably
g8
tp197
a(Vintelligent
g8
tp198
a(Villiterate
g10
tp199
a(Vtime
g43
tp200
aa(lp201
(S'movie'
S'NN'
p202
tp203
a(S'wasteful'
g8
tp204
a(S'talent'
g10
tp205
a(S'truly'
g38
tp206
a(S'disgusting'
g16
tp207
aa(lp208
(S'script'
g10
tp209
a(S'unbelievable'
g8
tp210
aa(lp211
(S'dialog'
g10
tp212
a(S'unbelievable'
g8
tp213
aa(lp214
(Vjane
g10
tp215
a(Vfonda
S'NNS'
p216
tp217
a(Vcharacter
g161
tp218
a(Vcaricature
g10
tp219
a(Vnot
S'RB'
p220
tp221
a(Vfunny
g8
tp222
a(Vone
S'CD'
p223
tp224
aa(lp225
(Vmovie
g202
tp226
a(Vmove
g10
tp227
a(Vsnail
g10
tp228
a(Vpace
S'NN'
p229
tp230
a(Vphotographed
g29
tp231
a(Vill-advised
g8
tp232
a(Vmanner
g10
tp233
a(Vinsufferably
g38
tp234
a(Vpreachy
g29
tp235
aa(lp236
(Valso
S'RB'
p237
tp238
a(Vplug
g10
tp239
a(Vevery
g153
tp240
a(Vcliche
g10
tp241
a(Vbook
S'NN'
p242
tp243
aa(lp244
(Vswoozie
g10
tp245
a(Vkurtz
g10
tp246
a(Vexcellent
g8
tp247
a(Vsupporting
g16
tp248
a(Vrole
S'NN'
p249
tp250
a(Vbut
g159
tp251
a(Vwhatbr
g8
tp252
a(Vbr
g10
tp253
a(Vequally
g38
tp254
a(Vannoying
g16
tp255
a(Vnew
g138
tp256
a(Vimdb
g10
tp257
a(Vrule
g10
tp258
a(Vrequiring
g16
tp259
a(Vten
g216
tp260
a(Vline
S'NN'
p261
tp262
a(Vevery
g153
tp263
a(Vreview
g10
tp264
aa(lp265
(Vmovie
g202
tp266
a(Vworthless
g10
tp267
a(Vdoesnt
g10
tp268
a(Vrequire
g161
tp269
a(Vten
g8
tp270
a(Vline
g261
tp271
a(Vtext
g10
tp272
a(Vlet
g10
tp273
a(Vreader
g10
tp274
a(Vknow
g14
tp275
a(Vwaste
g10
tp276
a(Vtime
g43
tp277
a(Vtape
g10
tp278
aa(lp279
(S'avoid'
g8
tp280
a(S'movie'
g202
tp281
aaa(lp282
(lp283
(S'saw'
g10
tp284
a(S'capsule'
g10
tp285
a(S'comment'
g10
tp286
a(S'said'
S'VBD'
p287
tp288
a(S'great'
g81
tp289
a(S'acting'
g10
tp290
aa(lp291
(Vopinion
S'NN'
p292
tp293
a(Vtwo
S'CD'
p294
tp295
a(Vgreat
g81
tp296
a(Vactor
g10
tp297
a(Vgiving
S'VBG'
p298
tp299
a(Vhorrible
g8
tp300
a(Vperformance
S'NN'
p301
tp302
a(Vzero
g223
tp303
a(Vchemistry
g10
tp304
a(Vone
g223
tp305
a(Vanother
S'DT'
p306
tp307
a(Vgreat
g81
tp308
a(Vdirector
g109
tp309
a(Vall-time
g8
tp310
a(Vworst
g8
tp311
a(Veffort
S'NN'
p312
tp313
aa(lp314
(S'robert'
g10
tp315
a(S'de'
g166
tp316
a(S'niro'
S'FW'
p317
tp318
a(S'most'
g91
tp319
a(S'ingenious'
g8
tp320
a(S'insightful'
g8
tp321
a(S'illiterate'
g10
tp322
a(S'time'
g43
tp323
aa(lp324
(Vjane
g10
tp325
a(Vfonda
g10
tp326
a(Vperformance
g301
tp327
a(Vuncomfortably
g38
tp328
a(Vdrift
g149
tp329
a(Vmap
g216
tp330
a(Vclearly
g135
tp331
a(Vno
g45
tp332
a(Vhandle
g8
tp333
a(Vcharacter
g10
tp334
a(Vmostly
S'RB'
p335
tp336
a(Vcharacter
g8
tp337
a(Vpoorly
g38
tp338
a(Vwritten
S'VBN'
p339
tp340
aa(lp341
(Vmolasses-like
g10
tp342
a(Vwould
g61
tp343
a(Vswift
g14
tp344
a(Vadjective
g8
tp345
a(Vfilm
g98
tp346
a(Vexcruciating
g16
tp347
a(Vpacing
g10
tp348
aa(lp349
(Valthough
S'IN'
p350
tp351
a(Vfilm
g98
tp352
a(Vintent
g10
tp353
a(Vuplifting
g16
tp354
a(Vstory
g4
tp355
a(Vcuring
g16
tp356
a(Villiteracy
g10
tp357
a(Vwatching
g16
tp358
a(Vtrue
S'JJ'
p359
tp360
a(Vbummer
g10
tp361
aa(lp362
(Vgive
g14
tp363
a(V1
S'CD'
p364
tp365
a(V10
S'CD'
p366
tp367
a(Vtruly
g38
tp368
a(Vone
g223
tp369
a(Vworst
g91
tp370
a(V20
S'CD'
p371
tp372
a(Vmovie
g202
tp373
a(Vbudget
S'NN'
p374
tp375
a(Vlevel
g10
tp376
a(Vever
g132
tp377
a(Vseen
g93
tp378
aaa(lp379
(lp380
(Vif
S'IN'
p381
tp382
a(Vnot
g220
tp383
a(Vread
g14
tp384
a(Vpat
g10
tp385
a(Vbarker
g10
tp386
a(Vunion
S'NN'
p387
tp388
a(Vstreet
g10
tp389
a(Vseeing
g16
tp390
a(Vfilm
g98
tp391
a(Vwould
g61
tp392
a(Vliked
g14
tp393
aa(lp394
(S'unfortuntately'
g38
tp395
a(S'not'
g220
tp396
a(S'case'
S'NN'
p397
tp398
aa(lp399
(Vactually
S'RB'
p400
tp401
a(Vkind
S'NN'
p402
tp403
a(Vfilm
g98
tp404
a(Vwell
g38
tp405
a(Vmade
g29
tp406
a(Vno
g45
tp407
a(Vway
S'NN'
p408
tp409
a(Vwant
g161
tp410
a(Vsay
g161
tp411
a(Votherwise
g38
tp412
a(Vbut
g159
tp413
a(Vadaptation
g10
tp414
a(Vfails
g149
tp415
a(Vevery
g153
tp416
a(Vanglebr
g10
tp417
a(Vbr
g10
tp418
a(Vharrowing
g16
tp419
a(Vnovel
g8
tp420
a(Vreality
g10
tp421
a(Vliving
g16
tp422
a(Vnorthern
g8
tp423
a(Vengland
g8
tp424
a(Vworking-class
g8
tp425
a(Varea
S'NN'
p426
tp427
a(Vgrabbed
g29
tp428
a(Vhold
g8
tp429
a(Vheartstrings
g216
tp430
a(Vrefused
g29
tp431
a(Vlet
g10
tp432
a(Vgo
g14
tp433
a(Vweek
S'NN'
p434
tp435
a(Vfinished
g169
tp436
aa(lp437
(Vput
g169
tp438
a(Vtear
g8
tp439
a(Vrepulsion
g10
tp440
a(Vshock
g10
tp441
a(Vanger
g10
tp442
a(Vsympathy
g8
tp443
a(Vmisery
g10
tp444
a(Vreading
g16
tp445
a(Vwoman
S'NN'
p446
tp447
a(Vunion
g387
tp448
a(Vstreet
g10
tp449
aa(lp450
(S'excellent'
p451
g10
tp452
aa(lp453
(Vnovel
g8
tp454
a(Vtime
g43
tp455
a(Vfelt
g216
tp456
a(Vcould
g122
tp457
a(Vnot
g220
tp458
a(Vread
g14
tp459
a(Vbut
g159
tp460
a(Vnovel
g14
tp461
a(Vsimply
S'RB'
p462
tp463
a(Vcouldnt
g8
tp464
a(Vput
g10
tp465
aa(lp466
(S'depressing'
g16
tp467
a(S'yes'
g216
tp468
a(S'but'
g159
tp469
a(S'utterly'
g8
tp470
a(S'grippingbr'
g10
tp471
a(S'br'
g10
tp472
a(S'film'
g98
tp473
aa(lp474
(S'oh'
S'UH'
p475
tp476
a(S'dear'
g10
tp477
aa(lp478
(Vhollywood
g10
tp479
a(Vtook
S'VBD'
p480
tp481
a(Vbarker
g10
tp482
a(Vtruth
g10
tp483
a(Vreality
g10
tp484
a(Vshowered
g29
tp485
a(Vlayer
g8
tp486
a(Vsweet
g8
tp487
a(Vicing
g16
tp488
a(Vsugar
g10
tp489
a(Vtop
g10
tp490
aa(lp491
(Vbeautiful
g8
tp492
a(Vfilm
g98
tp493
a(Vinspiring
g16
tp494
a(Vsoundtrack
g8
tp495
a(Vexcellent
g8
tp496
a(Vperformance
g301
tp497
a(Vtale
g10
tp498
a(Vhope
g161
tp499
a(Vromanceyes
g216
tp500
aa(lp501
(Vadaptation
g10
tp502
a(Vunion
g387
tp503
a(Vstreetnobr
g10
tp504
a(Vbr
g10
tp505
a(Vwoman
g446
tp506
a(Vunion
g387
tp507
a(Vstreet
g10
tp508
a(Vstory
g4
tp509
a(Vcondensed
g169
tp510
a(Vfonda
g8
tp511
a(Vcharacter
g10
tp512
a(Vstory
g4
tp513
a(Vtouched
g29
tp514
a(Vbut
g159
tp515
a(Vmany
S'JJ'
p516
tp517
a(Vdiscarded
g29
tp518
aa(lp519
(Vaccept
g8
tp520
a(Vbarker
g10
tp521
a(Vtale
g10
tp522
a(Vsensitive
g8
tp523
a(Vissue
g10
tp524
a(Vhorrific
g8
tp525
a(Vmass
g10
tp526
a(Vviewing
g10
tp527
a(Vfilm
g98
tp528
a(Varound
g166
tp529
a(V7
S'CD'
p530
tp531
a(Vleading
g16
tp532
a(Vprotagonist
g10
tp533
a(Visnt
g8
tp534
a(Vpractical
g8
tp535
a(Vbut
g159
tp536
a(Vcontent
g8
tp537
a(Vnot
g220
tp538
a(Vmain
S'JJ'
p539
tp540
a(Vissue
g10
tp541
aa(lp542
(Vessence
g10
tp543
a(Vreal
S'JJ'
p544
tp545
a(Vgut
g10
tp546
a(Vnovel
g10
tp547
a(Vlost
g29
tp548
a(V-
S':'
tp549
a(Vdarkness
g10
tp550
a(Vrain
g10
tp551
a(Vbroken
g8
tp552
a(Vwindow
g10
tp553
a(Vcovered
g29
tp554
a(Vcardboard
g38
tp555
a(Vgraphically
g38
tp556
a(Vdescribed
g169
tp557
a(Vstench
g8
tp558
a(Vpoverty
g10
tp559
a(Vreplaced
g29
tp560
a(Vsunshine
g8
tp561
a(Vpretty
g38
tp562
a(Vhouse
S'NN'
p563
tp564
a(Vtwinkling
g16
tp565
a(Vwilliams
g216
tp566
a(Vscorebr
g161
tp567
a(Vbr
g10
tp568
a(Vif
g381
tp569
a(Venjoyed
g169
tp570
a(Vfilm
g98
tp571
a(Vpositivity
g10
tp572
a(Vhope
g161
tp573
a(Vface
g10
tp574
a(Vreality
g10
tp575
a(Vadvise
g161
tp576
a(Vhesitate
g10
tp577
a(Vread
g169
tp578
a(Vbook
g242
tp579
a(Vwithout
S'IN'
p580
tp581
a(Vfirst
g8
tp582
a(Vpreparing
g16
tp583
a(Vsomething
S'NN'
p584
tp585
a(Vlike
g166
tp586
a(Vschindlers
g216
tp587
a(Vlistbut
g161
tp588
a(Vwithout
g580
tp589
a(Vhappy
g8
tp590
a(Vending
S'VBG'
p591
tp592
aaa(lp593
(lp594
(Vfanciful
g8
tp595
a(Vhorror
g10
tp596
a(Vflick
g8
tp597
a(Vvincent
g10
tp598
a(Vprice
S'NN'
p599
tp600
a(Vplaying
g16
tp601
a(Vmad
g8
tp602
a(Vmagician
g8
tp603
a(Vrealizes
g149
tp604
a(Vvocational
g8
tp605
a(Vtalent
g10
tp606
a(Vsold
g29
tp607
a(Vanother
g306
tp608
aa(lp609
(Vdevise
g14
tp610
a(Vway
g408
tp611
a(Vavenging
g16
tp612
a(Vwronged
g29
tp613
aa(lp614
(Vmaster
g10
tp615
a(Vscheme
g10
tp616
a(Vseems
S'VBZ'
p617
tp618
a(Vback
g38
tp619
a(Vfire
g10
tp620
a(Vhimbr
g10
tp621
a(Vbr
g8
tp622
a(Vprice
g599
tp623
a(Vlittle
g8
tp624
a(Vpar
g10
tp625
a(Vcompared
S'VBN'
p626
tp627
a(Vmasterpiece
g10
tp628
a(Vbut
g159
tp629
a(Vstill
S'RB'
p630
tp631
a(Vreason
S'NN'
p632
tp633
a(Vwatch
g10
tp634
a(Vthriller
g10
tp635
aa(lp636
(S'supporting'
g16
tp637
a(S'cast'
g10
tp638
a(S'includes'
S'VBZ'
p639
tp640
a(S'patrick'
g8
tp641
a(S'oneal'
g10
tp642
a(S'mary'
g8
tp643
a(S'murphy'
g10
tp644
a(S'eva'
g10
tp645
a(S'gabor'
g10
tp646
a(S'jay'
g10
tp647
a(S'novellobr'
g10
tp648
a(S'br'
g10
tp649
aaa(lp650
(lp651
(S'basically'
g38
tp652
a(S'skimmed'
g8
tp653
a(S'movie'
g202
tp654
a(S'but'
g159
tp655
a(S'enough'
g8
tp656
a(S'catch'
g10
tp657
a(S'watch'
g10
tp658
a(S'plot'
g10
tp659
aa(lp660
(Vtell
g14
tp661
a(Vtruth
g10
tp662
a(Vkind
g402
tp663
a(Vboring
g16
tp664
a(Vspot
g10
tp665
a(Vdidnt
g216
tp666
a(Vmake
g161
tp667
a(Vsense
g10
tp668
aa(lp669
(S'reason'
g632
tp670
a(S'watched'
g29
tp671
a(S'movie'
g202
tp672
a(S'first'
g8
tp673
a(S'place'
g10
tp674
a(S'see'
g161
tp675
a(S'chace'
g10
tp676
a(S'crawford'
g10
tp677
aa(lp678
(S'hot'
g8
tp679
a(S'but'
g159
tp680
a(S'movie'
g202
tp681
a(S'hair'
g10
tp682
a(S'kind'
g402
tp683
a(S'weird'
g10
tp684
aa(lp685
(S'but'
g159
tp686
a(S'still'
g630
tp687
a(S'hotbr'
g8
tp688
a(S'br'
g10
tp689
a(S'however'
g106
tp690
a(S'despite'
S'IN'
p691
tp692
a(S'hot'
g8
tp693
a(S'chace'
g10
tp694
a(S'really'
S'RB'
p695
tp696
a(S'not'
g220
tp697
a(S'make'
g14
tp698
a(S'film'
g98
tp699
aa(lp700
(S'guess'
g10
tp701
a(S'plot'
g10
tp702
a(S'isnt'
g8
tp703
a(S'bad'
g119
tp704
a(S'but'
g159
tp705
a(S'really'
g695
tp706
a(S'threw'
g8
tp707
a(S'fact'
S'NN'
p708
tp709
a(S'cuss'
g216
tp710
a(S'like'
g166
tp711
a(S'every'
g153
tp712
a(S'sentence'
g10
tp713
aa(lp714
(S'hard'
g38
tp715
a(S'express'
g10
tp716
a(S'anger'
g10
tp717
a(S'without'
g580
tp718
a(S'saying'
g16
tp719
a(S'f'
g10
tp720
a(S'word'
S'NN'
p721
tp722
a(S'every'
g153
tp723
a(S'timethe'
g10
tp724
a(S'cussing'
g16
tp725
a(S'annoying'
g16
tp726
a(S'whole'
g8
tp727
a(S'flashy'
g8
tp728
a(S'camera'
g10
tp729
a(S'shaking'
g16
tp730
a(S'thing'
S'NN'
p731
tp732
a(S'gave'
S'VBD'
p733
tp734
a(S'headachebr'
g8
tp735
a(S'br'
g10
tp736
a(S'although'
g350
tp737
a(S'plot'
g10
tp738
a(S'ok'
g10
tp739
a(S'found'
g29
tp740
a(S'film'
g98
tp741
a(S'bore'
g73
tp742
a(S'dramatic'
g8
tp743
aa(lp744
(Vthats
g216
tp745
a(Vcut
g29
tp746
a(Vscene
g10
tp747
a(Vchace
g10
tp748
aa(lp749
(S'lol'
g10
tp750
a(S'anyways'
g149
tp751
a(S'not'
g220
tp752
a(S'worth'
g8
tp753
a(S'renting'
g16
tp754
a(S'unless'
S'IN'
p755
tp756
a(S'die-hard'
g8
tp757
a(S'fan'
g10
tp758
a(S'specific'
g8
tp759
a(S'cast'
g8
tp760
a(S'member'
S'NN'
p761
tp762
a(S'like'
g166
tp763
aa(lp764
(S'oh'
g475
tp765
a(S'yeah'
g475
tp766
a(S'cast'
g10
tp767
a(S'hot'
g8
tp768
aa(lp769
(Vgirl
g10
tp770
a(Vhot
g8
tp771
aa(lp772
(S'but'
g159
tp773
a(S'chace'
g10
tp774
a(S'best'
g91
tp775
aa(lp776
aa(lp777
(lp778
(Vbeginning
g16
tp779
a(Vmovie
g202
tp780
a(Vgive
g8
tp781
a(Vfeeling
g10
tp782
a(Vdirector
g109
tp783
a(Vtrying
S'VBG'
p784
tp785
a(Vportray
g10
tp786
a(Vsomething
g584
tp787
a(Vmean
g8
tp788
a(Vsay
g161
tp789
a(Vinstead
S'RB'
p790
tp791
a(Vstory
g4
tp792
a(Vdictating
g16
tp793
a(Vstyle
S'NN'
p794
tp795
a(Vmovie
g202
tp796
a(Vmade
g29
tp797
a(Vgone
S'VBN'
p798
tp799
a(Vopposite
g8
tp800
a(Vway
g408
tp801
a(Vtype
g8
tp802
a(Vmove
g10
tp803
a(Vwanted
g29
tp804
a(Vmake
g8
tp805
a(Vwrote
S'VBD'
p806
tp807
a(Vstory
g4
tp808
a(Vsuite
g10
tp809
aa(lp810
(S'failed'
g8
tp811
a(S'very'
g38
tp812
a(S'badly'
g38
tp813
aa(lp814
(S'guess'
g10
tp815
a(S'trying'
g784
tp816
a(S'make'
g14
tp817
a(S'stylish'
g8
tp818
a(S'movie'
g202
tp819
aa(lp820
(S'way'
g408
tp821
a(S'think'
g161
tp822
a(S'movie'
g202
tp823
a(S'total'
g8
tp824
a(S'waste'
g10
tp825
a(S'time'
g43
tp826
a(S'effort'
g312
tp827
aa(lp828
(Vcredit
S'NN'
p829
tp830
a(Vdirector
g109
tp831
a(Vknow
g161
tp832
a(Vmedium
g10
tp833
a(Vworking
g16
tp834
a(Vtrying
g784
tp835
a(Vsay
g161
tp836
a(Vseen
g93
tp837
a(Vworst
g91
tp838
a(Vmovie
g202
tp839
aa(lp840
(Vleast
g91
tp841
a(Vdirector
g109
tp842
a(Vknow
g161
tp843
a(Vmaintain
g161
tp844
a(Vcontinuity
g10
tp845
a(Vmovie
g202
tp846
aa(lp847
(Vactor
g10
tp848
a(Valso
g237
tp849
a(Vgiven
S'VBN'
p850
tp851
a(Vdecent
g8
tp852
a(Vperformance
g301
tp853
aaa(lp854
(lp855
(S'really'
g695
tp856
a(S'new'
g138
tp857
a(S'low'
g8
tp858
a(S'entertainment'
S'NN'
p859
tp860
aa(lp861
(Veven
g38
tp862
a(Vthough
g166
tp863
a(Vlot
g10
tp864
a(Vworse
S'JJR'
p865
tp866
a(Vmovie
g202
tp867
a(Voutbr
g166
tp868
a(Vbr
g8
tp869
a(Vgangster
g8
tp870
a(Vdrug
S'NN'
p871
tp872
a(Vscene
g10
tp873
a(Vgenre
g161
tp874
a(Vhard
g8
tp875
a(Vconvincing
g10
tp876
a(Vstoryline
g10
tp877
a(Vmovie
g202
tp878
a(Vnot
g220
tp879
a(Vmean
g8
tp880
a(Vsebastians
g216
tp881
a(Vmotif
g161
tp882
a(Vexample
g20
tp883
a(Vcouldnt
g10
tp884
a(Vfar
S'RB'
p885
tp886
a(Vfetched
g29
tp887
a(Vworn
g8
tp888
a(Vclich
g10
tp889
aa(lp890
(Vwould
g61
tp891
a(Valso
g237
tp892
a(Vneed
g14
tp893
a(Vsetting
g16
tp894
a(Vcharacter
g10
tp895
a(Vrelationship
S'NN'
p896
tp897
a(Vbelievable
g8
tp898
a(Vmovie
g202
tp899
a(Vnot
g220
tp900
aa(lp901
(S'br'
g10
tp902
a(S'br'
g10
tp903
a(S'sure'
g8
tp904
a(S'tristan'
g8
tp905
a(S'drawn'
g10
tp906
a(S'away'
g38
tp907
a(S'family'
S'NN'
p908
tp909
a(S'but'
g159
tp910
aa(lp911
(S'whats'
g216
tp912
a(S'deal'
g161
tp913
a(S'father'
g38
tp914
a(S'ask'
g14
tp915
a(S'permission'
g10
tp916
a(S'go'
g161
tp917
a(S'age'
S'NN'
p918
tp919
aa(lp920
(Vinteresting
g8
tp921
a(Vpicture
g10
tp922
a(Vthough
g166
tp923
a(Vask
g8
tp924
a(Vlack
g10
tp925
a(Vneed
g161
tp926
a(Vrebellious
g8
tp927
a(Vbehavior
g10
tp928
a(Vkid
g317
tp929
a(Vupper
g8
tp930
a(Vclass
S'NN'
p931
tp932
a(Vfamily
g908
tp933
aa(lp934
(S'but'
g159
tp935
a(S'movie'
g202
tp936
a(S'not'
g220
tp937
a(S'go'
g14
tp938
a(S'direction'
S'NN'
p939
tp940
aa(lp941
(S'even'
g38
tp942
a(S'though'
g166
tp943
a(S'would'
g61
tp944
a(S'potential'
g14
tp945
a(S'judging'
g10
tp946
a(S'random'
g10
tp947
a(S'backflashes'
g216
tp948
aa(lp949
(S'wasnt'
g216
tp950
a(S'already'
S'RB'
p951
tp952
aa(lp953
(Vbr
g10
tp954
a(Vbr
g10
tp955
a(Vinteresting
g16
tp956
a(Vquestion
g10
tp957
a(Vbrought
g29
tp958
a(Vsolid
g8
tp959
a(Vsocially
g38
tp960
a(Vcritic
g8
tp961
a(Vdrama
g10
tp962
a(Vbut
g159
tp963
a(Vmovie
g202
tp964
a(Vnot
g220
tp965
a(Vfocusing
g16
tp966
a(Vcool
g8
tp967
a(Vproduction
S'NN'
p968
tp969
a(Vtechnique
g10
tp970
a(Vspecial
g8
tp971
a(Veffect
S'NN'
p972
tp973
a(Vnot
g220
tp974
a(Vgiving
g298
tp975
a(Vcharacter
g10
tp976
a(Vmoment
S'NN'
p977
tp978
a(Vreflect
g161
tp979
a(Vmost
g195
tp980
a(Vforcing
g8
tp981
a(Vstory
g4
tp982
a(Valong
g166
tp983
a(Vpath
g10
tp984
a(Vwant
g161
tp985
a(Vnot
g220
tp986
a(Vpaying
S'VBG'
p987
tp988
a(Vattention
S'NN'
p989
tp990
a(Vlet
g317
tp991
a(Vstory
g4
tp992
a(Vbreath
g10
tp993
a(Vnaturally
g38
tp994
a(Vevolve
g14
tp995
aa(lp996
(Vbr
g216
tp997
a(Vbr
g161
tp998
a(Vwant
g161
tp999
a(Vdrama
g10
tp1000
a(Vnot
g220
tp1001
a(Vglorify
g14
tp1002
a(Vabuse
g10
tp1003
a(Vsubstance
g10
tp1004
a(Vviolence
g10
tp1005
a(Vwould
g61
tp1006
a(Vpolitical
S'JJ'
p1007
tp1008
a(Vincorrect
g10
tp1009
a(Vday
S'NN'
p1010
tp1011
a(Vwouldnt
g29
tp1012
aa(lp1013
(Vbut
g159
tp1014
a(Vhand
S'NN'
p1015
tp1016
a(Vnothing
S'NN'
p1017
tp1018
a(Vcheap
g8
tp1019
a(Vaction
S'NN'
p1020
tp1021
a(Vmovie
g202
tp1022
a(Vlike
g166
tp1023
a(Vmany
g516
tp1024
a(Vaverage
g8
tp1025
a(Vset
g169
tp1026
a(Vactor
g10
tp1027
a(Vvinnie
g10
tp1028
a(Vjones
g216
tp1029
a(Vmanaging
g16
tp1030
a(Vnot
g220
tp1031
a(Vtotally
g38
tp1032
a(Vruin
g8
tp1033
a(Vwhats
g216
tp1034
a(Vleft
g29
tp1035
a(Vreputation
g10
tp1036
a(Valways
S'RB'
p1037
tp1038
a(Vdoesbr
g149
tp1039
a(Vbr
g8
tp1040
a(Vcant
g8
tp1041
a(Vrecommend
g10
tp1042
a(Vitbr
g10
tp1043
a(Vbr
g29
tp1044
a(V1
g364
tp1045
a(Vvinnie
g10
tp1046
a(V2
S'CD'
p1047
tp1048
a(Vediting
g10
tp1049
aaa(lp1050
(lp1051
(V610
g223
tp1052
a(Vacting
g16
tp1053
a(Vnot
g220
tp1054
a(Vgreat
g81
tp1055
a(Vbut
g159
tp1056
a(Vgood
g8
tp1057
a(Vactingbr
g10
tp1058
a(Vbr
g10
tp1059
a(V410
g223
tp1060
a(Vdirector
g109
tp1061
a(Vmake
g161
tp1062
a(Vstupid
g8
tp1063
a(Vdecision
S'NN'
p1064
tp1065
a(Vfilmbr
g10
tp1066
a(Vbr
g29
tp1067
a(V210
g223
tp1068
a(Vwriter
g10
tp1069
a(Vstory
g4
tp1070
a(Vmake
g161
tp1071
a(Vno
g45
tp1072
a(Vsense
g10
tp1073
a(Vhuge
S'JJ'
p1074
tp1075
a(Vamount
g10
tp1076
a(Vflawsbr
g29
tp1077
a(Vbr
g38
tp1078
a(V410
g223
tp1079
a(Voverall
g8
tp1080
a(Vscore
g10
tp1081
a(Vmoviebr
g10
tp1082
a(Vbr
g10
tp1083
a(Vdont
g10
tp1084
a(Vwaste
g10
tp1085
a(Vtime
g43
tp1086
a(Vfilm
g98
tp1087
a(Vnot
g220
tp1088
a(Vworth
g8
tp1089
aa(lp1090
(S'gave'
g733
tp1091
a(S'4'
S'CD'
p1092
tp1093
a(S'movie'
g202
tp1094
a(S'may'
S'MD'
p1095
tp1096
a(S'much'
g14
tp1097
aa(lp1098
(Vcharacter
g10
tp1099
a(Vexaggerated
g29
tp1100
a(Vever
g132
tp1101
a(Vreal
g544
tp1102
a(Vlife
S'NN'
p1103
tp1104
a(Vpretty
g38
tp1105
a(Vunexplainable
g8
tp1106
a(Vstuff
g10
tp1107
a(Vhappens
g216
tp1108
a(Vstorywise
S'MD'
p1109
tp1110
a(Vnot
g220
tp1111
a(Vgood
g8
tp1112
a(Vway
g408
tp1113
aa(lp1114
(Vstyle
g794
tp1115
a(Vfilm
g98
tp1116
a(Vfilmed
g29
tp1117
a(Vget
g14
tp1118
a(Vbored
g8
tp1119
a(V30
S'CD'
p1120
tp1121
a(Vminute
g10
tp1122
a(Vmany
g516
tp1123
a(Vspecial
g8
tp1124
a(Veffect
g972
tp1125
a(Vslow
g8
tp1126
a(Vmotion
g10
tp1127
a(Vcamera
g10
tp1128
a(Vshake
g14
tp1129
a(Vfast
g8
tp1130
a(Vforward
g10
tp1131
aa(lp1132
(Valways
g1037
tp1133
a(Vgood
g8
tp1134
a(Vmovie
g202
tp1135
a(Vus
S'PRP'
p1136
tp1137
a(Vmusic
S'NN'
p1138
tp1139
a(Vmake
g161
tp1140
a(Vstory
g4
tp1141
a(Vgo
g14
tp1142
a(Vsmooth
g8
tp1143
a(Vbut
g159
tp1144
a(Vthere
g38
tp1145
a(Vmany
g516
tp1146
a(Vtrack
g161
tp1147
a(Vone
g223
tp1148
aa(lp1149
(Vfirst
g38
tp1150
a(Vhour
S'NN'
p1151
tp1152
a(Valmost
g151
tp1153
a(V5050
g223
tp1154
a(Vdialog
g10
tp1155
a(Vmusic
g1138
tp1156
aaa(lp1157
(lp1158
(Vone
g223
tp1159
a(Vdumbest
g91
tp1160
a(Vfilm
g98
tp1161
a(Vive
g8
tp1162
a(Vever
g132
tp1163
a(Vseen
g93
tp1164
aa(lp1165
(Vrip
g10
tp1166
a(Vnearly
S'RB'
p1167
tp1168
a(Vever
g132
tp1169
a(Vtype
g8
tp1170
a(Vthriller
g10
tp1171
a(Vmanages
g216
tp1172
a(Vmake
g161
tp1173
a(Vmess
g10
tp1174
a(Vallbr
g10
tp1175
a(Vbr
g10
tp1176
a(Vthere
g38
tp1177
a(Vnot
g220
tp1178
a(Vsingle
S'JJ'
p1179
tp1180
a(Vgood
g8
tp1181
a(Vline
g261
tp1182
a(Vcharacter
g10
tp1183
a(Vwhole
g8
tp1184
a(Vmess
g10
tp1185
aa(lp1186
(Vif
g381
tp1187
a(Vplot
g10
tp1188
a(Vafterthought
g29
tp1189
a(Vfar
g885
tp1190
a(Vacting
g16
tp1191
a(Vgo
g14
tp1192
a(Vthere
g38
tp1193
a(Vnothing
g1017
tp1194
a(Vgood
g8
tp1195
a(Vsay
g10
tp1196
a(Vill
g216
tp1197
a(Vsay
g161
tp1198
a(Vnothing
g1017
tp1199
aa(lp1200
(Vhonestly
g38
tp1201
a(Vcant
g8
tp1202
a(Vunderstand
g10
tp1203
a(Vtype
g10
tp1204
a(Vnonsense
g10
tp1205
a(Vget
g10
tp1206
a(Vproduced
g169
tp1207
a(Vactually
g400
tp1208
a(Vreleased
g169
tp1209
a(Vsomebody
g10
tp1210
a(Vsomewhere
g38
tp1211
a(Vnot
g220
tp1212
a(Vstage
g14
tp1213
a(Vthink
g14
tp1214
a(Voh
g8
tp1215
a(Vgod
g216
tp1216
a(Vreally
g695
tp1217
a(Vload
g8
tp1218
a(Vshite
g8
tp1219
a(Vcall
g10
tp1220
a(Vday
g1010
tp1221
aa(lp1222
(Vcrap
g10
tp1223
a(Vlike
g166
tp1224
a(Vpeople
S'NNS'
p1225
tp1226
a(Vdownloading
g16
tp1227
a(Villegally
g38
tp1228
a(Vtrailer
g8
tp1229
a(Vlook
g10
tp1230
a(Vlike
g166
tp1231
a(Vcompletely
g38
tp1232
a(Vdifferent
S'JJ'
p1233
tp1234
a(Vfilm
g98
tp1235
a(Vleast
g91
tp1236
a(Vif
g381
tp1237
a(Vdownload
g8
tp1238
a(Vhavent
g10
tp1239
a(Vwasted
g29
tp1240
a(Vtime
g43
tp1241
a(Vmoney
g188
tp1242
a(Vdont
g10
tp1243
a(Vwaste
g10
tp1244
a(Vtime
g43
tp1245
a(Vpainful
g8
tp1246
aaa.