(lp1
(ipreprocess
Sentence
p2
(dp3
S'file_rating'
p4
S'3.txt'
p5
sS'filename'
p6
S'imdb/neg/0'
p7
sba(ipreprocess
Sentence
p8
(dp9
g4
S'2.txt'
p10
sg6
S'imdb/neg/10'
p11
sba(ipreprocess
Sentence
p12
(dp13
g4
S'3.txt'
p14
sg6
S'imdb/neg/11'
p15
sba(ipreprocess
Sentence
p16
(dp17
g4
S'1.txt'
p18
sg6
S'imdb/neg/12'
p19
sba(ipreprocess
Sentence
p20
(dp21
g4
S'2.txt'
p22
sg6
S'imdb/neg/13'
p23
sba(ipreprocess
Sentence
p24
(dp25
g4
S'2.txt'
p26
sg6
S'imdb/neg/14'
p27
sba(ipreprocess
Sentence
p28
(dp29
g4
S'1.txt'
p30
sg6
S'imdb/neg/15'
p31
sba(ipreprocess
Sentence
p32
(dp33
g4
S'3.txt'
p34
sg6
S'imdb/neg/16'
p35
sba(ipreprocess
Sentence
p36
(dp37
g4
S'3.txt'
p38
sg6
S'imdb/neg/17'
p39
sba(ipreprocess
Sentence
p40
(dp41
g4
S'3.txt'
p42
sg6
S'imdb/neg/18'
p43
sba(ipreprocess
Sentence
p44
(dp45
g4
S'4.txt'
p46
sg6
S'imdb/neg/19'
p47
sba(ipreprocess
Sentence
p48
(dp49
g4
S'1.txt'
p50
sg6
S'imdb/neg/1'
p51
sba(ipreprocess
Sentence
p52
(dp53
g4
S'1.txt'
p54
sg6
S'imdb/neg/20'
p55
sba(ipreprocess
Sentence
p56
(dp57
g4
S'4.txt'
p58
sg6
S'imdb/neg/21'
p59
sba(ipreprocess
Sentence
p60
(dp61
g4
S'1.txt'
p62
sg6
S'imdb/neg/22'
p63
sba(ipreprocess
Sentence
p64
(dp65
g4
S'3.txt'
p66
sg6
S'imdb/neg/23'
p67
sba(ipreprocess
Sentence
p68
(dp69
g4
S'1.txt'
p70
sg6
S'imdb/neg/24'
p71
sba(ipreprocess
Sentence
p72
(dp73
g4
S'1.txt'
p74
sg6
S'imdb/neg/25'
p75
sba(ipreprocess
Sentence
p76
(dp77
g4
S'1.txt'
p78
sg6
S'imdb/neg/2'
p79
sba(ipreprocess
Sentence
p80
(dp81
g4
S'4.txt'
p82
sg6
S'imdb/neg/3'
p83
sba(ipreprocess
Sentence
p84
(dp85
g4
S'4.txt'
p86
sg6
S'imdb/neg/4'
p87
sba(ipreprocess
Sentence
p88
(dp89
g4
S'3.txt'
p90
sg6
S'imdb/neg/5'
p91
sba(ipreprocess
Sentence
p92
(dp93
g4
S'1.txt'
p94
sg6
S'imdb/neg/6'
p95
sba(ipreprocess
Sentence
p96
(dp97
g4
S'3.txt'
p98
sg6
S'imdb/neg/7'
p99
sba(ipreprocess
Sentence
p100
(dp101
g4
S'4.txt'
p102
sg6
S'imdb/neg/8'
p103
sba(ipreprocess
Sentence
p104
(dp105
g4
S'1.txt'
p106
sg6
S'imdb/neg/9'
p107
sba.