(lp1
(ipreprocess
Sentence
p2
(dp3
S'file_rating'
p4
S'3.txt'
p5
sS'filename'
p6
S'imdb/neg/0'
p7
sba(ipreprocess
Sentence
p8
(dp9
g4
S'2.txt'
p10
sg6
S'imdb/neg/10'
p11
sba(ipreprocess
Sentence
p12
(dp13
g4
S'1.txt'
p14
sg6
S'imdb/neg/1'
p15
sba(ipreprocess
Sentence
p16
(dp17
g4
S'1.txt'
p18
sg6
S'imdb/neg/2'
p19
sba(ipreprocess
Sentence
p20
(dp21
g4
S'4.txt'
p22
sg6
S'imdb/neg/3'
p23
sba(ipreprocess
Sentence
p24
(dp25
g4
S'4.txt'
p26
sg6
S'imdb/neg/4'
p27
sba(ipreprocess
Sentence
p28
(dp29
g4
S'3.txt'
p30
sg6
S'imdb/neg/5'
p31
sba(ipreprocess
Sentence
p32
(dp33
g4
S'1.txt'
p34
sg6
S'imdb/neg/6'
p35
sba(ipreprocess
Sentence
p36
(dp37
g4
S'3.txt'
p38
sg6
S'imdb/neg/7'
p39
sba(ipreprocess
Sentence
p40
(dp41
g4
S'4.txt'
p42
sg6
S'imdb/neg/8'
p43
sba(ipreprocess
Sentence
p44
(dp45
g4
S'1.txt'
p46
sg6
S'imdb/neg/9'
p47
sba.