(lp1
Vbromwell high cartoon comedyran time program school life teacher35 year teaching profession lead believe bromwell high satire much closer reality teacherscramble survive financially insightful student see right pathetic teacher pomp pettiness whole situation remind school knew studentsaw episode student repeatedly tried burn school immediately recalled highclassic line inspector im sack one teacherstudent welcome bromwell highexpect many adult age think bromwell high far fetchedpity isnt
p2
aVim male not given woman movie but really well done special storyno personal love jane fonda person but one hell fine job deniro usual superb selfeverything well done acting directing visuals setting photography castingif enjoy story real people real love - winner
p3
aVliked stanley iris very muchacting very goodstory unique interesting arrangementabsence violence porno sex refreshingcharacter very convincing felt like could understand feelingvery enjoyable movie
p4
aVliked stanley iris very muchacting very goodstory unique interesting arrangementabsence violence sex refreshingcharacter very convincing felt like could understand feelingvery enjoyable movie
p5
aVproduction quality cast premise authentic new england waterbury ctlocale lush john williams score resulted 3-4 star collector itemunfortunately got passable 2 star decent flick mostly memorable tried dobring art house style film mainstreamsmall town locale story ordinary people genre if well done satisfy most grownupjane fonda unable hide braininess enough make character believablewondered wasnt post doctorate yale instead working dead end factory job waterburyrobert diniros character bit contrivedilliterate nice guy loser turn actually little help janes character 1990 version henry ford thomas edisonbr br genre successfully handled nobody fool mid 90 year 2003 schmidtwish main stream studio would try stuff post adolescent reserve couple screen multi cinema complex effortsbr br ill give effort
p6
aVfilm special place heart caught first time teaching adult literacyrang very true even outstanding student timescene make gulp sudden emotion even put smile face sheer identification character situationbr br excellent performance jane fonda robert deniro rank best work great turn young martha plimpton inspiring story line haunting musical score make most enjoyable rewarding experience
p7
aVguess if film magic dont need fluid seamlessskip background information go fast place slow others etcmagic film scene librarymany minor flaw stanley iris yet dont detract overall positive impact watching people help area life seem most incomprehensible hardest fixcharacter smartyet stanley cant understand enough function cant read cant read he much adventure childhoodiris although well-educated hasnt enough adventure cant understand move past u-turn life tookfault strength character complimentmay bit stretch accept iris would wind working year year factory stanley never hid illiteracy enough work construction better-paying jobmystery explained course story unfolding seems somewhat contrivedassume no one took time rethink scripteven good moviejust imagine de niro fonda plimpton would done screen if someone
p8
aVfound so-so romancedrama nice ending generally nice feelnot hallmark hall fame-type family film sleeping-before-marriage considered normal behavior but considering star jane fonda robert de niro would expected lot rougher movie least language-wisebr br most memorable part film portrayal difficult must learn read write already adultthats big theme movie involves touching scene but honest film isnt memorablebr br still fairly mild nice tale would happy recommend
p9
aVcomplex film explores effect fordist taylorist mode industrial capitalist production human relationconstant reference assembly line production worker treated cog machine overseen manager wielding clipboard controlling much hair worker leave exposed firing worker stanley meet criterion supervisor say always time hard worker good work but may unspecified future make mistakebr br system destroys family - stanley send father nursing home quickly dy stanley loses jobiris daughter single teen mother drop high school take job plantreference made fact declining wage partner need work implication there nobody left home care kidiris husband dead illness multiple reference film cost medical care viewer must wonder if might lived better costly careiris brother law get abusive yet another unsuccessful day unemployment office wife yell buying beer saving instead leaving face lift andor teeth job even working class no stake conventional bourgeois notion perfection beauty buyone reference race film black factory line worker whose husband jail presumably he also black black men suffer disproportionally high incarceration rateremark like time - family composed prisoner wage slavebr br stanley however still belief human relation therefore most film outside system fordist capitalismcare father spite fact father traveling salesman job resulted illiteracy - not yet reduced human relation purely instrumental contract iris brother law suggesting married wrong sisternot iris say conform work-eat-sleep routine everyone else rather us technology technique industrial production artisanal creative way sort bauhaus idealdream early modernist 1920s socialist bauhaus - use technology provide basic need allowing free time creative human work fuller human relationalso outside traditional gender relationcook clean care family know ironiris hand life traditionally male role - shes factory worker main source income extended family brings stanley public realm traditionally off-limits womanteaching read write give access world knowledge also traditionally gendered malebr br literacy used metaphor traditionally masculine public realm system circulation monetary vehicular cultural enable participation public realmwithout access stanley feminized - job open cooking cleaningexcluded regular circulation unable participate monetary cant open bank account vehicular cant get driver license cant ride bus social asks if exists if cant write namebr br learning read grab book auto repair farming spirituality bibleword god therefore relativized placed value plane how-to bookfact organized religion general very occasionally present - bible also appears dresser camera pan find stanley iris sexhowever acknowledged moral force - iris clearly character devoted living good life mention beginning film rosary among object lost purse snatchingbr br able read enters system land managerial position health care plan car house taking place head family breadwinnerpresumably he industrial designer dreaming product require others enduring drudgery assembly line produceending probably bit conventional hollywood film incongruous come least wonder if wasnt forced studio exec suddenly worried lack feel-good ending potential effect bottom linebr br according pundit weve comfortably moved post-industrial capitalism film also slightly nostalgic feel though needed historical distance really analyze happened periodbr br nevertheless highly recommended - least if want exercise braindisregard ending close perfect 10
p10
aVstanley iris heart warming film two people find help one another overcome problem lifestanley life difficult never learned read writeiris widower two teenage child working bakery meet stanleydecides teach stanley read home spare timetime become romantically involvedstanley learns read go good job chicago return iris ask marry himbr br really good film without nudity violence profanity rare today filmgood film roundbr br
p11
aVread comment tomreynolds2004 feel jumpunderstand doesnt like film but reason not evidentfeeling regarding film not afraid travel darker road loneliness failure disappointment sorrowtwo people portrayed plenty reason bitter angry yet find tenderness comfortgreat acting could make work without becoming emotional quagmire sentimental sappyreally became interested people overwhelming humanity given strong performanceevery reason dislike jane fonda vietnam era action but personal feeling apart fabulous rolerobert deniro superb man whose intelligence goodness begin fail world indifferent abilityfirst seen deniro using tenderness rather toughness sell character really likefilm big surprise first viewed look forward seeing
p12
aVif like adult comedy cartoon like south park nearly similar format small adventure three teenage girl bromwell highkeisha natella latrina given exploding sweet behaved like bitch think keisha good leaderalso small story going teacher schoolthere idiotic principal mr bip nervous math teacher many otherscast also fantastic lenny henry gina yashere eastenders chrissie watt tracy-ann oberman smack pony doon mackichan dead ringer mark perry blunder nina contididnt know came canada but very goodvery good
p13
aVstanley iris show triumph human spiritstanley struggle become literate realize potentialiris find courage love becoming widowbeauty movie dance robert deniro jane fonda together starting stopping skill courage completely trust movesense very nicely give u good view life often thus credibleunlike reviewer found character rendered consistent whole picturesupporting cast also carefully chosen add depth character main character get added meaning supporting performanceexcellent moviebest thing take hope
p14
aVmay not memorable classic but touching romance important theme stress importance literacy modern society devastating career life consequence unfortunate individual lacking vital skillbr br story revolves around iris widow becomes acquainted fellow employee factory job illiterate cafeteria worker named stanleyiris discovers stanley unable read loses job give reading lesson home kitchencourse might predict two although initially wary involvement develop feeling otherbr br jane fonda competently play iris woman problem coping job lacking prospect two teenage child one pregnant unemployed sister abusive husbandhowever robert deniro course brilliant endearing portrayal intelligent resourceful but illiterate stanley bringing dignity role command respectarent typical charming young yuppie couple generally depicted screen romance but ordinary working class middle aged pair pretty earth strugglesbr br wont give ending away but lovely heartwarming romance personal look troubling issue adult illiteracy albeit perspective fictional character
p15
aVif fast forward horrible singing find classic fairy tale underneathchristopher walken very humorous surprisingly good roletrademark style acting work well sly pus bootactor well partnot find acting terribly fake awkwardking particular appears real dunce though wonder if supposednot remember original talespecial effect typical eighty but least not overly fake like computer generated fare see todayoverall recommend movie child adult child heart
p16
aVok musical piece poorly written generally poorly sung though walken marner particularly walken sounded pretty goodshattered fourth wall end king noble sing battle ogre praise effort pus boot right shouldnt even known itbr br carechristopher freakin walken movie based fairy tale sings danceacting style fit role very well devious mischievous pus seems get master deeper deeper trouble but fact plan he thought seven eight move advanceif youve ever seen walken villainous role know ogre bit dust hard end walken got trapbr br fun film must-see anyone enjoys unique style christopher walken
p17
aValthough obviously low-budget production performance song movie worth seeingone walkens musical role datemarvelous dancer singer demonstrates acrobatic skill well - watch cartwheelalso starring jason connerygreat childrens story very likable character
p18
aVnever saw kid seen fresh eyenever heard rented 5 year old daughterplus idea christopher walken singing dancing made curiousspecial fx cheesy singing dancing mediocrebut story greatdaughter entrancedloved watching walken role thinking future heldvery amusing see danceif song werent great least werent disney over-produced saccharine sweetnessogre scene beginning little scary little nervous saw end but mostly benigninterestingly recently read pus boot wondered implausibility storybut staying true almost every aspect walkens acting made believablegreat funid watch daughter
p19
aVbromwell high nothing short brilliantexpertly scripted perfectly delivered searing parody student teacher south london public school leaf literally rolling laughtervulgar provocative witty sharpcharacter superbly caricatured cross section british society accurate societyfollowing escapade keisha latrina natella three protagonist want better term show doesnt shy away parodying every imaginable subjectpolitical correctness fly window every episodeif enjoy show arent afraid poke fun every taboo subject imaginable bromwell high not disappoint
p20
aVworld stage people actor it--or something likehell said theatre stopped orchestra pit--or even theatre doornot audience participant theatrical experience including story itselfbr br film grand experiment said heystory need attention need active participationsometimes bring story sometimes go storybr br ala no one listened but not mean not said
p21
aVfutz show preserved experimental theatre movement new york 1960s origin broadwaythough not everyone genuinely brilliant darkly funny even often deeply disturbing tale love sex personal liberty revenge serious morality tale even relevant time congress want outlaw gay marriage trashing constitutionstory not gay though -- love sex dont conform social norm therefore must removed violence hatesurface tell story man fall love pig but like great fable not really animal something bigger -- stifling conformity americabr br stage version international acclaim original production toured u europe others kind influenced almost theatre cameluckily preserved show pretty much originally conceived original cast original director tom ohorgan also directed hair jesus christ superstar broadwaybr br not mainstream easy-to-take studio film -- aggressive unsettling glorious deeply emotional wildly imaginative piece storytelling youll never forgetmight change way see world
p22
aVcame middle film no idea credit even title till looked see received mixed reception commentatorim positive side regarding film but one thing really caught attention watched beautiful sensitive score written coplandesque americana stylesurprise great discovered score written none john williamstrue written sensitive poignant score schindlers list but one usually associate name bombasticities star warbut opinion williams written movie surpasses anything ive ever heard tenderness sensitivity beauty fully keeping tender lovely plot movieanother recent score catch if show still wit sophisticationstanley iris like education movie like green valley konrack one john voigt young african american charge south carolina danny devitos renaissance man etctell necessary story intellectual spiritual awakening story cant told often enoughone excellent addition genre
p23
aVfair dramalove story movie focus life blue collar people finding new life thru new lovethe acting good but film fails cinematographyscreenplaydirecting editingthe storyscript average bestthis film enjoyed fonda de niro fan people love middle age love story coartship wiser cautious levelit would also interesting people interested subject matter regarding illiteracy
p24
aValthough didnt like stanley iris tremendously film admire actingjane fonda robert de niro great moviehavent always fan fonda work but delicate strong timede niro ability make every role portrays acting goldgive great performance film great scene take father home elderly people cant care anymore break heartwouldnt really recommend film great cinematic entertainment but say wont see much bette acting anywhere
p25
aVvery good drama although appeared blank area leaving viewer fill actionimagine life way someone neither read nor writefilm simply smacked real world wife suddenly sole supporter live-in relative quarrel troubled child get knocked typically drop school jackass husband take nest egg buy beer2 thumb
p26
aVworking-class romantic drama director martin ritt unbelievable come yet moment pleasure due mostly charisma star jane fonda robert de niro terrificshes widow cant move he illiterate closet-inventor--you probably guess restadaptation pat barker novel union street better titlelaid-back verge bland film editing mess but still pleasant rosy-hued blue-collar fantasyno overture serious issue even illiteracy angle plot-tool ensuing love story no real firework though character intentionally bit colorless lead toned interesting degreefinale pure fluff--and cynic find difficult swallow--though two character deserve happy ending picture wouldnt really satisfying way
p27
a.