(lp1
(ipreprocess
Sentence
p2
(dp3
S'file_rating'
p4
I9
sS'filename'
p5
S'imdb/pos/0'
p6
sba(ipreprocess
Sentence
p7
(dp8
g4
I9
sg5
S'imdb/pos/10'
p9
sba(ipreprocess
Sentence
p10
(dp11
g4
I9
sg5
S'imdb/pos/11'
p12
sba(ipreprocess
Sentence
p13
(dp14
g4
I9
sg5
S'imdb/pos/12'
p15
sba(ipreprocess
Sentence
p16
(dp17
g4
I7
sg5
S'imdb/pos/13'
p18
sba(ipreprocess
Sentence
p19
(dp20
g4
I10
sg5
S'imdb/pos/14'
p21
sba(ipreprocess
Sentence
p22
(dp23
g4
I7
sg5
S'imdb/pos/15'
p24
sba(ipreprocess
Sentence
p25
(dp26
g4
I7
sg5
S'imdb/pos/16'
p27
sba(ipreprocess
Sentence
p28
(dp29
g4
I9
sg5
S'imdb/pos/17'
p30
sba(ipreprocess
Sentence
p31
(dp32
g4
I7
sg5
S'imdb/pos/18'
p33
sba(ipreprocess
Sentence
p34
(dp35
g4
I10
sg5
S'imdb/pos/19'
p36
sba(ipreprocess
Sentence
p37
(dp38
g4
I7
sg5
S'imdb/pos/1'
p39
sba(ipreprocess
Sentence
p40
(dp41
g4
I9
sg5
S'imdb/pos/20'
p42
sba(ipreprocess
Sentence
p43
(dp44
g4
I7
sg5
S'imdb/pos/21'
p45
sba(ipreprocess
Sentence
p46
(dp47
g4
I8
sg5
S'imdb/pos/22'
p48
sba(ipreprocess
Sentence
p49
(dp50
g4
I7
sg5
S'imdb/pos/23'
p51
sba(ipreprocess
Sentence
p52
(dp53
g4
I8
sg5
S'imdb/pos/24'
p54
sba(ipreprocess
Sentence
p55
(dp56
g4
I7
sg5
S'imdb/pos/25'
p57
sba(ipreprocess
Sentence
p58
(dp59
g4
I9
sg5
S'imdb/pos/2'
p60
sba(ipreprocess
Sentence
p61
(dp62
g4
I10
sg5
S'imdb/pos/3'
p63
sba(ipreprocess
Sentence
p64
(dp65
g4
I8
sg5
S'imdb/pos/4'
p66
sba(ipreprocess
Sentence
p67
(dp68
g4
I10
sg5
S'imdb/pos/5'
p69
sba(ipreprocess
Sentence
p70
(dp71
g4
I10
sg5
S'imdb/pos/6'
p72
sba(ipreprocess
Sentence
p73
(dp74
g4
I7
sg5
S'imdb/pos/7'
p75
sba(ipreprocess
Sentence
p76
(dp77
g4
I7
sg5
S'imdb/pos/8'
p78
sba(ipreprocess
Sentence
p79
(dp80
g4
I7
sg5
S'imdb/pos/9'
p81
sba.