(lp1
(lp2
(lp3
(S'bromwell'
S'RB'
p4
tp5
a(S'high'
S'JJ'
p6
tp7
a(S'cartoon'
S'NN'
p8
tp9
a(S'comedy'
g8
tp10
aa(lp11
(Vran
g6
tp12
a(Vtime
S'NN'
p13
tp14
a(Vprogram
S'NN'
p15
tp16
a(Vschool
S'NN'
p17
tp18
a(Vlife
S'NN'
p19
tp20
a(Vteacher
g8
tp21
aa(lp22
(V35
S'CD'
p23
tp24
a(Vyear
S'NN'
p25
tp26
a(Vteaching
S'VBG'
p27
tp28
a(Vprofession
g8
tp29
a(Vlead
g8
tp30
a(Vbelieve
S'VBP'
p31
tp32
a(Vbromwell
g4
tp33
a(Vhigh
g6
tp34
a(Vsatire
g8
tp35
a(Vmuch
g4
tp36
a(Vcloser
S'RBR'
p37
tp38
a(Vreality
g8
tp39
a(Vteacher
g8
tp40
aa(lp41
(Vscramble
g6
tp42
a(Vsurvive
g8
tp43
a(Vfinancially
g4
tp44
a(Vinsightful
g6
tp45
a(Vstudent
g8
tp46
a(Vsee
S'VB'
p47
tp48
a(Vright
g6
tp49
a(Vpathetic
g6
tp50
a(Vteacher
g8
tp51
a(Vpomp
g8
tp52
a(Vpettiness
g6
tp53
a(Vwhole
g6
tp54
a(Vsituation
S'NN'
p55
tp56
a(Vremind
g8
tp57
a(Vschool
g17
tp58
a(Vknew
S'VBD'
p59
tp60
a(Vstudent
g8
tp61
aa(lp62
(S'saw'
g8
tp63
a(S'episode'
g8
tp64
a(S'student'
g8
tp65
a(S'repeatedly'
g4
tp66
a(S'tried'
g59
tp67
a(S'burn'
g6
tp68
a(S'school'
g17
tp69
a(S'immediately'
S'RB'
p70
tp71
a(S'recalled'
g59
tp72
a(S'high'
g6
tp73
aa(lp74
(Vclassic
g6
tp75
a(Vline
S'NN'
p76
tp77
a(Vinspector
g8
tp78
a(Vim
g8
tp79
a(Vsack
g8
tp80
a(Vone
S'CD'
p81
tp82
a(Vteacher
g8
tp83
aa(lp84
(S'student'
g8
tp85
a(S'welcome'
g8
tp86
a(S'bromwell'
g8
tp87
a(S'high'
g6
tp88
aa(lp89
(Vexpect
g47
tp90
a(Vmany
S'JJ'
p91
tp92
a(Vadult
g6
tp93
a(Vage
S'NN'
p94
tp95
a(Vthink
g31
tp96
a(Vbromwell
g4
tp97
a(Vhigh
g6
tp98
a(Vfar
S'RB'
p99
tp100
a(Vfetched
g59
tp101
aa(lp102
(S'pity'
g8
tp103
a(S'isnt'
g8
tp104
aaa(lp105
(lp106
(Vim
S'NNS'
p107
tp108
a(Vmale
S'MD'
p109
tp110
a(Vnot
S'RB'
p111
tp112
a(Vgiven
S'VBN'
p113
tp114
a(Vwoman
S'NN'
p115
tp116
a(Vmovie
S'NN'
p117
tp118
a(Vbut
S'CC'
p119
tp120
a(Vreally
S'RB'
p121
tp122
a(Vwell
g4
tp123
a(Vdone
S'VBN'
p124
tp125
a(Vspecial
g6
tp126
a(Vstory
S'NN'
p127
tp128
aa(lp129
(S'no'
S'DT'
p130
tp131
a(S'personal'
S'JJ'
p132
tp133
a(S'love'
g8
tp134
a(S'jane'
g8
tp135
a(S'fonda'
g8
tp136
a(S'person'
S'NN'
p137
tp138
a(S'but'
g119
tp139
a(S'one'
g81
tp140
a(S'hell'
g8
tp141
a(S'fine'
g6
tp142
a(S'job'
S'NN'
p143
tp144
a(S'deniro'
g6
tp145
a(S'usual'
g6
tp146
a(S'superb'
g8
tp147
a(S'self'
g8
tp148
aa(lp149
(Veverything
S'NN'
p150
tp151
a(Vwell
g4
tp152
a(Vdone
g124
tp153
a(Vacting
g27
tp154
a(Vdirecting
g8
tp155
a(Vvisuals
g107
tp156
a(Vsetting
g27
tp157
a(Vphotography
g8
tp158
a(Vcasting
g8
tp159
aa(lp160
(S'if'
S'IN'
p161
tp162
a(S'enjoy'
g6
tp163
a(S'story'
g127
tp164
a(S'real'
S'JJ'
p165
tp166
a(S'people'
S'NNS'
p167
tp168
a(S'real'
g165
tp169
a(S'love'
S'IN'
p170
tp171
a(S'-'
S':'
tp172
a(S'winner'
g8
tp173
aaa(lp174
(lp175
(S'liked'
S'VBN'
p176
tp177
a(S'stanley'
g6
tp178
a(S'iris'
g6
tp179
a(S'very'
g4
tp180
a(S'much'
g6
tp181
aa(lp182
(S'acting'
g27
tp183
a(S'very'
g4
tp184
a(S'good'
g6
tp185
aa(lp186
(S'story'
g127
tp187
a(S'unique'
g6
tp188
a(S'interesting'
g6
tp189
a(S'arrangement'
g8
tp190
aa(lp191
(S'absence'
g8
tp192
a(S'violence'
g8
tp193
a(S'porno'
g8
tp194
a(S'sex'
g8
tp195
a(S'refreshing'
g8
tp196
aa(lp197
(Vcharacter
g8
tp198
a(Vvery
g4
tp199
a(Vconvincing
g6
tp200
a(Vfelt
g107
tp201
a(Vlike
g170
tp202
a(Vcould
S'MD'
p203
tp204
a(Vunderstand
g47
tp205
a(Vfeeling
g8
tp206
aa(lp207
(S'very'
g4
tp208
a(S'enjoyable'
g6
tp209
a(S'movie'
g117
tp210
aaa(lp211
(lp212
(S'liked'
g176
tp213
a(S'stanley'
g6
tp214
a(S'iris'
g6
tp215
a(S'very'
g4
tp216
a(S'much'
g6
tp217
aa(lp218
(S'acting'
g27
tp219
a(S'very'
g4
tp220
a(S'good'
g6
tp221
aa(lp222
(S'story'
g127
tp223
a(S'unique'
g6
tp224
a(S'interesting'
g6
tp225
a(S'arrangement'
g8
tp226
aa(lp227
(S'absence'
g8
tp228
a(S'violence'
g8
tp229
a(S'sex'
g8
tp230
a(S'refreshing'
g8
tp231
aa(lp232
(Vcharacter
g8
tp233
a(Vvery
g4
tp234
a(Vconvincing
g6
tp235
a(Vfelt
g107
tp236
a(Vlike
g170
tp237
a(Vcould
g203
tp238
a(Vunderstand
g47
tp239
a(Vfeeling
g8
tp240
aa(lp241
(S'very'
g4
tp242
a(S'enjoyable'
g6
tp243
a(S'movie'
g117
tp244
aaa(lp245
(lp246
(S'production'
S'NN'
p247
tp248
a(S'quality'
g8
tp249
a(S'cast'
g31
tp250
a(S'premise'
g8
tp251
a(S'authentic'
g6
tp252
a(S'new'
S'JJ'
p253
tp254
a(S'england'
g8
tp255
a(S'waterbury'
g8
tp256
a(S'ct'
g8
tp257
aa(lp258
(Vlocale
g6
tp259
a(Vlush
g8
tp260
a(Vjohn
g8
tp261
a(Vwilliams
g107
tp262
a(Vscore
g4
tp263
a(Vresulted
g59
tp264
a(V3-4
g6
tp265
a(Vstar
g8
tp266
a(Vcollector
g8
tp267
a(Vitem
g8
tp268
aa(lp269
(S'unfortunately'
g4
tp270
a(S'got'
g59
tp271
a(S'passable'
g6
tp272
a(S'2'
S'CD'
p273
tp274
a(S'star'
g8
tp275
a(S'decent'
g8
tp276
a(S'flick'
g8
tp277
a(S'mostly'
S'RB'
p278
tp279
a(S'memorable'
g6
tp280
a(S'tried'
g59
tp281
a(S'dobring'
g27
tp282
a(S'art'
g8
tp283
a(S'house'
S'NN'
p284
tp285
a(S'style'
S'NN'
p286
tp287
a(S'film'
S'NN'
p288
tp289
a(S'mainstream'
g8
tp290
aa(lp291
(Vsmall
S'JJ'
p292
tp293
a(Vtown
S'NN'
p294
tp295
a(Vlocale
g6
tp296
a(Vstory
g127
tp297
a(Vordinary
g6
tp298
a(Vpeople
g167
tp299
a(Vgenre
g31
tp300
a(Vif
g161
tp301
a(Vwell
g4
tp302
a(Vdone
g124
tp303
a(Vsatisfy
g8
tp304
a(Vmost
S'RBS'
p305
tp306
a(Vgrownup
g8
tp307
aa(lp308
(S'jane'
g8
tp309
a(S'fonda'
g8
tp310
a(S'unable'
g6
tp311
a(S'hide'
g8
tp312
a(S'braininess'
g8
tp313
a(S'enough'
g6
tp314
a(S'make'
g31
tp315
a(S'character'
g8
tp316
a(S'believable'
g8
tp317
aa(lp318
(S'wondered'
g176
tp319
a(S'wasnt'
g6
tp320
a(S'post'
g8
tp321
a(S'doctorate'
g47
tp322
a(S'yale'
g8
tp323
a(S'instead'
S'RB'
p324
tp325
a(S'working'
g27
tp326
a(S'dead'
g6
tp327
a(S'end'
g8
tp328
a(S'factory'
g8
tp329
a(S'job'
g143
tp330
a(S'waterbury'
g8
tp331
aa(lp332
(S'robert'
g8
tp333
a(S'diniros'
g107
tp334
a(S'character'
g31
tp335
a(S'bit'
g8
tp336
a(S'contrived'
g6
tp337
aa(lp338
(Villiterate
g6
tp339
a(Vnice
g6
tp340
a(Vguy
g8
tp341
a(Vloser
g37
tp342
a(Vturn
g47
tp343
a(Vactually
S'RB'
p344
tp345
a(Vlittle
g6
tp346
a(Vhelp
g8
tp347
a(Vjanes
g107
tp348
a(Vcharacter
g8
tp349
a(V1990
S'CD'
p350
tp351
a(Vversion
S'NN'
p352
tp353
a(Vhenry
g8
tp354
a(Vford
g8
tp355
a(Vthomas
S'VBZ'
p356
tp357
a(Vedisonbr
g6
tp358
a(Vbr
g8
tp359
a(Vgenre
g8
tp360
a(Vsuccessfully
g4
tp361
a(Vhandled
g59
tp362
a(Vnobody
g8
tp363
a(Vfool
g8
tp364
a(Vmid
g8
tp365
a(V90
S'CD'
p366
tp367
a(Vyear
g25
tp368
a(V2003
g81
tp369
a(Vschmidt
g8
tp370
aa(lp371
(Vwish
g6
tp372
a(Vmain
S'JJ'
p373
tp374
a(Vstream
g8
tp375
a(Vstudio
S'NN'
p376
tp377
a(Vwould
S'MD'
p378
tp379
a(Vtry
g47
tp380
a(Vstuff
g8
tp381
a(Vpost
g8
tp382
a(Vadolescent
g8
tp383
a(Vreserve
g8
tp384
a(Vcouple
g8
tp385
a(Vscreen
g8
tp386
a(Vmulti
g8
tp387
a(Vcinema
g8
tp388
a(Vcomplex
g6
tp389
a(Veffortsbr
g8
tp390
a(Vbr
g8
tp391
a(Vill
g6
tp392
a(Vgive
g47
tp393
a(Veffort
S'NN'
p394
tp395
aaa(lp396
(lp397
(S'film'
g288
tp398
a(S'special'
g6
tp399
a(S'place'
g8
tp400
a(S'heart'
S'NN'
p401
tp402
a(S'caught'
g59
tp403
a(S'first'
g6
tp404
a(S'time'
g13
tp405
a(S'teaching'
g27
tp406
a(S'adult'
g8
tp407
a(S'literacy'
g8
tp408
aa(lp409
(S'rang'
g47
tp410
a(S'very'
g4
tp411
a(S'true'
S'JJ'
p412
tp413
a(S'even'
g4
tp414
a(S'outstanding'
S'JJ'
p415
tp416
a(S'student'
g8
tp417
a(S'time'
g13
tp418
aa(lp419
(Vscene
g8
tp420
a(Vmake
g31
tp421
a(Vgulp
g8
tp422
a(Vsudden
g6
tp423
a(Vemotion
g8
tp424
a(Veven
g4
tp425
a(Vput
g59
tp426
a(Vsmile
g6
tp427
a(Vface
g8
tp428
a(Vsheer
g8
tp429
a(Videntification
g8
tp430
a(Vcharacter
g8
tp431
a(Vsituation
g55
tp432
aa(lp433
(Vbr
g8
tp434
a(Vbr
g8
tp435
a(Vexcellent
g6
tp436
a(Vperformance
S'NN'
p437
tp438
a(Vjane
g8
tp439
a(Vfonda
g8
tp440
a(Vrobert
g8
tp441
a(Vdeniro
g8
tp442
a(Vrank
g8
tp443
a(Vbest
S'JJS'
p444
tp445
a(Vwork
g8
tp446
a(Vgreat
S'JJ'
p447
tp448
a(Vturn
g8
tp449
a(Vyoung
S'JJ'
p450
tp451
a(Vmartha
g31
tp452
a(Vplimpton
g6
tp453
a(Vinspiring
g27
tp454
a(Vstory
g127
tp455
a(Vline
g76
tp456
a(Vhaunting
g27
tp457
a(Vmusical
g6
tp458
a(Vscore
g8
tp459
a(Vmake
g31
tp460
a(Vmost
g305
tp461
a(Venjoyable
g6
tp462
a(Vrewarding
g8
tp463
a(Vexperience
g8
tp464
aaa(lp465
(lp466
(S'guess'
g8
tp467
a(S'if'
g161
tp468
a(S'film'
g288
tp469
a(S'magic'
g8
tp470
a(S'dont'
g8
tp471
a(S'need'
g31
tp472
a(S'fluid'
g8
tp473
a(S'seamless'
g8
tp474
aa(lp475
(Vskip
g8
tp476
a(Vbackground
g8
tp477
a(Vinformation
S'NN'
p478
tp479
a(Vgo
g31
tp480
a(Vfast
g4
tp481
a(Vplace
g8
tp482
a(Vslow
g6
tp483
a(Vothers
S'NNS'
p484
tp485
a(Vetc
g31
tp486
aa(lp487
(S'magic'
g6
tp488
a(S'film'
g288
tp489
a(S'scene'
g8
tp490
a(S'library'
g8
tp491
aa(lp492
(Vmany
g91
tp493
a(Vminor
g6
tp494
a(Vflaw
g8
tp495
a(Vstanley
g8
tp496
a(Viris
g8
tp497
a(Vyet
g4
tp498
a(Vdont
g6
tp499
a(Vdetract
g8
tp500
a(Voverall
g6
tp501
a(Vpositive
S'JJ'
p502
tp503
a(Vimpact
g8
tp504
a(Vwatching
g27
tp505
a(Vpeople
g167
tp506
a(Vhelp
g31
tp507
a(Varea
S'NN'
p508
tp509
a(Vlife
g19
tp510
a(Vseem
g31
tp511
a(Vmost
g305
tp512
a(Vincomprehensible
g6
tp513
a(Vhardest
g8
tp514
a(Vfix
g8
tp515
aa(lp516
(Vcharacter
g8
tp517
a(Vsmart
g8
tp518
aa(lp519
(Vyet
g4
tp520
a(Vstanley
g176
tp521
a(Vcant
g6
tp522
a(Vunderstand
g8
tp523
a(Venough
g6
tp524
a(Vfunction
g8
tp525
a(Vcant
g8
tp526
a(Vread
g59
tp527
a(Vcant
g6
tp528
a(Vread
g47
tp529
a(Vhe
S'PRP'
p530
tp531
a(Vmuch
g6
tp532
a(Vadventure
g8
tp533
a(Vchildhood
g8
tp534
aa(lp535
(S'iris'
g6
tp536
a(S'although'
S'IN'
p537
tp538
a(S'well-educated'
g6
tp539
a(S'hasnt'
g107
tp540
a(S'enough'
g6
tp541
a(S'adventure'
g8
tp542
a(S'cant'
g8
tp543
a(S'understand'
g8
tp544
a(S'move'
g8
tp545
a(S'past'
g170
tp546
a(S'u-turn'
g6
tp547
a(S'life'
g19
tp548
a(S'took'
S'VBD'
p549
tp550
aa(lp551
(Vfault
g8
tp552
a(Vstrength
S'NN'
p553
tp554
a(Vcharacter
g8
tp555
a(Vcompliment
g8
tp556
aa(lp557
(S'may'
S'MD'
p558
tp559
a(S'bit'
g47
tp560
a(S'stretch'
g6
tp561
a(S'accept'
g170
tp562
a(S'iris'
g8
tp563
a(S'would'
g378
tp564
a(S'wind'
g47
tp565
a(S'working'
g27
tp566
a(S'year'
g25
tp567
a(S'year'
g25
tp568
a(S'factory'
g8
tp569
a(S'stanley'
g8
tp570
a(S'never'
S'RB'
p571
tp572
a(S'hid'
g356
tp573
a(S'illiteracy'
g8
tp574
a(S'enough'
g6
tp575
a(S'work'
g8
tp576
a(S'construction'
S'NN'
p577
tp578
a(S'better-paying'
g6
tp579
a(S'job'
g143
tp580
aa(lp581
(Vmystery
g8
tp582
a(Vexplained
g59
tp583
a(Vcourse
S'NN'
p584
tp585
a(Vstory
g127
tp586
a(Vunfolding
g27
tp587
a(Vseems
S'VBZ'
p588
tp589
a(Vsomewhat
g4
tp590
a(Vcontrived
g6
tp591
aa(lp592
(S'assume'
g47
tp593
a(S'no'
g130
tp594
a(S'one'
g81
tp595
a(S'took'
g549
tp596
a(S'time'
g13
tp597
a(S'rethink'
g8
tp598
a(S'script'
g8
tp599
aa(lp600
(S'even'
g4
tp601
a(S'good'
g6
tp602
a(S'moviejust'
g8
tp603
a(S'imagine'
g8
tp604
a(S'de'
g170
tp605
a(S'niro'
S'FW'
p606
tp607
a(S'fonda'
g6
tp608
a(S'plimpton'
g8
tp609
a(S'would'
g378
tp610
a(S'done'
g124
tp611
a(S'screen'
g8
tp612
a(S'if'
g161
tp613
a(S'someone'
S'NN'
p614
tp615
aaa(lp616
(lp617
(S'found'
g176
tp618
a(S'so-so'
g6
tp619
a(S'romancedrama'
g8
tp620
a(S'nice'
g6
tp621
a(S'ending'
S'VBG'
p622
tp623
a(S'generally'
S'RB'
p624
tp625
a(S'nice'
g6
tp626
a(S'feel'
g8
tp627
aa(lp628
(Vnot
g111
tp629
a(Vhallmark
g47
tp630
a(Vhall
g6
tp631
a(Vfame-type
g6
tp632
a(Vfamily
S'NN'
p633
tp634
a(Vfilm
g288
tp635
a(Vsleeping-before-marriage
g8
tp636
a(Vconsidered
g176
tp637
a(Vnormal
S'JJ'
p638
tp639
a(Vbehavior
g8
tp640
a(Vbut
g119
tp641
a(Vconsidering
S'VBG'
p642
tp643
a(Vstar
g6
tp644
a(Vjane
g8
tp645
a(Vfonda
g8
tp646
a(Vrobert
g8
tp647
a(Vde
g170
tp648
a(Vniro
g606
tp649
a(Vwould
g378
tp650
a(Vexpected
g176
tp651
a(Vlot
g8
tp652
a(Vrougher
S'JJR'
p653
tp654
a(Vmovie
g117
tp655
a(Vleast
g444
tp656
a(Vlanguage-wise
g6
tp657
aa(lp658
(S'br'
g8
tp659
a(S'br'
g356
tp660
a(S'most'
g305
tp661
a(S'memorable'
g6
tp662
a(S'part'
S'NN'
p663
tp664
a(S'film'
g288
tp665
a(S'portrayal'
g8
tp666
a(S'difficult'
S'JJ'
p667
tp668
a(S'must'
S'MD'
p669
tp670
a(S'learn'
g47
tp671
a(S'read'
g47
tp672
a(S'write'
g6
tp673
a(S'already'
S'RB'
p674
tp675
a(S'adult'
g8
tp676
aa(lp677
(Vthats
g107
tp678
a(Vbig
S'JJ'
p679
tp680
a(Vtheme
g6
tp681
a(Vmovie
g117
tp682
a(Vinvolves
g356
tp683
a(Vtouching
g27
tp684
a(Vscene
g8
tp685
a(Vbut
g119
tp686
a(Vhonest
g444
tp687
a(Vfilm
g288
tp688
a(Visnt
g8
tp689
a(Vmemorablebr
g8
tp690
a(Vbr
g8
tp691
a(Vstill
S'RB'
p692
tp693
a(Vfairly
S'RB'
p694
tp695
a(Vmild
g6
tp696
a(Vnice
g6
tp697
a(Vtale
g8
tp698
a(Vwould
g378
tp699
a(Vhappy
g47
tp700
a(Vrecommend
g47
tp701
aaa(lp702
(lp703
(Vcomplex
g6
tp704
a(Vfilm
g288
tp705
a(Vexplores
g107
tp706
a(Veffect
S'NN'
p707
tp708
a(Vfordist
g31
tp709
a(Vtaylorist
g8
tp710
a(Vmode
g8
tp711
a(Vindustrial
S'JJ'
p712
tp713
a(Vcapitalist
g8
tp714
a(Vproduction
g247
tp715
a(Vhuman
g6
tp716
a(Vrelation
g8
tp717
aa(lp718
(Vconstant
g6
tp719
a(Vreference
g8
tp720
a(Vassembly
g8
tp721
a(Vline
g76
tp722
a(Vproduction
g247
tp723
a(Vworker
g8
tp724
a(Vtreated
g59
tp725
a(Vcog
g6
tp726
a(Vmachine
S'NN'
p727
tp728
a(Voverseen
g6
tp729
a(Vmanager
S'NN'
p730
tp731
a(Vwielding
g27
tp732
a(Vclipboard
g8
tp733
a(Vcontrolling
g27
tp734
a(Vmuch
g6
tp735
a(Vhair
g8
tp736
a(Vworker
g8
tp737
a(Vleave
g31
tp738
a(Vexposed
g176
tp739
a(Vfiring
g6
tp740
a(Vworker
g8
tp741
a(Vstanley
g8
tp742
a(Vmeet
g8
tp743
a(Vcriterion
g8
tp744
a(Vsupervisor
g107
tp745
a(Vsay
g31
tp746
a(Valways
S'RB'
p747
tp748
a(Vtime
g13
tp749
a(Vhard
g6
tp750
a(Vworker
g8
tp751
a(Vgood
g6
tp752
a(Vwork
g8
tp753
a(Vbut
g119
tp754
a(Vmay
g558
tp755
a(Vunspecified
g6
tp756
a(Vfuture
g8
tp757
a(Vmake
g31
tp758
a(Vmistake
g8
tp759
aa(lp760
(Vbr
g8
tp761
a(Vbr
g8
tp762
a(Vsystem
S'NN'
p763
tp764
a(Vdestroys
g356
tp765
a(Vfamily
g633
tp766
a(V-
S':'
tp767
a(Vstanley
g8
tp768
a(Vsend
g31
tp769
a(Vfather
g8
tp770
a(Vnursing
g8
tp771
a(Vhome
g8
tp772
a(Vquickly
S'RB'
p773
tp774
a(Vdy
g59
tp775
a(Vstanley
g6
tp776
a(Vloses
g107
tp777
a(Vjob
g143
tp778
aa(lp779
(Viris
g6
tp780
a(Vdaughter
g8
tp781
a(Vsingle
S'JJ'
p782
tp783
a(Vteen
g8
tp784
a(Vmother
g8
tp785
a(Vdrop
g8
tp786
a(Vhigh
g6
tp787
a(Vschool
g17
tp788
a(Vtake
g47
tp789
a(Vjob
g143
tp790
a(Vplant
S'NN'
p791
tp792
aa(lp793
(Vreference
g8
tp794
a(Vmade
g59
tp795
a(Vfact
S'NN'
p796
tp797
a(Vdeclining
S'VBG'
p798
tp799
a(Vwage
S'NN'
p800
tp801
a(Vpartner
S'NN'
p802
tp803
a(Vneed
g31
tp804
a(Vwork
g8
tp805
a(Vimplication
g8
tp806
a(Vthere
g4
tp807
a(Vnobody
g8
tp808
a(Vleft
g59
tp809
a(Vhome
g8
tp810
a(Vcare
g8
tp811
a(Vkid
g8
tp812
aa(lp813
(Viris
g6
tp814
a(Vhusband
g8
tp815
a(Vdead
g6
tp816
a(Villness
g8
tp817
a(Vmultiple
g6
tp818
a(Vreference
g8
tp819
a(Vfilm
g288
tp820
a(Vcost
g8
tp821
a(Vmedical
S'JJ'
p822
tp823
a(Vcare
g8
tp824
a(Vviewer
g8
tp825
a(Vmust
g669
tp826
a(Vwonder
g47
tp827
a(Vif
g161
tp828
a(Vmight
S'MD'
p829
tp830
a(Vlived
g47
tp831
a(Vbetter
g37
tp832
a(Vcostly
S'JJ'
p833
tp834
a(Vcare
g8
tp835
aa(lp836
(Viris
g8
tp837
a(Vbrother
g8
tp838
a(Vlaw
S'NN'
p839
tp840
a(Vget
g31
tp841
a(Vabusive
g6
tp842
a(Vyet
g4
tp843
a(Vanother
S'DT'
p844
tp845
a(Vunsuccessful
g6
tp846
a(Vday
S'NN'
p847
tp848
a(Vunemployment
S'NN'
p849
tp850
a(Voffice
S'NN'
p851
tp852
a(Vwife
S'NN'
p853
tp854
a(Vyell
g31
tp855
a(Vbuying
g27
tp856
a(Vbeer
S'NN'
p857
tp858
a(Vsaving
g27
tp859
a(Vinstead
g324
tp860
a(Vleaving
g27
tp861
a(Vface
g8
tp862
a(Vlift
g8
tp863
a(Vandor
g8
tp864
a(Vteeth
g31
tp865
a(Vjob
g143
tp866
a(Veven
g4
tp867
a(Vworking
g27
tp868
a(Vclass
S'NN'
p869
tp870
a(Vno
g130
tp871
a(Vstake
S'NN'
p872
tp873
a(Vconventional
S'JJ'
p874
tp875
a(Vbourgeois
g6
tp876
a(Vnotion
g8
tp877
a(Vperfection
g8
tp878
a(Vbeauty
g8
tp879
a(Vbuy
g47
tp880
aa(lp881
(Vone
g81
tp882
a(Vreference
g8
tp883
a(Vrace
S'NN'
p884
tp885
a(Vfilm
g288
tp886
a(Vblack
S'JJ'
p887
tp888
a(Vfactory
g8
tp889
a(Vline
g76
tp890
a(Vworker
g8
tp891
a(Vwhose
S'WP$'
p892
tp893
a(Vhusband
g8
tp894
a(Vjail
g8
tp895
a(Vpresumably
g8
tp896
a(Vhe
g530
tp897
a(Valso
S'RB'
p898
tp899
a(Vblack
g887
tp900
a(Vblack
g887
tp901
a(Vmen
S'NNS'
p902
tp903
a(Vsuffer
g31
tp904
a(Vdisproportionally
g4
tp905
a(Vhigh
g6
tp906
a(Vincarceration
g8
tp907
a(Vrate
S'NN'
p908
tp909
aa(lp910
(Vremark
g8
tp911
a(Vlike
g170
tp912
a(Vtime
g13
tp913
a(V-
S':'
tp914
a(Vfamily
g633
tp915
a(Vcomposed
g59
tp916
a(Vprisoner
g8
tp917
a(Vwage
g800
tp918
a(Vslavebr
g59
tp919
a(Vbr
g8
tp920
a(Vstanley
g8
tp921
a(Vhowever
S'RB'
p922
tp923
a(Vstill
g692
tp924
a(Vbelief
g6
tp925
a(Vhuman
g6
tp926
a(Vrelation
g8
tp927
a(Vtherefore
g4
tp928
a(Vmost
g444
tp929
a(Vfilm
g288
tp930
a(Voutside
g6
tp931
a(Vsystem
g763
tp932
a(Vfordist
g6
tp933
a(Vcapitalism
g8
tp934
aa(lp935
(Vcare
g8
tp936
a(Vfather
g37
tp937
a(Vspite
g6
tp938
a(Vfact
g796
tp939
a(Vfather
g37
tp940
a(Vtraveling
g27
tp941
a(Vsalesman
g6
tp942
a(Vjob
g143
tp943
a(Vresulted
g59
tp944
a(Villiteracy
g8
tp945
a(V-
S':'
tp946
a(Vnot
g111
tp947
a(Vyet
g4
tp948
a(Vreduced
g176
tp949
a(Vhuman
g6
tp950
a(Vrelation
g8
tp951
a(Vpurely
g4
tp952
a(Vinstrumental
g6
tp953
a(Vcontract
S'NN'
p954
tp955
a(Viris
g356
tp956
a(Vbrother
g4
tp957
a(Vlaw
g839
tp958
a(Vsuggesting
g27
tp959
a(Vmarried
g176
tp960
a(Vwrong
g6
tp961
a(Vsister
g8
tp962
aa(lp963
(Vnot
g111
tp964
a(Viris
g6
tp965
a(Vsay
g31
tp966
a(Vconform
g47
tp967
a(Vwork-eat-sleep
g6
tp968
a(Vroutine
g6
tp969
a(Veveryone
S'NN'
p970
tp971
a(Velse
g4
tp972
a(Vrather
S'RB'
p973
tp974
a(Vus
S'PRP'
p975
tp976
a(Vtechnology
S'NN'
p977
tp978
a(Vtechnique
g8
tp979
a(Vindustrial
g712
tp980
a(Vproduction
g247
tp981
a(Vartisanal
g6
tp982
a(Vcreative
g6
tp983
a(Vway
S'NN'
p984
tp985
a(Vsort
g8
tp986
a(Vbauhaus
g8
tp987
a(Videal
g8
tp988
aa(lp989
(Vdream
g8
tp990
a(Vearly
g6
tp991
a(Vmodernist
g8
tp992
a(V1920s
g81
tp993
a(Vsocialist
g8
tp994
a(Vbauhaus
S'SYM'
p995
tp996
a(V-
S':'
tp997
a(Vuse
g8
tp998
a(Vtechnology
g977
tp999
a(Vprovide
g31
tp1000
a(Vbasic
g6
tp1001
a(Vneed
g31
tp1002
a(Vallowing
S'VBG'
p1003
tp1004
a(Vfree
g6
tp1005
a(Vtime
g13
tp1006
a(Vcreative
g6
tp1007
a(Vhuman
g6
tp1008
a(Vwork
g8
tp1009
a(Vfuller
g8
tp1010
a(Vhuman
g6
tp1011
a(Vrelation
g8
tp1012
aa(lp1013
(Valso
g898
tp1014
a(Voutside
g6
tp1015
a(Vtraditional
S'JJ'
p1016
tp1017
a(Vgender
g8
tp1018
a(Vrelation
g8
tp1019
aa(lp1020
(Vcook
g8
tp1021
a(Vclean
g6
tp1022
a(Vcare
g8
tp1023
a(Vfamily
g633
tp1024
a(Vknow
g31
tp1025
a(Viron
g8
tp1026
aa(lp1027
(Viris
g8
tp1028
a(Vhand
S'NN'
p1029
tp1030
a(Vlife
g19
tp1031
a(Vtraditionally
g4
tp1032
a(Vmale
g6
tp1033
a(Vrole
S'NN'
p1034
tp1035
a(V-
S':'
tp1036
a(Vshes
g107
tp1037
a(Vfactory
g6
tp1038
a(Vworker
g8
tp1039
a(Vmain
g373
tp1040
a(Vsource
S'NN'
p1041
tp1042
a(Vincome
S'NN'
p1043
tp1044
a(Vextended
g59
tp1045
a(Vfamily
g633
tp1046
a(Vbrings
g107
tp1047
a(Vstanley
g31
tp1048
a(Vpublic
g6
tp1049
a(Vrealm
g8
tp1050
a(Vtraditionally
g4
tp1051
a(Voff-limits
g6
tp1052
a(Vwoman
g115
tp1053
aa(lp1054
(Vteaching
g27
tp1055
a(Vread
g6
tp1056
a(Vwrite
g6
tp1057
a(Vgive
g6
tp1058
a(Vaccess
S'NN'
p1059
tp1060
a(Vworld
S'NN'
p1061
tp1062
a(Vknowledge
g8
tp1063
a(Valso
g898
tp1064
a(Vtraditionally
g4
tp1065
a(Vgendered
g176
tp1066
a(Vmalebr
g8
tp1067
a(Vbr
g8
tp1068
a(Vliteracy
g8
tp1069
a(Vused
g176
tp1070
a(Vmetaphor
g8
tp1071
a(Vtraditionally
g4
tp1072
a(Vmasculine
g6
tp1073
a(Vpublic
g6
tp1074
a(Vrealm
g8
tp1075
a(Vsystem
g763
tp1076
a(Vcirculation
g8
tp1077
a(Vmonetary
S'JJ'
p1078
tp1079
a(Vvehicular
g6
tp1080
a(Vcultural
g6
tp1081
a(Venable
g6
tp1082
a(Vparticipation
g8
tp1083
a(Vpublic
g6
tp1084
a(Vrealm
g8
tp1085
aa(lp1086
(Vwithout
S'IN'
p1087
tp1088
a(Vaccess
g1059
tp1089
a(Vstanley
g8
tp1090
a(Vfeminized
g176
tp1091
a(V-
S':'
tp1092
a(Vjob
g143
tp1093
a(Vopen
g6
tp1094
a(Vcooking
g8
tp1095
a(Vcleaning
g8
tp1096
aa(lp1097
(Vexcluded
g176
tp1098
a(Vregular
g6
tp1099
a(Vcirculation
g8
tp1100
a(Vunable
g6
tp1101
a(Vparticipate
g6
tp1102
a(Vmonetary
g1078
tp1103
a(Vcant
g8
tp1104
a(Vopen
g6
tp1105
a(Vbank
S'NN'
p1106
tp1107
a(Vaccount
g8
tp1108
a(Vvehicular
g6
tp1109
a(Vcant
g8
tp1110
a(Vget
g8
tp1111
a(Vdriver
g8
tp1112
a(Vlicense
g8
tp1113
a(Vcant
g8
tp1114
a(Vride
g8
tp1115
a(Vbus
g170
tp1116
a(Vsocial
S'JJ'
p1117
tp1118
a(Vasks
g107
tp1119
a(Vif
g161
tp1120
a(Vexists
g107
tp1121
a(Vif
g161
tp1122
a(Vcant
g6
tp1123
a(Vwrite
g8
tp1124
a(Vnamebr
g8
tp1125
a(Vbr
g8
tp1126
a(Vlearning
g27
tp1127
a(Vread
g6
tp1128
a(Vgrab
g8
tp1129
a(Vbook
S'NN'
p1130
tp1131
a(Vauto
S'NN'
p1132
tp1133
a(Vrepair
g8
tp1134
a(Vfarming
g27
tp1135
a(Vspirituality
g8
tp1136
a(Vbible
g8
tp1137
aa(lp1138
(Vword
S'NN'
p1139
tp1140
a(Vgod
g8
tp1141
a(Vtherefore
g4
tp1142
a(Vrelativized
g59
tp1143
a(Vplaced
g176
tp1144
a(Vvalue
S'NN'
p1145
tp1146
a(Vplane
g8
tp1147
a(Vhow-to
g6
tp1148
a(Vbook
g1130
tp1149
aa(lp1150
(Vfact
g796
tp1151
a(Vorganized
g176
tp1152
a(Vreligion
g8
tp1153
a(Vgeneral
g6
tp1154
a(Vvery
g4
tp1155
a(Voccasionally
g4
tp1156
a(Vpresent
g6
tp1157
a(V-
S':'
tp1158
a(Vbible
g8
tp1159
a(Valso
g898
tp1160
a(Vappears
S'VBZ'
p1161
tp1162
a(Vdresser
g6
tp1163
a(Vcamera
g8
tp1164
a(Vpan
g8
tp1165
a(Vfind
g31
tp1166
a(Vstanley
g6
tp1167
a(Viris
g8
tp1168
a(Vsex
g8
tp1169
aa(lp1170
(Vhowever
g922
tp1171
a(Vacknowledged
g59
tp1172
a(Vmoral
g6
tp1173
a(Vforce
g8
tp1174
a(V-
S':'
tp1175
a(Viris
g8
tp1176
a(Vclearly
S'RB'
p1177
tp1178
a(Vcharacter
g8
tp1179
a(Vdevoted
g176
tp1180
a(Vliving
g8
tp1181
a(Vgood
g6
tp1182
a(Vlife
g19
tp1183
a(Vmention
g8
tp1184
a(Vbeginning
g27
tp1185
a(Vfilm
g288
tp1186
a(Vrosary
g6
tp1187
a(Vamong
S'IN'
p1188
tp1189
a(Vobject
g6
tp1190
a(Vlost
g176
tp1191
a(Vpurse
g8
tp1192
a(Vsnatchingbr
g8
tp1193
a(Vbr
g8
tp1194
a(Vable
S'JJ'
p1195
tp1196
a(Vread
g8
tp1197
a(Venters
g107
tp1198
a(Vsystem
g763
tp1199
a(Vland
g31
tp1200
a(Vmanagerial
g6
tp1201
a(Vposition
S'NN'
p1202
tp1203
a(Vhealth
S'NN'
p1204
tp1205
a(Vcare
g8
tp1206
a(Vplan
g8
tp1207
a(Vcar
S'NN'
p1208
tp1209
a(Vhouse
g284
tp1210
a(Vtaking
g27
tp1211
a(Vplace
g8
tp1212
a(Vhead
g31
tp1213
a(Vfamily
g633
tp1214
a(Vbreadwinner
g8
tp1215
aa(lp1216
(Vpresumably
g4
tp1217
a(Vhe
g530
tp1218
a(Vindustrial
g712
tp1219
a(Vdesigner
g8
tp1220
a(Vdreaming
g27
tp1221
a(Vproduct
S'NN'
p1222
tp1223
a(Vrequire
g8
tp1224
a(Vothers
g484
tp1225
a(Venduring
g27
tp1226
a(Vdrudgery
g8
tp1227
a(Vassembly
g4
tp1228
a(Vline
g76
tp1229
a(Vproduce
g8
tp1230
aa(lp1231
(Vending
g622
tp1232
a(Vprobably
S'RB'
p1233
tp1234
a(Vbit
g6
tp1235
a(Vconventional
g874
tp1236
a(Vhollywood
g8
tp1237
a(Vfilm
g288
tp1238
a(Vincongruous
g6
tp1239
a(Vcome
g176
tp1240
a(Vleast
g444
tp1241
a(Vwonder
g8
tp1242
a(Vif
g161
tp1243
a(Vwasnt
g107
tp1244
a(Vforced
g59
tp1245
a(Vstudio
g376
tp1246
a(Vexec
g8
tp1247
a(Vsuddenly
g4
tp1248
a(Vworried
g59
tp1249
a(Vlack
g6
tp1250
a(Vfeel-good
g6
tp1251
a(Vending
g622
tp1252
a(Vpotential
g6
tp1253
a(Veffect
g707
tp1254
a(Vbottom
g8
tp1255
a(Vlinebr
g8
tp1256
a(Vbr
g8
tp1257
a(Vaccording
S'VBG'
p1258
tp1259
a(Vpundit
g8
tp1260
a(Vweve
g8
tp1261
a(Vcomfortably
g4
tp1262
a(Vmoved
g59
tp1263
a(Vpost-industrial
g6
tp1264
a(Vcapitalism
g8
tp1265
a(Vfilm
g288
tp1266
a(Valso
g898
tp1267
a(Vslightly
S'RB'
p1268
tp1269
a(Vnostalgic
g6
tp1270
a(Vfeel
g8
tp1271
a(Vthough
g170
tp1272
a(Vneeded
g6
tp1273
a(Vhistorical
g6
tp1274
a(Vdistance
g8
tp1275
a(Vreally
g121
tp1276
a(Vanalyze
g6
tp1277
a(Vhappened
g59
tp1278
a(Vperiod
S'NN'
p1279
tp1280
aa(lp1281
(S'br'
g8
tp1282
a(S'br'
g8
tp1283
a(S'nevertheless'
g4
tp1284
a(S'highly'
S'RB'
p1285
tp1286
a(S'recommended'
g6
tp1287
a(S'-'
S':'
tp1288
a(S'least'
g444
tp1289
a(S'if'
g161
tp1290
a(S'want'
g6
tp1291
a(S'exercise'
g8
tp1292
a(S'brain'
S'NN'
p1293
tp1294
aa(lp1295
(S'disregard'
g4
tp1296
a(S'ending'
g622
tp1297
a(S'close'
g6
tp1298
a(S'perfect'
g6
tp1299
a(S'10'
S'CD'
p1300
tp1301
aaa(lp1302
(lp1303
(Vstanley
g8
tp1304
a(Viris
g6
tp1305
a(Vheart
g401
tp1306
a(Vwarming
g27
tp1307
a(Vfilm
g288
tp1308
a(Vtwo
S'CD'
p1309
tp1310
a(Vpeople
g167
tp1311
a(Vfind
g31
tp1312
a(Vhelp
g6
tp1313
a(Vone
g81
tp1314
a(Vanother
g844
tp1315
a(Vovercome
g8
tp1316
a(Vproblem
S'NN'
p1317
tp1318
a(Vlife
g19
tp1319
aa(lp1320
(Vstanley
g6
tp1321
a(Vlife
g19
tp1322
a(Vdifficult
g667
tp1323
a(Vnever
g571
tp1324
a(Vlearned
g176
tp1325
a(Vread
g6
tp1326
a(Vwrite
g8
tp1327
aa(lp1328
(Viris
g6
tp1329
a(Vwidower
g653
tp1330
a(Vtwo
g1309
tp1331
a(Vteenage
g8
tp1332
a(Vchild
g8
tp1333
a(Vworking
g27
tp1334
a(Vbakery
g6
tp1335
a(Vmeet
g8
tp1336
a(Vstanley
g8
tp1337
aa(lp1338
(S'decides'
g107
tp1339
a(S'teach'
g31
tp1340
a(S'stanley'
g6
tp1341
a(S'read'
g8
tp1342
a(S'home'
g8
tp1343
a(S'spare'
g6
tp1344
a(S'time'
g13
tp1345
aa(lp1346
(S'time'
g13
tp1347
a(S'become'
g47
tp1348
a(S'romantically'
g4
tp1349
a(S'involved'
g6
tp1350
aa(lp1351
(Vstanley
g8
tp1352
a(Vlearns
g107
tp1353
a(Vread
g59
tp1354
a(Vgo
g47
tp1355
a(Vgood
g6
tp1356
a(Vjob
g143
tp1357
a(Vchicago
g107
tp1358
a(Vreturn
g31
tp1359
a(Viris
g6
tp1360
a(Vask
g8
tp1361
a(Vmarry
g8
tp1362
a(Vhimbr
g8
tp1363
a(Vbr
g8
tp1364
a(Vreally
g121
tp1365
a(Vgood
g6
tp1366
a(Vfilm
g288
tp1367
a(Vwithout
g1087
tp1368
a(Vnudity
g8
tp1369
a(Vviolence
g8
tp1370
a(Vprofanity
g8
tp1371
a(Vrare
g31
tp1372
a(Vtoday
S'NN'
p1373
tp1374
a(Vfilm
g288
tp1375
aa(lp1376
(S'good'
g6
tp1377
a(S'film'
g288
tp1378
a(S'round'
g8
tp1379
aa(lp1380
(S'br'
g8
tp1381
a(S'br'
g8
tp1382
aaa(lp1383
(lp1384
(Vread
g6
tp1385
a(Vcomment
g8
tp1386
a(Vtomreynolds2004
g8
tp1387
a(Vfeel
g47
tp1388
a(Vjump
g8
tp1389
aa(lp1390
(Vunderstand
g6
tp1391
a(Vdoesnt
g8
tp1392
a(Vlike
g170
tp1393
a(Vfilm
g288
tp1394
a(Vbut
g119
tp1395
a(Vreason
S'NN'
p1396
tp1397
a(Vnot
g111
tp1398
a(Vevident
g6
tp1399
aa(lp1400
(Vfeeling
g27
tp1401
a(Vregarding
g27
tp1402
a(Vfilm
g288
tp1403
a(Vnot
g111
tp1404
a(Vafraid
g6
tp1405
a(Vtravel
g8
tp1406
a(Vdarker
g8
tp1407
a(Vroad
S'NN'
p1408
tp1409
a(Vloneliness
g6
tp1410
a(Vfailure
g8
tp1411
a(Vdisappointment
g8
tp1412
a(Vsorrow
g8
tp1413
aa(lp1414
(Vtwo
g1309
tp1415
a(Vpeople
g167
tp1416
a(Vportrayed
g59
tp1417
a(Vplenty
g6
tp1418
a(Vreason
g1396
tp1419
a(Vbitter
g8
tp1420
a(Vangry
g6
tp1421
a(Vyet
g4
tp1422
a(Vfind
g31
tp1423
a(Vtenderness
g6
tp1424
a(Vcomfort
g8
tp1425
aa(lp1426
(S'great'
g447
tp1427
a(S'acting'
g8
tp1428
a(S'could'
g203
tp1429
a(S'make'
g47
tp1430
a(S'work'
g8
tp1431
a(S'without'
g1087
tp1432
a(S'becoming'
S'VBG'
p1433
tp1434
a(S'emotional'
g6
tp1435
a(S'quagmire'
g8
tp1436
a(S'sentimental'
g8
tp1437
a(S'sappy'
g6
tp1438
aa(lp1439
(Vreally
g121
tp1440
a(Vbecame
S'VBD'
p1441
tp1442
a(Vinterested
g6
tp1443
a(Vpeople
g167
tp1444
a(Voverwhelming
g27
tp1445
a(Vhumanity
g8
tp1446
a(Vgiven
g113
tp1447
a(Vstrong
S'JJ'
p1448
tp1449
a(Vperformance
g437
tp1450
aa(lp1451
(Vevery
S'DT'
p1452
tp1453
a(Vreason
g1396
tp1454
a(Vdislike
g170
tp1455
a(Vjane
g8
tp1456
a(Vfonda
g8
tp1457
a(Vvietnam
g606
tp1458
a(Vera
g8
tp1459
a(Vaction
S'NN'
p1460
tp1461
a(Vbut
g119
tp1462
a(Vpersonal
g132
tp1463
a(Vfeeling
g8
tp1464
a(Vapart
g4
tp1465
a(Vfabulous
g6
tp1466
a(Vrole
g1034
tp1467
aa(lp1468
(Vrobert
g8
tp1469
a(Vdeniro
g8
tp1470
a(Vsuperb
g8
tp1471
a(Vman
S'NN'
p1472
tp1473
a(Vwhose
g892
tp1474
a(Vintelligence
g8
tp1475
a(Vgoodness
g8
tp1476
a(Vbegin
g170
tp1477
a(Vfail
g6
tp1478
a(Vworld
g1061
tp1479
a(Vindifferent
g8
tp1480
a(Vability
S'NN'
p1481
tp1482
aa(lp1483
(S'first'
g4
tp1484
a(S'seen'
S'VBN'
p1485
tp1486
a(S'deniro'
g8
tp1487
a(S'using'
S'VBG'
p1488
tp1489
a(S'tenderness'
g8
tp1490
a(S'rather'
g973
tp1491
a(S'toughness'
g4
tp1492
a(S'sell'
g47
tp1493
a(S'character'
g37
tp1494
a(S'really'
g121
tp1495
a(S'like'
g170
tp1496
aa(lp1497
(S'film'
g288
tp1498
a(S'big'
g679
tp1499
a(S'surprise'
g8
tp1500
a(S'first'
g4
tp1501
a(S'viewed'
g59
tp1502
a(S'look'
g47
tp1503
a(S'forward'
g4
tp1504
a(S'seeing'
g27
tp1505
aaa(lp1506
(lp1507
(Vif
g161
tp1508
a(Vlike
g6
tp1509
a(Vadult
g8
tp1510
a(Vcomedy
g8
tp1511
a(Vcartoon
g8
tp1512
a(Vlike
g170
tp1513
a(Vsouth
g6
tp1514
a(Vpark
g8
tp1515
a(Vnearly
S'RB'
p1516
tp1517
a(Vsimilar
S'JJ'
p1518
tp1519
a(Vformat
g8
tp1520
a(Vsmall
g292
tp1521
a(Vadventure
g8
tp1522
a(Vthree
S'CD'
p1523
tp1524
a(Vteenage
g8
tp1525
a(Vgirl
g8
tp1526
a(Vbromwell
g8
tp1527
a(Vhigh
g6
tp1528
aa(lp1529
(Vkeisha
g8
tp1530
a(Vnatella
g8
tp1531
a(Vlatrina
g59
tp1532
a(Vgiven
g113
tp1533
a(Vexploding
g27
tp1534
a(Vsweet
g6
tp1535
a(Vbehaved
g176
tp1536
a(Vlike
g170
tp1537
a(Vbitch
g8
tp1538
a(Vthink
g31
tp1539
a(Vkeisha
g47
tp1540
a(Vgood
g6
tp1541
a(Vleader
S'NN'
p1542
tp1543
aa(lp1544
(Valso
g898
tp1545
a(Vsmall
g292
tp1546
a(Vstory
g127
tp1547
a(Vgoing
S'VBG'
p1548
tp1549
a(Vteacher
g6
tp1550
a(Vschool
g17
tp1551
aa(lp1552
(Vthere
g4
tp1553
a(Vidiotic
g6
tp1554
a(Vprincipal
g8
tp1555
a(Vmr
g8
tp1556
a(Vbip
g31
tp1557
a(Vnervous
g6
tp1558
a(Vmath
g8
tp1559
a(Vteacher
g4
tp1560
a(Vmany
g91
tp1561
a(Vothers
g484
tp1562
aa(lp1563
(Vcast
g8
tp1564
a(Valso
g898
tp1565
a(Vfantastic
g6
tp1566
a(Vlenny
g8
tp1567
a(Vhenry
g8
tp1568
a(Vgina
g8
tp1569
a(Vyashere
S'WRB'
p1570
tp1571
a(Veastenders
g107
tp1572
a(Vchrissie
g31
tp1573
a(Vwatt
g6
tp1574
a(Vtracy-ann
g6
tp1575
a(Voberman
g8
tp1576
a(Vsmack
g8
tp1577
a(Vpony
g8
tp1578
a(Vdoon
g8
tp1579
a(Vmackichan
g8
tp1580
a(Vdead
g6
tp1581
a(Vringer
g8
tp1582
a(Vmark
g8
tp1583
a(Vperry
g8
tp1584
a(Vblunder
g8
tp1585
a(Vnina
g8
tp1586
a(Vconti
g8
tp1587
aa(lp1588
(S'didnt'
g8
tp1589
a(S'know'
g31
tp1590
a(S'came'
S'VBD'
p1591
tp1592
a(S'canada'
g107
tp1593
a(S'but'
g119
tp1594
a(S'very'
g4
tp1595
a(S'good'
g6
tp1596
aa(lp1597
(S'very'
g4
tp1598
a(S'good'
g6
tp1599
aaa(lp1600
(lp1601
(S'stanley'
g8
tp1602
a(S'iris'
g8
tp1603
a(S'show'
g8
tp1604
a(S'triumph'
g6
tp1605
a(S'human'
g6
tp1606
a(S'spirit'
g8
tp1607
aa(lp1608
(S'stanley'
g8
tp1609
a(S'struggle'
g8
tp1610
a(S'become'
g47
tp1611
a(S'literate'
g6
tp1612
a(S'realize'
g6
tp1613
a(S'potential'
g8
tp1614
aa(lp1615
(S'iris'
g6
tp1616
a(S'find'
g31
tp1617
a(S'courage'
g6
tp1618
a(S'love'
g8
tp1619
a(S'becoming'
g1433
tp1620
a(S'widow'
g8
tp1621
aa(lp1622
(Vbeauty
g8
tp1623
a(Vmovie
g117
tp1624
a(Vdance
g8
tp1625
a(Vrobert
g8
tp1626
a(Vdeniro
g8
tp1627
a(Vjane
g8
tp1628
a(Vfonda
g8
tp1629
a(Vtogether
g4
tp1630
a(Vstarting
g27
tp1631
a(Vstopping
g27
tp1632
a(Vskill
g6
tp1633
a(Vcourage
g8
tp1634
a(Vcompletely
g4
tp1635
a(Vtrust
g6
tp1636
a(Vmove
g8
tp1637
aa(lp1638
(Vsense
g8
tp1639
a(Vvery
g4
tp1640
a(Vnicely
g4
tp1641
a(Vgive
g47
tp1642
a(Vu
g6
tp1643
a(Vgood
g6
tp1644
a(Vview
g8
tp1645
a(Vlife
g19
tp1646
a(Voften
S'RB'
p1647
tp1648
a(Vthus
S'RB'
p1649
tp1650
a(Vcredible
g6
tp1651
aa(lp1652
(Vunlike
S'IN'
p1653
tp1654
a(Vreviewer
g653
tp1655
a(Vfound
g8
tp1656
a(Vcharacter
g8
tp1657
a(Vrendered
g59
tp1658
a(Vconsistent
g6
tp1659
a(Vwhole
g6
tp1660
a(Vpicture
g8
tp1661
aa(lp1662
(Vsupporting
g27
tp1663
a(Vcast
g8
tp1664
a(Valso
g898
tp1665
a(Vcarefully
g4
tp1666
a(Vchosen
g176
tp1667
a(Vadd
g47
tp1668
a(Vdepth
g6
tp1669
a(Vcharacter
g8
tp1670
a(Vmain
g373
tp1671
a(Vcharacter
g8
tp1672
a(Vget
g8
tp1673
a(Vadded
g59
tp1674
a(Vmeaning
g8
tp1675
a(Vsupporting
g27
tp1676
a(Vperformance
g437
tp1677
aa(lp1678
(S'excellent'
g6
tp1679
a(S'movie'
g117
tp1680
aa(lp1681
(S'best'
g444
tp1682
a(S'thing'
S'NN'
p1683
tp1684
a(S'take'
g47
tp1685
a(S'hope'
g8
tp1686
aaa(lp1687
(lp1688
(Vmay
g558
tp1689
a(Vnot
g111
tp1690
a(Vmemorable
g47
tp1691
a(Vclassic
g6
tp1692
a(Vbut
g119
tp1693
a(Vtouching
g27
tp1694
a(Vromance
g8
tp1695
a(Vimportant
S'JJ'
p1696
tp1697
a(Vtheme
g8
tp1698
a(Vstress
g8
tp1699
a(Vimportance
g8
tp1700
a(Vliteracy
g8
tp1701
a(Vmodern
g6
tp1702
a(Vsociety
g8
tp1703
a(Vdevastating
g27
tp1704
a(Vcareer
g8
tp1705
a(Vlife
g19
tp1706
a(Vconsequence
g8
tp1707
a(Vunfortunate
g6
tp1708
a(Vindividual
g6
tp1709
a(Vlacking
g8
tp1710
a(Vvital
g6
tp1711
a(Vskillbr
g8
tp1712
a(Vbr
g8
tp1713
a(Vstory
g127
tp1714
a(Vrevolves
g356
tp1715
a(Varound
g170
tp1716
a(Viris
g6
tp1717
a(Vwidow
g8
tp1718
a(Vbecomes
g107
tp1719
a(Vacquainted
g59
tp1720
a(Vfellow
g6
tp1721
a(Vemployee
S'NN'
p1722
tp1723
a(Vfactory
g8
tp1724
a(Vjob
g143
tp1725
a(Villiterate
g6
tp1726
a(Vcafeteria
g8
tp1727
a(Vworker
g8
tp1728
a(Vnamed
g176
tp1729
a(Vstanley
g8
tp1730
aa(lp1731
(Viris
g6
tp1732
a(Vdiscovers
g107
tp1733
a(Vstanley
g31
tp1734
a(Vunable
g6
tp1735
a(Vread
g8
tp1736
a(Vloses
g107
tp1737
a(Vjob
g143
tp1738
a(Vgive
g31
tp1739
a(Vreading
g27
tp1740
a(Vlesson
g8
tp1741
a(Vhome
g8
tp1742
a(Vkitchen
g8
tp1743
aa(lp1744
(Vcourse
g584
tp1745
a(Vmight
g829
tp1746
a(Vpredict
g47
tp1747
a(Vtwo
g1309
tp1748
a(Valthough
g537
tp1749
a(Vinitially
g4
tp1750
a(Vwary
g6
tp1751
a(Vinvolvement
g8
tp1752
a(Vdevelop
g47
tp1753
a(Vfeeling
g27
tp1754
a(Votherbr
g6
tp1755
a(Vbr
g8
tp1756
a(Vjane
g8
tp1757
a(Vfonda
g8
tp1758
a(Vcompetently
g4
tp1759
a(Vplay
g47
tp1760
a(Viris
g6
tp1761
a(Vwoman
g115
tp1762
a(Vproblem
g1317
tp1763
a(Vcoping
g27
tp1764
a(Vjob
g143
tp1765
a(Vlacking
g27
tp1766
a(Vprospect
g6
tp1767
a(Vtwo
g1309
tp1768
a(Vteenage
g8
tp1769
a(Vchild
g31
tp1770
a(Vone
g81
tp1771
a(Vpregnant
g6
tp1772
a(Vunemployed
g6
tp1773
a(Vsister
g8
tp1774
a(Vabusive
g6
tp1775
a(Vhusband
g8
tp1776
aa(lp1777
(Vhowever
g922
tp1778
a(Vrobert
g6
tp1779
a(Vdeniro
g6
tp1780
a(Vcourse
g584
tp1781
a(Vbrilliant
g6
tp1782
a(Vendearing
g27
tp1783
a(Vportrayal
g6
tp1784
a(Vintelligent
g6
tp1785
a(Vresourceful
g8
tp1786
a(Vbut
g119
tp1787
a(Villiterate
g6
tp1788
a(Vstanley
g8
tp1789
a(Vbringing
g27
tp1790
a(Vdignity
g8
tp1791
a(Vrole
g1034
tp1792
a(Vcommand
g8
tp1793
a(Vrespect
g8
tp1794
aa(lp1795
(Varent
g6
tp1796
a(Vtypical
g6
tp1797
a(Vcharming
g8
tp1798
a(Vyoung
g450
tp1799
a(Vyuppie
g8
tp1800
a(Vcouple
g8
tp1801
a(Vgenerally
g624
tp1802
a(Vdepicted
g176
tp1803
a(Vscreen
g6
tp1804
a(Vromance
g8
tp1805
a(Vbut
g119
tp1806
a(Vordinary
g6
tp1807
a(Vworking
g6
tp1808
a(Vclass
g869
tp1809
a(Vmiddle
g8
tp1810
a(Vaged
g59
tp1811
a(Vpair
g8
tp1812
a(Vpretty
g4
tp1813
a(Vearth
g6
tp1814
a(Vstrugglesbr
g6
tp1815
a(Vbr
g8
tp1816
a(Vwont
g8
tp1817
a(Vgive
g31
tp1818
a(Vending
g622
tp1819
a(Vaway
g4
tp1820
a(Vbut
g119
tp1821
a(Vlovely
g4
tp1822
a(Vheartwarming
g27
tp1823
a(Vromance
g8
tp1824
a(Vpersonal
g132
tp1825
a(Vlook
g8
tp1826
a(Vtroubling
g27
tp1827
a(Vissue
g8
tp1828
a(Vadult
g8
tp1829
a(Villiteracy
g8
tp1830
a(Valbeit
g170
tp1831
a(Vperspective
g6
tp1832
a(Vfictional
g6
tp1833
a(Vcharacter
g8
tp1834
aaa(lp1835
(lp1836
(S'if'
g161
tp1837
a(S'fast'
g4
tp1838
a(S'forward'
g4
tp1839
a(S'horrible'
g6
tp1840
a(S'singing'
g8
tp1841
a(S'find'
g31
tp1842
a(S'classic'
g6
tp1843
a(S'fairy'
g6
tp1844
a(S'tale'
g8
tp1845
a(S'underneath'
g8
tp1846
aa(lp1847
(S'christopher'
g8
tp1848
a(S'walken'
g1570
tp1849
a(S'very'
g4
tp1850
a(S'humorous'
g6
tp1851
a(S'surprisingly'
g4
tp1852
a(S'good'
g6
tp1853
a(S'role'
g1034
tp1854
aa(lp1855
(Vtrademark
g8
tp1856
a(Vstyle
g286
tp1857
a(Vacting
g27
tp1858
a(Vwork
g8
tp1859
a(Vwell
g4
tp1860
a(Vsly
g4
tp1861
a(Vpus
g6
tp1862
a(Vboot
g8
tp1863
aa(lp1864
(Vactor
g8
tp1865
a(Vwell
g4
tp1866
a(Vpart
g663
tp1867
aa(lp1868
(S'not'
g111
tp1869
a(S'find'
g47
tp1870
a(S'acting'
g27
tp1871
a(S'terribly'
g4
tp1872
a(S'fake'
g47
tp1873
a(S'awkward'
g8
tp1874
aa(lp1875
(S'king'
g27
tp1876
a(S'particular'
g6
tp1877
a(S'appears'
g1161
tp1878
a(S'real'
g165
tp1879
a(S'dunce'
g8
tp1880
a(S'though'
g170
tp1881
a(S'wonder'
g8
tp1882
a(S'if'
g161
tp1883
a(S'supposed'
g176
tp1884
aa(lp1885
(S'not'
g111
tp1886
a(S'remember'
g47
tp1887
a(S'original'
g6
tp1888
a(S'tale'
g8
tp1889
aa(lp1890
(Vspecial
g6
tp1891
a(Veffect
g707
tp1892
a(Vtypical
g6
tp1893
a(Veighty
g8
tp1894
a(Vbut
g119
tp1895
a(Vleast
g444
tp1896
a(Vnot
g111
tp1897
a(Voverly
g4
tp1898
a(Vfake
g31
tp1899
a(Vlike
g170
tp1900
a(Vcomputer
S'NN'
p1901
tp1902
a(Vgenerated
g176
tp1903
a(Vfare
g8
tp1904
a(Vsee
g8
tp1905
a(Vtoday
g1373
tp1906
aa(lp1907
(Voverall
g6
tp1908
a(Vrecommend
g31
tp1909
a(Vmovie
g117
tp1910
a(Vchild
g8
tp1911
a(Vadult
g8
tp1912
a(Vchild
g6
tp1913
a(Vheart
g401
tp1914
aaa(lp1915
(lp1916
(Vok
g6
tp1917
a(Vmusical
g6
tp1918
a(Vpiece
g8
tp1919
a(Vpoorly
g4
tp1920
a(Vwritten
S'VBN'
p1921
tp1922
a(Vgenerally
g624
tp1923
a(Vpoorly
g4
tp1924
a(Vsung
g176
tp1925
a(Vthough
g170
tp1926
a(Vwalken
g6
tp1927
a(Vmarner
g8
tp1928
a(Vparticularly
S'RB'
p1929
tp1930
a(Vwalken
g4
tp1931
a(Vsounded
g176
tp1932
a(Vpretty
g4
tp1933
a(Vgood
g6
tp1934
aa(lp1935
(Vshattered
g176
tp1936
a(Vfourth
S'JJ'
p1937
tp1938
a(Vwall
g6
tp1939
a(Vend
g8
tp1940
a(Vking
g27
tp1941
a(Vnoble
g6
tp1942
a(Vsing
g6
tp1943
a(Vbattle
S'NN'
p1944
tp1945
a(Vogre
g6
tp1946
a(Vpraise
g8
tp1947
a(Veffort
g394
tp1948
a(Vpus
g8
tp1949
a(Vboot
g8
tp1950
a(Vright
g8
tp1951
a(Vshouldnt
g8
tp1952
a(Veven
g4
tp1953
a(Vknown
g176
tp1954
a(Vitbr
g8
tp1955
a(Vbr
g8
tp1956
a(Vcare
g8
tp1957
aa(lp1958
(Vchristopher
g8
tp1959
a(Vfreakin
g8
tp1960
a(Vwalken
g1570
tp1961
a(Vmovie
g117
tp1962
a(Vbased
S'VBN'
p1963
tp1964
a(Vfairy
g6
tp1965
a(Vtale
g6
tp1966
a(Vsings
g107
tp1967
a(Vdance
g8
tp1968
aa(lp1969
(Vacting
g27
tp1970
a(Vstyle
g286
tp1971
a(Vfit
g6
tp1972
a(Vrole
g1034
tp1973
a(Vvery
g4
tp1974
a(Vwell
g4
tp1975
a(Vdevious
g6
tp1976
a(Vmischievous
g6
tp1977
a(Vpus
g8
tp1978
a(Vseems
g588
tp1979
a(Vget
g31
tp1980
a(Vmaster
g8
tp1981
a(Vdeeper
g8
tp1982
a(Vdeeper
g8
tp1983
a(Vtrouble
S'NN'
p1984
tp1985
a(Vbut
g119
tp1986
a(Vfact
g796
tp1987
a(Vplan
g8
tp1988
a(Vhe
g530
tp1989
a(Vthought
g59
tp1990
a(Vseven
S'CD'
p1991
tp1992
a(Veight
S'CD'
p1993
tp1994
a(Vmove
g8
tp1995
a(Vadvance
g8
tp1996
aa(lp1997
(Vif
g161
tp1998
a(Vyouve
g176
tp1999
a(Vever
S'RB'
p2000
tp2001
a(Vseen
g1485
tp2002
a(Vwalken
g176
tp2003
a(Vvillainous
g6
tp2004
a(Vrole
g1034
tp2005
a(Vknow
g31
tp2006
a(Vogre
g6
tp2007
a(Vbit
g8
tp2008
a(Vdust
g6
tp2009
a(Vhard
g6
tp2010
a(Vend
g8
tp2011
a(Vwalken
g8
tp2012
a(Vgot
g59
tp2013
a(Vtrapbr
g6
tp2014
a(Vbr
g8
tp2015
a(Vfun
g8
tp2016
a(Vfilm
g288
tp2017
a(Vmust-see
g31
tp2018
a(Vanyone
S'NN'
p2019
tp2020
a(Venjoys
g356
tp2021
a(Vunique
g6
tp2022
a(Vstyle
g286
tp2023
a(Vchristopher
g8
tp2024
a(Vwalken
g8
tp2025
aaa(lp2026
(lp2027
(Valthough
g537
tp2028
a(Vobviously
g4
tp2029
a(Vlow-budget
g6
tp2030
a(Vproduction
g247
tp2031
a(Vperformance
g437
tp2032
a(Vsong
g8
tp2033
a(Vmovie
g117
tp2034
a(Vworth
g170
tp2035
a(Vseeing
g27
tp2036
aa(lp2037
(Vone
g81
tp2038
a(Vwalkens
g356
tp2039
a(Vmusical
g6
tp2040
a(Vrole
g1034
tp2041
a(Vdate
S'NN'
p2042
tp2043
aa(lp2044
(Vmarvelous
g6
tp2045
a(Vdancer
g8
tp2046
a(Vsinger
g8
tp2047
a(Vdemonstrates
g356
tp2048
a(Vacrobatic
g6
tp2049
a(Vskill
g8
tp2050
a(Vwell
g4
tp2051
a(V-
S':'
tp2052
a(Vwatch
g8
tp2053
a(Vcartwheel
g8
tp2054
aa(lp2055
(S'also'
g898
tp2056
a(S'starring'
g27
tp2057
a(S'jason'
g8
tp2058
a(S'connery'
g8
tp2059
aa(lp2060
(Vgreat
g447
tp2061
a(Vchildrens
g107
tp2062
a(Vstory
g127
tp2063
a(Vvery
g4
tp2064
a(Vlikable
g6
tp2065
a(Vcharacter
g8
tp2066
aaa(lp2067
(lp2068
(Vnever
g571
tp2069
a(Vsaw
g59
tp2070
a(Vkid
g107
tp2071
a(Vseen
g1485
tp2072
a(Vfresh
g6
tp2073
a(Veye
S'NN'
p2074
tp2075
aa(lp2076
(S'never'
g571
tp2077
a(S'heard'
g4
tp2078
a(S'rented'
g59
tp2079
a(S'5'
S'CD'
p2080
tp2081
a(S'year'
g25
tp2082
a(S'old'
S'JJ'
p2083
tp2084
a(S'daughter'
g8
tp2085
aa(lp2086
(S'plus'
S'CC'
p2087
tp2088
a(S'idea'
S'NN'
p2089
tp2090
a(S'christopher'
g4
tp2091
a(S'walken'
g6
tp2092
a(S'singing'
g27
tp2093
a(S'dancing'
g27
tp2094
a(S'made'
g176
tp2095
a(S'curious'
g6
tp2096
aa(lp2097
(S'special'
g6
tp2098
a(S'fx'
g6
tp2099
a(S'cheesy'
g8
tp2100
a(S'singing'
g27
tp2101
a(S'dancing'
g27
tp2102
a(S'mediocre'
g8
tp2103
aa(lp2104
(S'but'
g119
tp2105
a(S'story'
g127
tp2106
a(S'great'
g447
tp2107
aa(lp2108
(S'daughter'
g8
tp2109
a(S'entranced'
g59
tp2110
aa(lp2111
(S'loved'
g176
tp2112
a(S'watching'
g27
tp2113
a(S'walken'
g6
tp2114
a(S'role'
g1034
tp2115
a(S'thinking'
g27
tp2116
a(S'future'
g6
tp2117
a(S'held'
g8
tp2118
aa(lp2119
(S'very'
g4
tp2120
a(S'amusing'
g27
tp2121
a(S'see'
g8
tp2122
a(S'dance'
g8
tp2123
aa(lp2124
(Vif
g161
tp2125
a(Vsong
g6
tp2126
a(Vwerent
g6
tp2127
a(Vgreat
g447
tp2128
a(Vleast
g444
tp2129
a(Vwerent
g6
tp2130
a(Vdisney
g8
tp2131
a(Vover-produced
g6
tp2132
a(Vsaccharine
g8
tp2133
a(Vsweetness
g8
tp2134
aa(lp2135
(S'ogre'
g6
tp2136
a(S'scene'
g8
tp2137
a(S'beginning'
g27
tp2138
a(S'little'
g6
tp2139
a(S'scary'
g6
tp2140
a(S'little'
g4
tp2141
a(S'nervous'
g6
tp2142
a(S'saw'
g6
tp2143
a(S'end'
g8
tp2144
a(S'but'
g119
tp2145
a(S'mostly'
g278
tp2146
a(S'benign'
g6
tp2147
aa(lp2148
(Vinterestingly
g4
tp2149
a(Vrecently
S'RB'
p2150
tp2151
a(Vread
g47
tp2152
a(Vpus
g8
tp2153
a(Vboot
g8
tp2154
a(Vwondered
g59
tp2155
a(Vimplausibility
g8
tp2156
a(Vstory
g127
tp2157
aa(lp2158
(S'but'
g119
tp2159
a(S'staying'
g27
tp2160
a(S'true'
g412
tp2161
a(S'almost'
S'RB'
p2162
tp2163
a(S'every'
g1452
tp2164
a(S'aspect'
g8
tp2165
a(S'walkens'
g356
tp2166
a(S'acting'
g27
tp2167
a(S'made'
g176
tp2168
a(S'believable'
g6
tp2169
aa(lp2170
(S'great'
g447
tp2171
a(S'fun'
g8
tp2172
aa(lp2173
(S'id'
g6
tp2174
a(S'watch'
g8
tp2175
a(S'daughter'
g8
tp2176
aaa(lp2177
(lp2178
(S'bromwell'
g4
tp2179
a(S'high'
g6
tp2180
a(S'nothing'
S'NN'
p2181
tp2182
a(S'short'
g6
tp2183
a(S'brilliant'
g8
tp2184
aa(lp2185
(Vexpertly
g4
tp2186
a(Vscripted
g176
tp2187
a(Vperfectly
g4
tp2188
a(Vdelivered
g176
tp2189
a(Vsearing
g27
tp2190
a(Vparody
g8
tp2191
a(Vstudent
g8
tp2192
a(Vteacher
g8
tp2193
a(Vsouth
g6
tp2194
a(Vlondon
g6
tp2195
a(Vpublic
g6
tp2196
a(Vschool
g17
tp2197
a(Vleaf
g8
tp2198
a(Vliterally
g4
tp2199
a(Vrolling
g27
tp2200
a(Vlaughter
g8
tp2201
aa(lp2202
(S'vulgar'
g8
tp2203
a(S'provocative'
g6
tp2204
a(S'witty'
g8
tp2205
a(S'sharp'
S'JJ'
p2206
tp2207
aa(lp2208
(Vcharacter
g8
tp2209
a(Vsuperbly
g4
tp2210
a(Vcaricatured
g59
tp2211
a(Vcross
g6
tp2212
a(Vsection
g8
tp2213
a(Vbritish
g6
tp2214
a(Vsociety
g8
tp2215
a(Vaccurate
g8
tp2216
a(Vsociety
g8
tp2217
aa(lp2218
(Vfollowing
g27
tp2219
a(Vescapade
g8
tp2220
a(Vkeisha
g606
tp2221
a(Vlatrina
g8
tp2222
a(Vnatella
g8
tp2223
a(Vthree
g1523
tp2224
a(Vprotagonist
g8
tp2225
a(Vwant
g31
tp2226
a(Vbetter
g653
tp2227
a(Vterm
S'NN'
p2228
tp2229
a(Vshow
g8
tp2230
a(Vdoesnt
g356
tp2231
a(Vshy
g6
tp2232
a(Vaway
g4
tp2233
a(Vparodying
g27
tp2234
a(Vevery
g1452
tp2235
a(Vimaginable
g6
tp2236
a(Vsubject
g8
tp2237
aa(lp2238
(Vpolitical
S'JJ'
p2239
tp2240
a(Vcorrectness
g8
tp2241
a(Vfly
g8
tp2242
a(Vwindow
g8
tp2243
a(Vevery
g1452
tp2244
a(Vepisode
g8
tp2245
aa(lp2246
(Vif
g161
tp2247
a(Venjoy
g176
tp2248
a(Vshow
g31
tp2249
a(Varent
g6
tp2250
a(Vafraid
g6
tp2251
a(Vpoke
g8
tp2252
a(Vfun
g8
tp2253
a(Vevery
g1452
tp2254
a(Vtaboo
g8
tp2255
a(Vsubject
g6
tp2256
a(Vimaginable
g6
tp2257
a(Vbromwell
g8
tp2258
a(Vhigh
g6
tp2259
a(Vnot
g111
tp2260
a(Vdisappoint
g47
tp2261
aaa(lp2262
(lp2263
(Vworld
g1061
tp2264
a(Vstage
g8
tp2265
a(Vpeople
g167
tp2266
a(Vactor
g31
tp2267
a(Vit--or
g6
tp2268
a(Vsomething
S'NN'
p2269
tp2270
a(Vlike
g170
tp2271
aa(lp2272
(S'hell'
g8
tp2273
a(S'said'
S'VBD'
p2274
tp2275
a(S'theatre'
g8
tp2276
a(S'stopped'
g59
tp2277
a(S'orchestra'
g6
tp2278
a(S'pit--or'
g6
tp2279
a(S'even'
g4
tp2280
a(S'theatre'
g31
tp2281
a(S'door'
g8
tp2282
aa(lp2283
(Vnot
g111
tp2284
a(Vaudience
S'NN'
p2285
tp2286
a(Vparticipant
g6
tp2287
a(Vtheatrical
g6
tp2288
a(Vexperience
g8
tp2289
a(Vincluding
S'VBG'
p2290
tp2291
a(Vstory
g127
tp2292
a(Vitselfbr
g8
tp2293
a(Vbr
g8
tp2294
a(Vfilm
g288
tp2295
a(Vgrand
S'JJ'
p2296
tp2297
a(Vexperiment
g8
tp2298
a(Vsaid
g2274
tp2299
a(Vhey
g8
tp2300
aa(lp2301
(Vstory
g127
tp2302
a(Vneed
g109
tp2303
a(Vattention
S'NN'
p2304
tp2305
a(Vneed
g47
tp2306
a(Vactive
S'JJ'
p2307
tp2308
a(Vparticipation
g8
tp2309
aa(lp2310
(S'sometimes'
g4
tp2311
a(S'bring'
g6
tp2312
a(S'story'
g127
tp2313
a(S'sometimes'
g4
tp2314
a(S'go'
g47
tp2315
a(S'story'
g127
tp2316
aa(lp2317
(Vbr
g8
tp2318
a(Vbr
g8
tp2319
a(Vala
g356
tp2320
a(Vno
g130
tp2321
a(Vone
g8
tp2322
a(Vlistened
g59
tp2323
a(Vbut
g119
tp2324
a(Vnot
g111
tp2325
a(Vmean
g47
tp2326
a(Vnot
g111
tp2327
a(Vsaid
g2274
tp2328
aaa(lp2329
(lp2330
(Vfutz
g8
tp2331
a(Vshow
g8
tp2332
a(Vpreserved
g59
tp2333
a(Vexperimental
g6
tp2334
a(Vtheatre
g6
tp2335
a(Vmovement
S'NN'
p2336
tp2337
a(Vnew
g253
tp2338
a(Vyork
g8
tp2339
a(V1960s
g81
tp2340
a(Vorigin
g8
tp2341
a(Vbroadway
g8
tp2342
aa(lp2343
(Vthough
g170
tp2344
a(Vnot
g111
tp2345
a(Veveryone
g970
tp2346
a(Vgenuinely
g4
tp2347
a(Vbrilliant
g6
tp2348
a(Vdarkly
g8
tp2349
a(Vfunny
g59
tp2350
a(Veven
g4
tp2351
a(Voften
g1647
tp2352
a(Vdeeply
g31
tp2353
a(Vdisturbing
g27
tp2354
a(Vtale
g8
tp2355
a(Vlove
g8
tp2356
a(Vsex
g8
tp2357
a(Vpersonal
g132
tp2358
a(Vliberty
g8
tp2359
a(Vrevenge
g8
tp2360
a(Vserious
S'JJ'
p2361
tp2362
a(Vmorality
g8
tp2363
a(Vtale
g8
tp2364
a(Veven
g4
tp2365
a(Vrelevant
g6
tp2366
a(Vtime
g13
tp2367
a(Vcongress
g8
tp2368
a(Vwant
g31
tp2369
a(Voutlaw
g8
tp2370
a(Vgay
g8
tp2371
a(Vmarriage
g8
tp2372
a(Vtrashing
g27
tp2373
a(Vconstitution
g8
tp2374
aa(lp2375
(Vstory
g127
tp2376
a(Vnot
g111
tp2377
a(Vgay
g6
tp2378
a(Vthough
g170
tp2379
a(V--
S':'
tp2380
a(Vlove
g47
tp2381
a(Vsex
g8
tp2382
a(Vdont
g8
tp2383
a(Vconform
g47
tp2384
a(Vsocial
g1117
tp2385
a(Vnorm
g8
tp2386
a(Vtherefore
g4
tp2387
a(Vmust
g669
tp2388
a(Vremoved
g47
tp2389
a(Vviolence
g8
tp2390
a(Vhate
g8
tp2391
aa(lp2392
(Vsurface
g8
tp2393
a(Vtell
g31
tp2394
a(Vstory
g127
tp2395
a(Vman
g1472
tp2396
a(Vfall
g8
tp2397
a(Vlove
g31
tp2398
a(Vpig
g8
tp2399
a(Vbut
g119
tp2400
a(Vlike
g170
tp2401
a(Vgreat
g447
tp2402
a(Vfable
g6
tp2403
a(Vnot
g111
tp2404
a(Vreally
g121
tp2405
a(Vanimal
g6
tp2406
a(Vsomething
g2269
tp2407
a(Vbigger
S'JJR'
p2408
tp2409
a(V--
S':'
tp2410
a(Vstifling
g27
tp2411
a(Vconformity
g8
tp2412
a(Vamericabr
g8
tp2413
a(Vbr
g8
tp2414
a(Vstage
g8
tp2415
a(Vversion
g352
tp2416
a(Vinternational
S'JJ'
p2417
tp2418
a(Vacclaim
g8
tp2419
a(Voriginal
g6
tp2420
a(Vproduction
g247
tp2421
a(Vtoured
g59
tp2422
a(Vu
g6
tp2423
a(Veurope
g8
tp2424
a(Vothers
g484
tp2425
a(Vkind
S'NN'
p2426
tp2427
a(Vinfluenced
g59
tp2428
a(Valmost
g2162
tp2429
a(Vtheatre
g6
tp2430
a(Vcame
g1591
tp2431
aa(lp2432
(S'luckily'
g4
tp2433
a(S'preserved'
g176
tp2434
a(S'show'
g8
tp2435
a(S'pretty'
g4
tp2436
a(S'much'
g6
tp2437
a(S'originally'
g4
tp2438
a(S'conceived'
g176
tp2439
a(S'original'
g6
tp2440
a(S'cast'
g8
tp2441
a(S'original'
g6
tp2442
a(S'director'
S'NN'
p2443
tp2444
a(S'tom'
g8
tp2445
a(S'ohorgan'
g8
tp2446
a(S'also'
g898
tp2447
a(S'directed'
g59
tp2448
a(S'hair'
g6
tp2449
a(S'jesus'
g8
tp2450
a(S'christ'
g8
tp2451
a(S'superstar'
g8
tp2452
a(S'broadwaybr'
g8
tp2453
a(S'br'
g8
tp2454
a(S'not'
g111
tp2455
a(S'mainstream'
g6
tp2456
a(S'easy-to-take'
g6
tp2457
a(S'studio'
g376
tp2458
a(S'film'
g288
tp2459
a(S'--'
S':'
tp2460
a(S'aggressive'
S'JJ'
p2461
tp2462
a(S'unsettling'
g6
tp2463
a(S'glorious'
g6
tp2464
a(S'deeply'
g8
tp2465
a(S'emotional'
g6
tp2466
a(S'wildly'
g4
tp2467
a(S'imaginative'
g6
tp2468
a(S'piece'
g8
tp2469
a(S'storytelling'
g27
tp2470
a(S'youll'
S'PRP'
p2471
tp2472
a(S'never'
g571
tp2473
a(S'forget'
g47
tp2474
aa(lp2475
(S'might'
g829
tp2476
a(S'change'
g47
tp2477
a(S'way'
g984
tp2478
a(S'see'
g8
tp2479
a(S'world'
g1061
tp2480
aaa(lp2481
(lp2482
(Vcame
g1591
tp2483
a(Vmiddle
g6
tp2484
a(Vfilm
g288
tp2485
a(Vno
g130
tp2486
a(Videa
g2089
tp2487
a(Vcredit
S'NN'
p2488
tp2489
a(Veven
g4
tp2490
a(Vtitle
g47
tp2491
a(Vtill
g8
tp2492
a(Vlooked
g59
tp2493
a(Vsee
g31
tp2494
a(Vreceived
g176
tp2495
a(Vmixed
g6
tp2496
a(Vreception
g8
tp2497
a(Vcommentator
g8
tp2498
aa(lp2499
(S'im'
g4
tp2500
a(S'positive'
g502
tp2501
a(S'side'
g8
tp2502
a(S'regarding'
g27
tp2503
a(S'film'
g288
tp2504
a(S'but'
g119
tp2505
a(S'one'
g81
tp2506
a(S'thing'
g1683
tp2507
a(S'really'
g121
tp2508
a(S'caught'
g6
tp2509
a(S'attention'
g2304
tp2510
a(S'watched'
g59
tp2511
a(S'beautiful'
g6
tp2512
a(S'sensitive'
g6
tp2513
a(S'score'
g8
tp2514
a(S'written'
g1921
tp2515
a(S'coplandesque'
g6
tp2516
a(S'americana'
g107
tp2517
a(S'style'
g286
tp2518
aa(lp2519
(S'surprise'
g8
tp2520
a(S'great'
g447
tp2521
a(S'discovered'
g59
tp2522
a(S'score'
g4
tp2523
a(S'written'
g1921
tp2524
a(S'none'
g8
tp2525
a(S'john'
g8
tp2526
a(S'williams'
g107
tp2527
aa(lp2528
(Vtrue
g412
tp2529
a(Vwritten
g1921
tp2530
a(Vsensitive
g6
tp2531
a(Vpoignant
g8
tp2532
a(Vscore
g8
tp2533
a(Vschindlers
g107
tp2534
a(Vlist
g31
tp2535
a(Vbut
g119
tp2536
a(Vone
g81
tp2537
a(Vusually
S'RB'
p2538
tp2539
a(Vassociate
g6
tp2540
a(Vname
g8
tp2541
a(Vbombasticities
g107
tp2542
a(Vstar
g31
tp2543
a(Vwar
S'NN'
p2544
tp2545
aa(lp2546
(S'but'
g119
tp2547
a(S'opinion'
S'NN'
p2548
tp2549
a(S'williams'
g107
tp2550
a(S'written'
g1921
tp2551
a(S'movie'
g117
tp2552
a(S'surpasses'
g356
tp2553
a(S'anything'
S'NN'
p2554
tp2555
a(S'ive'
g6
tp2556
a(S'ever'
g2000
tp2557
a(S'heard'
g4
tp2558
a(S'tenderness'
g6
tp2559
a(S'sensitivity'
g8
tp2560
a(S'beauty'
g8
tp2561
a(S'fully'
S'RB'
p2562
tp2563
a(S'keeping'
S'VBG'
p2564
tp2565
a(S'tender'
g8
tp2566
a(S'lovely'
g4
tp2567
a(S'plot'
g6
tp2568
a(S'movie'
g117
tp2569
aa(lp2570
(Vanother
g844
tp2571
a(Vrecent
S'JJ'
p2572
tp2573
a(Vscore
g8
tp2574
a(Vcatch
g8
tp2575
a(Vif
g161
tp2576
a(Vshow
g8
tp2577
a(Vstill
g692
tp2578
a(Vwit
g356
tp2579
a(Vsophistication
g8
tp2580
aa(lp2581
(Vstanley
g6
tp2582
a(Viris
g8
tp2583
a(Vlike
g170
tp2584
a(Veducation
g8
tp2585
a(Vmovie
g117
tp2586
a(Vlike
g170
tp2587
a(Vgreen
g6
tp2588
a(Vvalley
g8
tp2589
a(Vkonrack
g8
tp2590
a(Vone
g81
tp2591
a(Vjohn
g8
tp2592
a(Vvoigt
g8
tp2593
a(Vyoung
g450
tp2594
a(Vafrican
g6
tp2595
a(Vamerican
g6
tp2596
a(Vcharge
g8
tp2597
a(Vsouth
g6
tp2598
a(Vcarolina
g6
tp2599
a(Vdanny
g8
tp2600
a(Vdevitos
g107
tp2601
a(Vrenaissance
g8
tp2602
a(Vman
g1472
tp2603
a(Vetc
g8
tp2604
aa(lp2605
(S'tell'
g4
tp2606
a(S'necessary'
S'JJ'
p2607
tp2608
a(S'story'
g127
tp2609
a(S'intellectual'
g6
tp2610
a(S'spiritual'
g6
tp2611
a(S'awakening'
g27
tp2612
a(S'story'
g127
tp2613
a(S'cant'
g8
tp2614
a(S'told'
g59
tp2615
a(S'often'
g1647
tp2616
a(S'enough'
g6
tp2617
aa(lp2618
(S'one'
g81
tp2619
a(S'excellent'
g6
tp2620
a(S'addition'
S'NN'
p2621
tp2622
a(S'genre'
g8
tp2623
aaa(lp2624
(lp2625
(Vfair
g6
tp2626
a(Vdramalove
g47
tp2627
a(Vstory
g127
tp2628
a(Vmovie
g117
tp2629
a(Vfocus
g8
tp2630
a(Vlife
g19
tp2631
a(Vblue
g6
tp2632
a(Vcollar
g6
tp2633
a(Vpeople
g167
tp2634
a(Vfinding
g27
tp2635
a(Vnew
g253
tp2636
a(Vlife
g19
tp2637
a(Vthru
g59
tp2638
a(Vnew
g253
tp2639
a(Vlovethe
g8
tp2640
a(Vacting
g27
tp2641
a(Vgood
g6
tp2642
a(Vbut
g119
tp2643
a(Vfilm
g288
tp2644
a(Vfails
g107
tp2645
a(Vcinematographyscreenplaydirecting
g27
tp2646
a(Veditingthe
g6
tp2647
a(Vstoryscript
g6
tp2648
a(Vaverage
g8
tp2649
a(Vbestthis
g8
tp2650
a(Vfilm
g288
tp2651
a(Venjoyed
g59
tp2652
a(Vfonda
g8
tp2653
a(Vde
g170
tp2654
a(Vniro
g606
tp2655
a(Vfan
g8
tp2656
a(Vpeople
g167
tp2657
a(Vlove
g31
tp2658
a(Vmiddle
g6
tp2659
a(Vage
g94
tp2660
a(Vlove
g47
tp2661
a(Vstory
g127
tp2662
a(Vcoartship
g8
tp2663
a(Vwiser
g37
tp2664
a(Vcautious
g6
tp2665
a(Vlevelit
g8
tp2666
a(Vwould
g378
tp2667
a(Valso
g898
tp2668
a(Vinteresting
g27
tp2669
a(Vpeople
g167
tp2670
a(Vinterested
g6
tp2671
a(Vsubject
g6
tp2672
a(Vmatter
g8
tp2673
a(Vregarding
g27
tp2674
a(Villiteracy
g8
tp2675
aaa(lp2676
(lp2677
(S'although'
g537
tp2678
a(S'didnt'
g8
tp2679
a(S'like'
g170
tp2680
a(S'stanley'
g8
tp2681
a(S'iris'
g8
tp2682
a(S'tremendously'
g4
tp2683
a(S'film'
g288
tp2684
a(S'admire'
g8
tp2685
a(S'acting'
g8
tp2686
aa(lp2687
(S'jane'
g8
tp2688
a(S'fonda'
g8
tp2689
a(S'robert'
g8
tp2690
a(S'de'
g170
tp2691
a(S'niro'
g606
tp2692
a(S'great'
g447
tp2693
a(S'movie'
g117
tp2694
aa(lp2695
(Vhavent
g8
tp2696
a(Valways
g747
tp2697
a(Vfan
g4
tp2698
a(Vfonda
g6
tp2699
a(Vwork
g8
tp2700
a(Vbut
g119
tp2701
a(Vdelicate
g47
tp2702
a(Vstrong
g1448
tp2703
a(Vtime
g13
tp2704
aa(lp2705
(S'de'
g170
tp2706
a(S'niro'
g606
tp2707
a(S'ability'
g1481
tp2708
a(S'make'
g31
tp2709
a(S'every'
g1452
tp2710
a(S'role'
g1034
tp2711
a(S'portrays'
g356
tp2712
a(S'acting'
g27
tp2713
a(S'gold'
g8
tp2714
aa(lp2715
(Vgive
g6
tp2716
a(Vgreat
g447
tp2717
a(Vperformance
g437
tp2718
a(Vfilm
g288
tp2719
a(Vgreat
g447
tp2720
a(Vscene
g8
tp2721
a(Vtake
g47
tp2722
a(Vfather
g8
tp2723
a(Vhome
g8
tp2724
a(Velderly
g6
tp2725
a(Vpeople
g167
tp2726
a(Vcant
g31
tp2727
a(Vcare
g8
tp2728
a(Vanymore
g4
tp2729
a(Vbreak
g6
tp2730
a(Vheart
g401
tp2731
aa(lp2732
(S'wouldnt'
g107
tp2733
a(S'really'
g121
tp2734
a(S'recommend'
g31
tp2735
a(S'film'
g288
tp2736
a(S'great'
g447
tp2737
a(S'cinematic'
g6
tp2738
a(S'entertainment'
S'NN'
p2739
tp2740
a(S'but'
g119
tp2741
a(S'say'
g31
tp2742
a(S'wont'
g6
tp2743
a(S'see'
g31
tp2744
a(S'much'
g6
tp2745
a(S'bette'
g8
tp2746
a(S'acting'
g27
tp2747
a(S'anywhere'
g4
tp2748
aaa(lp2749
(lp2750
(Vvery
g4
tp2751
a(Vgood
g6
tp2752
a(Vdrama
g8
tp2753
a(Valthough
g537
tp2754
a(Vappeared
g6
tp2755
a(Vblank
g6
tp2756
a(Varea
g508
tp2757
a(Vleaving
g27
tp2758
a(Vviewer
g653
tp2759
a(Vfill
g6
tp2760
a(Vaction
g1460
tp2761
aa(lp2762
(S'imagine'
g6
tp2763
a(S'life'
g19
tp2764
a(S'way'
g984
tp2765
a(S'someone'
g614
tp2766
a(S'neither'
g130
tp2767
a(S'read'
g8
tp2768
a(S'nor'
S'CC'
p2769
tp2770
a(S'write'
g6
tp2771
aa(lp2772
(Vfilm
g288
tp2773
a(Vsimply
S'RB'
p2774
tp2775
a(Vsmacked
g59
tp2776
a(Vreal
g165
tp2777
a(Vworld
g1061
tp2778
a(Vwife
g853
tp2779
a(Vsuddenly
g4
tp2780
a(Vsole
g6
tp2781
a(Vsupporter
g653
tp2782
a(Vlive-in
g6
tp2783
a(Vrelative
g6
tp2784
a(Vquarrel
g8
tp2785
a(Vtroubled
g59
tp2786
a(Vchild
g8
tp2787
a(Vget
g8
tp2788
a(Vknocked
g176
tp2789
a(Vtypically
S'RB'
p2790
tp2791
a(Vdrop
g6
tp2792
a(Vschool
g17
tp2793
a(Vjackass
g8
tp2794
a(Vhusband
g8
tp2795
a(Vtake
g47
tp2796
a(Vnest
g444
tp2797
a(Vegg
g8
tp2798
a(Vbuy
g47
tp2799
a(Vbeer
g857
tp2800
aa(lp2801
(V2
g273
tp2802
a(Vthumb
g8
tp2803
aaa(lp2804
(lp2805
(Vworking-class
g6
tp2806
a(Vromantic
g6
tp2807
a(Vdrama
g8
tp2808
a(Vdirector
g2443
tp2809
a(Vmartin
g59
tp2810
a(Vritt
g6
tp2811
a(Vunbelievable
g6
tp2812
a(Vcome
g176
tp2813
a(Vyet
g4
tp2814
a(Vmoment
S'NN'
p2815
tp2816
a(Vpleasure
g8
tp2817
a(Vdue
g6
tp2818
a(Vmostly
g278
tp2819
a(Vcharisma
g6
tp2820
a(Vstar
g8
tp2821
a(Vjane
g8
tp2822
a(Vfonda
g8
tp2823
a(Vrobert
g8
tp2824
a(Vde
g170
tp2825
a(Vniro
g606
tp2826
a(Vterrific
g8
tp2827
aa(lp2828
(Vshes
g107
tp2829
a(Vwidow
g31
tp2830
a(Vcant
g6
tp2831
a(Vmove
g8
tp2832
a(Vhe
g530
tp2833
a(Villiterate
g356
tp2834
a(Vcloset-inventor--you
g8
tp2835
a(Vprobably
g1233
tp2836
a(Vguess
g6
tp2837
a(Vrest
g8
tp2838
aa(lp2839
(Vadaptation
g8
tp2840
a(Vpat
g8
tp2841
a(Vbarker
g8
tp2842
a(Vnovel
g170
tp2843
a(Vunion
S'NN'
p2844
tp2845
a(Vstreet
g8
tp2846
a(Vbetter
g37
tp2847
a(Vtitle
g8
tp2848
aa(lp2849
(Vlaid-back
g6
tp2850
a(Vverge
g8
tp2851
a(Vbland
g8
tp2852
a(Vfilm
g288
tp2853
a(Vediting
g27
tp2854
a(Vmess
g8
tp2855
a(Vbut
g119
tp2856
a(Vstill
g692
tp2857
a(Vpleasant
g6
tp2858
a(Vrosy-hued
g6
tp2859
a(Vblue-collar
g6
tp2860
a(Vfantasy
g8
tp2861
aa(lp2862
(Vno
g130
tp2863
a(Voverture
g8
tp2864
a(Vserious
g2361
tp2865
a(Vissue
g8
tp2866
a(Veven
g4
tp2867
a(Villiteracy
g6
tp2868
a(Vangle
g170
tp2869
a(Vplot-tool
g6
tp2870
a(Vensuing
g27
tp2871
a(Vlove
g8
tp2872
a(Vstory
g127
tp2873
a(Vno
g130
tp2874
a(Vreal
g165
tp2875
a(Vfirework
g8
tp2876
a(Vthough
g170
tp2877
a(Vcharacter
g8
tp2878
a(Vintentionally
g4
tp2879
a(Vbit
g4
tp2880
a(Vcolorless
g6
tp2881
a(Vlead
g8
tp2882
a(Vtoned
g59
tp2883
a(Vinteresting
g6
tp2884
a(Vdegree
g8
tp2885
aa(lp2886
(Vfinale
g6
tp2887
a(Vpure
g8
tp2888
a(Vfluff--and
g8
tp2889
a(Vcynic
g6
tp2890
a(Vfind
g8
tp2891
a(Vdifficult
g667
tp2892
a(Vswallow--though
g6
tp2893
a(Vtwo
g1309
tp2894
a(Vcharacter
g8
tp2895
a(Vdeserve
g8
tp2896
a(Vhappy
g6
tp2897
a(Vending
g622
tp2898
a(Vpicture
g8
tp2899
a(Vwouldnt
g8
tp2900
a(Vreally
g121
tp2901
a(Vsatisfying
g6
tp2902
a(Vway
g984
tp2903
aaa.