(lp1
(ipreprocess
Sentence
p2
(dp3
S'file_rating'
p4
S'9.txt'
p5
sS'filename'
p6
S'imdb/pos/0'
p7
sba(ipreprocess
Sentence
p8
(dp9
g4
S'9.txt'
p10
sg6
S'imdb/pos/10'
p11
sba(ipreprocess
Sentence
p12
(dp13
g4
S'7.txt'
p14
sg6
S'imdb/pos/1'
p15
sba(ipreprocess
Sentence
p16
(dp17
g4
S'9.txt'
p18
sg6
S'imdb/pos/2'
p19
sba(ipreprocess
Sentence
p20
(dp21
g4
S'10.txt'
p22
sg6
S'imdb/pos/3'
p23
sba(ipreprocess
Sentence
p24
(dp25
g4
S'8.txt'
p26
sg6
S'imdb/pos/4'
p27
sba(ipreprocess
Sentence
p28
(dp29
g4
S'10.txt'
p30
sg6
S'imdb/pos/5'
p31
sba(ipreprocess
Sentence
p32
(dp33
g4
S'10.txt'
p34
sg6
S'imdb/pos/6'
p35
sba(ipreprocess
Sentence
p36
(dp37
g4
S'7.txt'
p38
sg6
S'imdb/pos/7'
p39
sba(ipreprocess
Sentence
p40
(dp41
g4
S'7.txt'
p42
sg6
S'imdb/pos/8'
p43
sba(ipreprocess
Sentence
p44
(dp45
g4
S'7.txt'
p46
sg6
S'imdb/pos/9'
p47
sba.