(lp1
(lp2
(lp3
(S'bromwell'
S'RB'
p4
tp5
a(S'high'
S'JJ'
p6
tp7
a(S'cartoon'
S'NN'
p8
tp9
a(S'comedy'
g8
tp10
aa(lp11
(Vran
g6
tp12
a(Vtime
S'NN'
p13
tp14
a(Vprogram
S'NN'
p15
tp16
a(Vschool
S'NN'
p17
tp18
a(Vlife
S'NN'
p19
tp20
a(Vteacher
g8
tp21
aa(lp22
(V35
S'CD'
p23
tp24
a(Vyear
S'NN'
p25
tp26
a(Vteaching
S'VBG'
p27
tp28
a(Vprofession
g8
tp29
a(Vlead
g8
tp30
a(Vbelieve
S'VBP'
p31
tp32
a(Vbromwell
g4
tp33
a(Vhigh
g6
tp34
a(Vsatire
g8
tp35
a(Vmuch
g4
tp36
a(Vcloser
S'RBR'
p37
tp38
a(Vreality
g8
tp39
a(Vteacher
g8
tp40
aa(lp41
(Vscramble
g6
tp42
a(Vsurvive
g8
tp43
a(Vfinancially
g4
tp44
a(Vinsightful
g6
tp45
a(Vstudent
g8
tp46
a(Vsee
S'VB'
p47
tp48
a(Vright
g6
tp49
a(Vpathetic
g6
tp50
a(Vteacher
g8
tp51
a(Vpomp
g8
tp52
a(Vpettiness
g6
tp53
a(Vwhole
g6
tp54
a(Vsituation
S'NN'
p55
tp56
a(Vremind
g8
tp57
a(Vschool
g17
tp58
a(Vknew
S'VBD'
p59
tp60
a(Vstudent
g8
tp61
aa(lp62
(S'saw'
g8
tp63
a(S'episode'
g8
tp64
a(S'student'
g8
tp65
a(S'repeatedly'
g4
tp66
a(S'tried'
g59
tp67
a(S'burn'
g6
tp68
a(S'school'
g17
tp69
a(S'immediately'
S'RB'
p70
tp71
a(S'recalled'
g59
tp72
a(S'high'
g6
tp73
aa(lp74
(Vclassic
g6
tp75
a(Vline
S'NN'
p76
tp77
a(Vinspector
g8
tp78
a(Vim
g8
tp79
a(Vsack
g8
tp80
a(Vone
S'CD'
p81
tp82
a(Vteacher
g8
tp83
aa(lp84
(S'student'
g8
tp85
a(S'welcome'
g8
tp86
a(S'bromwell'
g8
tp87
a(S'high'
g6
tp88
aa(lp89
(Vexpect
g47
tp90
a(Vmany
S'JJ'
p91
tp92
a(Vadult
g6
tp93
a(Vage
S'NN'
p94
tp95
a(Vthink
g31
tp96
a(Vbromwell
g4
tp97
a(Vhigh
g6
tp98
a(Vfar
S'RB'
p99
tp100
a(Vfetched
g59
tp101
aa(lp102
(S'pity'
g8
tp103
a(S'isnt'
g8
tp104
aaa(lp105
(lp106
(Vim
S'NNS'
p107
tp108
a(Vmale
S'MD'
p109
tp110
a(Vnot
S'RB'
p111
tp112
a(Vgiven
S'VBN'
p113
tp114
a(Vwoman
S'NN'
p115
tp116
a(Vmovie
S'NN'
p117
tp118
a(Vbut
S'CC'
p119
tp120
a(Vreally
S'RB'
p121
tp122
a(Vwell
g4
tp123
a(Vdone
S'VBN'
p124
tp125
a(Vspecial
g6
tp126
a(Vstory
S'NN'
p127
tp128
aa(lp129
(S'no'
S'DT'
p130
tp131
a(S'personal'
S'JJ'
p132
tp133
a(S'love'
g8
tp134
a(S'jane'
g8
tp135
a(S'fonda'
g8
tp136
a(S'person'
S'NN'
p137
tp138
a(S'but'
g119
tp139
a(S'one'
g81
tp140
a(S'hell'
g8
tp141
a(S'fine'
g6
tp142
a(S'job'
S'NN'
p143
tp144
a(S'deniro'
g6
tp145
a(S'usual'
g6
tp146
a(S'superb'
g8
tp147
a(S'self'
g8
tp148
aa(lp149
(Veverything
S'NN'
p150
tp151
a(Vwell
g4
tp152
a(Vdone
g124
tp153
a(Vacting
g27
tp154
a(Vdirecting
g8
tp155
a(Vvisuals
g107
tp156
a(Vsetting
g27
tp157
a(Vphotography
g8
tp158
a(Vcasting
g8
tp159
aa(lp160
(S'if'
S'IN'
p161
tp162
a(S'enjoy'
g6
tp163
a(S'story'
g127
tp164
a(S'real'
S'JJ'
p165
tp166
a(S'people'
S'NNS'
p167
tp168
a(S'real'
g165
tp169
a(S'love'
S'IN'
p170
tp171
a(S'-'
S':'
tp172
a(S'winner'
g8
tp173
aaa(lp174
(lp175
(Vif
g161
tp176
a(Vlike
g6
tp177
a(Vadult
g8
tp178
a(Vcomedy
g8
tp179
a(Vcartoon
g8
tp180
a(Vlike
g170
tp181
a(Vsouth
g6
tp182
a(Vpark
g8
tp183
a(Vnearly
S'RB'
p184
tp185
a(Vsimilar
S'JJ'
p186
tp187
a(Vformat
g8
tp188
a(Vsmall
S'JJ'
p189
tp190
a(Vadventure
g8
tp191
a(Vthree
S'CD'
p192
tp193
a(Vteenage
g8
tp194
a(Vgirl
g8
tp195
a(Vbromwell
g8
tp196
a(Vhigh
g6
tp197
aa(lp198
(Vkeisha
g8
tp199
a(Vnatella
g8
tp200
a(Vlatrina
g59
tp201
a(Vgiven
g113
tp202
a(Vexploding
g27
tp203
a(Vsweet
g6
tp204
a(Vbehaved
S'VBN'
p205
tp206
a(Vlike
g170
tp207
a(Vbitch
g8
tp208
a(Vthink
g31
tp209
a(Vkeisha
g47
tp210
a(Vgood
g6
tp211
a(Vleader
S'NN'
p212
tp213
aa(lp214
(Valso
S'RB'
p215
tp216
a(Vsmall
g189
tp217
a(Vstory
g127
tp218
a(Vgoing
S'VBG'
p219
tp220
a(Vteacher
g6
tp221
a(Vschool
g17
tp222
aa(lp223
(Vthere
g4
tp224
a(Vidiotic
g6
tp225
a(Vprincipal
g8
tp226
a(Vmr
g8
tp227
a(Vbip
g31
tp228
a(Vnervous
g6
tp229
a(Vmath
g8
tp230
a(Vteacher
g4
tp231
a(Vmany
g91
tp232
a(Vothers
S'NNS'
p233
tp234
aa(lp235
(Vcast
g8
tp236
a(Valso
g215
tp237
a(Vfantastic
g6
tp238
a(Vlenny
g8
tp239
a(Vhenry
g8
tp240
a(Vgina
g8
tp241
a(Vyashere
S'WRB'
p242
tp243
a(Veastenders
g107
tp244
a(Vchrissie
g31
tp245
a(Vwatt
g6
tp246
a(Vtracy-ann
g6
tp247
a(Voberman
g8
tp248
a(Vsmack
g8
tp249
a(Vpony
g8
tp250
a(Vdoon
g8
tp251
a(Vmackichan
g8
tp252
a(Vdead
g6
tp253
a(Vringer
g8
tp254
a(Vmark
g8
tp255
a(Vperry
g8
tp256
a(Vblunder
g8
tp257
a(Vnina
g8
tp258
a(Vconti
g8
tp259
aa(lp260
(S'didnt'
g8
tp261
a(S'know'
g31
tp262
a(S'came'
S'VBD'
p263
tp264
a(S'canada'
g107
tp265
a(S'but'
g119
tp266
a(S'very'
g4
tp267
a(S'good'
g6
tp268
aa(lp269
(S'very'
g4
tp270
a(S'good'
g6
tp271
aaa(lp272
(lp273
(S'bromwell'
g4
tp274
a(S'high'
g6
tp275
a(S'nothing'
S'NN'
p276
tp277
a(S'short'
g6
tp278
a(S'brilliant'
g8
tp279
aa(lp280
(Vexpertly
g4
tp281
a(Vscripted
g205
tp282
a(Vperfectly
g4
tp283
a(Vdelivered
g205
tp284
a(Vsearing
g27
tp285
a(Vparody
g8
tp286
a(Vstudent
g8
tp287
a(Vteacher
g8
tp288
a(Vsouth
g6
tp289
a(Vlondon
g6
tp290
a(Vpublic
g6
tp291
a(Vschool
g17
tp292
a(Vleaf
g8
tp293
a(Vliterally
g4
tp294
a(Vrolling
g27
tp295
a(Vlaughter
g8
tp296
aa(lp297
(S'vulgar'
g8
tp298
a(S'provocative'
g6
tp299
a(S'witty'
g8
tp300
a(S'sharp'
S'JJ'
p301
tp302
aa(lp303
(Vcharacter
g8
tp304
a(Vsuperbly
g4
tp305
a(Vcaricatured
g59
tp306
a(Vcross
g6
tp307
a(Vsection
g8
tp308
a(Vbritish
g6
tp309
a(Vsociety
g8
tp310
a(Vaccurate
g8
tp311
a(Vsociety
g8
tp312
aa(lp313
(Vfollowing
g27
tp314
a(Vescapade
g8
tp315
a(Vkeisha
S'FW'
p316
tp317
a(Vlatrina
g8
tp318
a(Vnatella
g8
tp319
a(Vthree
g192
tp320
a(Vprotagonist
g8
tp321
a(Vwant
g31
tp322
a(Vbetter
S'JJR'
p323
tp324
a(Vterm
S'NN'
p325
tp326
a(Vshow
g8
tp327
a(Vdoesnt
S'VBZ'
p328
tp329
a(Vshy
g6
tp330
a(Vaway
g4
tp331
a(Vparodying
g27
tp332
a(Vevery
S'DT'
p333
tp334
a(Vimaginable
g6
tp335
a(Vsubject
g8
tp336
aa(lp337
(Vpolitical
S'JJ'
p338
tp339
a(Vcorrectness
g8
tp340
a(Vfly
g8
tp341
a(Vwindow
g8
tp342
a(Vevery
g333
tp343
a(Vepisode
g8
tp344
aa(lp345
(Vif
g161
tp346
a(Venjoy
g205
tp347
a(Vshow
g31
tp348
a(Varent
g6
tp349
a(Vafraid
g6
tp350
a(Vpoke
g8
tp351
a(Vfun
g8
tp352
a(Vevery
g333
tp353
a(Vtaboo
g8
tp354
a(Vsubject
g6
tp355
a(Vimaginable
g6
tp356
a(Vbromwell
g8
tp357
a(Vhigh
g6
tp358
a(Vnot
g111
tp359
a(Vdisappoint
g47
tp360
aaa(lp361
(lp362
(Vworld
S'NN'
p363
tp364
a(Vstage
g8
tp365
a(Vpeople
g167
tp366
a(Vactor
g31
tp367
a(Vit--or
g6
tp368
a(Vsomething
S'NN'
p369
tp370
a(Vlike
g170
tp371
aa(lp372
(S'hell'
g8
tp373
a(S'said'
S'VBD'
p374
tp375
a(S'theatre'
g8
tp376
a(S'stopped'
g59
tp377
a(S'orchestra'
g6
tp378
a(S'pit--or'
g6
tp379
a(S'even'
g4
tp380
a(S'theatre'
g31
tp381
a(S'door'
g8
tp382
aa(lp383
(Vnot
g111
tp384
a(Vaudience
S'NN'
p385
tp386
a(Vparticipant
g6
tp387
a(Vtheatrical
g6
tp388
a(Vexperience
g8
tp389
a(Vincluding
S'VBG'
p390
tp391
a(Vstory
g127
tp392
a(Vitselfbr
g8
tp393
a(Vbr
g8
tp394
a(Vfilm
S'NN'
p395
tp396
a(Vgrand
S'JJ'
p397
tp398
a(Vexperiment
g8
tp399
a(Vsaid
g374
tp400
a(Vhey
g8
tp401
aa(lp402
(Vstory
g127
tp403
a(Vneed
g109
tp404
a(Vattention
S'NN'
p405
tp406
a(Vneed
g47
tp407
a(Vactive
S'JJ'
p408
tp409
a(Vparticipation
g8
tp410
aa(lp411
(S'sometimes'
g4
tp412
a(S'bring'
g6
tp413
a(S'story'
g127
tp414
a(S'sometimes'
g4
tp415
a(S'go'
g47
tp416
a(S'story'
g127
tp417
aa(lp418
(Vbr
g8
tp419
a(Vbr
g8
tp420
a(Vala
g328
tp421
a(Vno
g130
tp422
a(Vone
g8
tp423
a(Vlistened
g59
tp424
a(Vbut
g119
tp425
a(Vnot
g111
tp426
a(Vmean
g47
tp427
a(Vnot
g111
tp428
a(Vsaid
g374
tp429
aaa(lp430
(lp431
(Vfutz
g8
tp432
a(Vshow
g8
tp433
a(Vpreserved
g59
tp434
a(Vexperimental
g6
tp435
a(Vtheatre
g6
tp436
a(Vmovement
S'NN'
p437
tp438
a(Vnew
S'JJ'
p439
tp440
a(Vyork
g8
tp441
a(V1960s
g81
tp442
a(Vorigin
g8
tp443
a(Vbroadway
g8
tp444
aa(lp445
(Vthough
g170
tp446
a(Vnot
g111
tp447
a(Veveryone
S'NN'
p448
tp449
a(Vgenuinely
g4
tp450
a(Vbrilliant
g6
tp451
a(Vdarkly
g8
tp452
a(Vfunny
g59
tp453
a(Veven
g4
tp454
a(Voften
S'RB'
p455
tp456
a(Vdeeply
g31
tp457
a(Vdisturbing
g27
tp458
a(Vtale
g8
tp459
a(Vlove
g8
tp460
a(Vsex
g8
tp461
a(Vpersonal
g132
tp462
a(Vliberty
g8
tp463
a(Vrevenge
g8
tp464
a(Vserious
S'JJ'
p465
tp466
a(Vmorality
g8
tp467
a(Vtale
g8
tp468
a(Veven
g4
tp469
a(Vrelevant
g6
tp470
a(Vtime
g13
tp471
a(Vcongress
g8
tp472
a(Vwant
g31
tp473
a(Voutlaw
g8
tp474
a(Vgay
g8
tp475
a(Vmarriage
g8
tp476
a(Vtrashing
g27
tp477
a(Vconstitution
g8
tp478
aa(lp479
(Vstory
g127
tp480
a(Vnot
g111
tp481
a(Vgay
g6
tp482
a(Vthough
g170
tp483
a(V--
S':'
tp484
a(Vlove
g47
tp485
a(Vsex
g8
tp486
a(Vdont
g8
tp487
a(Vconform
g47
tp488
a(Vsocial
S'JJ'
p489
tp490
a(Vnorm
g8
tp491
a(Vtherefore
g4
tp492
a(Vmust
S'MD'
p493
tp494
a(Vremoved
g47
tp495
a(Vviolence
g8
tp496
a(Vhate
g8
tp497
aa(lp498
(Vsurface
g8
tp499
a(Vtell
g31
tp500
a(Vstory
g127
tp501
a(Vman
S'NN'
p502
tp503
a(Vfall
g8
tp504
a(Vlove
g31
tp505
a(Vpig
g8
tp506
a(Vbut
g119
tp507
a(Vlike
g170
tp508
a(Vgreat
S'JJ'
p509
tp510
a(Vfable
g6
tp511
a(Vnot
g111
tp512
a(Vreally
g121
tp513
a(Vanimal
g6
tp514
a(Vsomething
g369
tp515
a(Vbigger
S'JJR'
p516
tp517
a(V--
S':'
tp518
a(Vstifling
g27
tp519
a(Vconformity
g8
tp520
a(Vamericabr
g8
tp521
a(Vbr
g8
tp522
a(Vstage
g8
tp523
a(Vversion
S'NN'
p524
tp525
a(Vinternational
S'JJ'
p526
tp527
a(Vacclaim
g8
tp528
a(Voriginal
g6
tp529
a(Vproduction
S'NN'
p530
tp531
a(Vtoured
g59
tp532
a(Vu
g6
tp533
a(Veurope
g8
tp534
a(Vothers
g233
tp535
a(Vkind
S'NN'
p536
tp537
a(Vinfluenced
g59
tp538
a(Valmost
S'RB'
p539
tp540
a(Vtheatre
g6
tp541
a(Vcame
g263
tp542
aa(lp543
(S'luckily'
g4
tp544
a(S'preserved'
g205
tp545
a(S'show'
g8
tp546
a(S'pretty'
g4
tp547
a(S'much'
g6
tp548
a(S'originally'
g4
tp549
a(S'conceived'
g205
tp550
a(S'original'
g6
tp551
a(S'cast'
g8
tp552
a(S'original'
g6
tp553
a(S'director'
S'NN'
p554
tp555
a(S'tom'
g8
tp556
a(S'ohorgan'
g8
tp557
a(S'also'
g215
tp558
a(S'directed'
g59
tp559
a(S'hair'
g6
tp560
a(S'jesus'
g8
tp561
a(S'christ'
g8
tp562
a(S'superstar'
g8
tp563
a(S'broadwaybr'
g8
tp564
a(S'br'
g8
tp565
a(S'not'
g111
tp566
a(S'mainstream'
g6
tp567
a(S'easy-to-take'
g6
tp568
a(S'studio'
S'NN'
p569
tp570
a(S'film'
g395
tp571
a(S'--'
S':'
tp572
a(S'aggressive'
S'JJ'
p573
tp574
a(S'unsettling'
g6
tp575
a(S'glorious'
g6
tp576
a(S'deeply'
g8
tp577
a(S'emotional'
g6
tp578
a(S'wildly'
g4
tp579
a(S'imaginative'
g6
tp580
a(S'piece'
g8
tp581
a(S'storytelling'
g27
tp582
a(S'youll'
S'PRP'
p583
tp584
a(S'never'
S'RB'
p585
tp586
a(S'forget'
g47
tp587
aa(lp588
(S'might'
S'MD'
p589
tp590
a(S'change'
g47
tp591
a(S'way'
S'NN'
p592
tp593
a(S'see'
g8
tp594
a(S'world'
g363
tp595
aaa(lp596
(lp597
(Vcame
g263
tp598
a(Vmiddle
g6
tp599
a(Vfilm
g395
tp600
a(Vno
g130
tp601
a(Videa
S'NN'
p602
tp603
a(Vcredit
S'NN'
p604
tp605
a(Veven
g4
tp606
a(Vtitle
g47
tp607
a(Vtill
g8
tp608
a(Vlooked
g59
tp609
a(Vsee
g31
tp610
a(Vreceived
g205
tp611
a(Vmixed
g6
tp612
a(Vreception
g8
tp613
a(Vcommentator
g8
tp614
aa(lp615
(S'im'
g4
tp616
a(S'positive'
S'JJ'
p617
tp618
a(S'side'
g8
tp619
a(S'regarding'
g27
tp620
a(S'film'
g395
tp621
a(S'but'
g119
tp622
a(S'one'
g81
tp623
a(S'thing'
S'NN'
p624
tp625
a(S'really'
g121
tp626
a(S'caught'
g6
tp627
a(S'attention'
g405
tp628
a(S'watched'
g59
tp629
a(S'beautiful'
g6
tp630
a(S'sensitive'
g6
tp631
a(S'score'
g8
tp632
a(S'written'
S'VBN'
p633
tp634
a(S'coplandesque'
g6
tp635
a(S'americana'
g107
tp636
a(S'style'
S'NN'
p637
tp638
aa(lp639
(S'surprise'
g8
tp640
a(S'great'
g509
tp641
a(S'discovered'
g59
tp642
a(S'score'
g4
tp643
a(S'written'
g633
tp644
a(S'none'
g8
tp645
a(S'john'
g8
tp646
a(S'williams'
g107
tp647
aa(lp648
(Vtrue
S'JJ'
p649
tp650
a(Vwritten
g633
tp651
a(Vsensitive
g6
tp652
a(Vpoignant
g8
tp653
a(Vscore
g8
tp654
a(Vschindlers
g107
tp655
a(Vlist
g31
tp656
a(Vbut
g119
tp657
a(Vone
g81
tp658
a(Vusually
S'RB'
p659
tp660
a(Vassociate
g6
tp661
a(Vname
g8
tp662
a(Vbombasticities
g107
tp663
a(Vstar
g31
tp664
a(Vwar
S'NN'
p665
tp666
aa(lp667
(S'but'
g119
tp668
a(S'opinion'
S'NN'
p669
tp670
a(S'williams'
g107
tp671
a(S'written'
g633
tp672
a(S'movie'
g117
tp673
a(S'surpasses'
g328
tp674
a(S'anything'
S'NN'
p675
tp676
a(S'ive'
g6
tp677
a(S'ever'
S'RB'
p678
tp679
a(S'heard'
g4
tp680
a(S'tenderness'
g6
tp681
a(S'sensitivity'
g8
tp682
a(S'beauty'
g8
tp683
a(S'fully'
S'RB'
p684
tp685
a(S'keeping'
S'VBG'
p686
tp687
a(S'tender'
g8
tp688
a(S'lovely'
g4
tp689
a(S'plot'
g6
tp690
a(S'movie'
g117
tp691
aa(lp692
(Vanother
S'DT'
p693
tp694
a(Vrecent
S'JJ'
p695
tp696
a(Vscore
g8
tp697
a(Vcatch
g8
tp698
a(Vif
g161
tp699
a(Vshow
g8
tp700
a(Vstill
S'RB'
p701
tp702
a(Vwit
g328
tp703
a(Vsophistication
g8
tp704
aa(lp705
(Vstanley
g6
tp706
a(Viris
g8
tp707
a(Vlike
g170
tp708
a(Veducation
g8
tp709
a(Vmovie
g117
tp710
a(Vlike
g170
tp711
a(Vgreen
g6
tp712
a(Vvalley
g8
tp713
a(Vkonrack
g8
tp714
a(Vone
g81
tp715
a(Vjohn
g8
tp716
a(Vvoigt
g8
tp717
a(Vyoung
S'JJ'
p718
tp719
a(Vafrican
g6
tp720
a(Vamerican
g6
tp721
a(Vcharge
g8
tp722
a(Vsouth
g6
tp723
a(Vcarolina
g6
tp724
a(Vdanny
g8
tp725
a(Vdevitos
g107
tp726
a(Vrenaissance
g8
tp727
a(Vman
g502
tp728
a(Vetc
g8
tp729
aa(lp730
(S'tell'
g4
tp731
a(S'necessary'
S'JJ'
p732
tp733
a(S'story'
g127
tp734
a(S'intellectual'
g6
tp735
a(S'spiritual'
g6
tp736
a(S'awakening'
g27
tp737
a(S'story'
g127
tp738
a(S'cant'
g8
tp739
a(S'told'
g59
tp740
a(S'often'
g455
tp741
a(S'enough'
g6
tp742
aa(lp743
(S'one'
g81
tp744
a(S'excellent'
g6
tp745
a(S'addition'
S'NN'
p746
tp747
a(S'genre'
g8
tp748
aaa(lp749
(lp750
(Vfair
g6
tp751
a(Vdramalove
g47
tp752
a(Vstory
g127
tp753
a(Vmovie
g117
tp754
a(Vfocus
g8
tp755
a(Vlife
g19
tp756
a(Vblue
g6
tp757
a(Vcollar
g6
tp758
a(Vpeople
g167
tp759
a(Vfinding
g27
tp760
a(Vnew
g439
tp761
a(Vlife
g19
tp762
a(Vthru
g59
tp763
a(Vnew
g439
tp764
a(Vlovethe
g8
tp765
a(Vacting
g27
tp766
a(Vgood
g6
tp767
a(Vbut
g119
tp768
a(Vfilm
g395
tp769
a(Vfails
g107
tp770
a(Vcinematographyscreenplaydirecting
g27
tp771
a(Veditingthe
g6
tp772
a(Vstoryscript
g6
tp773
a(Vaverage
g8
tp774
a(Vbestthis
g8
tp775
a(Vfilm
g395
tp776
a(Venjoyed
g59
tp777
a(Vfonda
g8
tp778
a(Vde
g170
tp779
a(Vniro
g316
tp780
a(Vfan
g8
tp781
a(Vpeople
g167
tp782
a(Vlove
g31
tp783
a(Vmiddle
g6
tp784
a(Vage
g94
tp785
a(Vlove
g47
tp786
a(Vstory
g127
tp787
a(Vcoartship
g8
tp788
a(Vwiser
g37
tp789
a(Vcautious
g6
tp790
a(Vlevelit
g8
tp791
a(Vwould
S'MD'
p792
tp793
a(Valso
g215
tp794
a(Vinteresting
g27
tp795
a(Vpeople
g167
tp796
a(Vinterested
g6
tp797
a(Vsubject
g6
tp798
a(Vmatter
g8
tp799
a(Vregarding
g27
tp800
a(Villiteracy
g8
tp801
aaa(lp802
(lp803
(S'although'
S'IN'
p804
tp805
a(S'didnt'
g8
tp806
a(S'like'
g170
tp807
a(S'stanley'
g8
tp808
a(S'iris'
g8
tp809
a(S'tremendously'
g4
tp810
a(S'film'
g395
tp811
a(S'admire'
g8
tp812
a(S'acting'
g8
tp813
aa(lp814
(S'jane'
g8
tp815
a(S'fonda'
g8
tp816
a(S'robert'
g8
tp817
a(S'de'
g170
tp818
a(S'niro'
g316
tp819
a(S'great'
g509
tp820
a(S'movie'
g117
tp821
aa(lp822
(Vhavent
g8
tp823
a(Valways
S'RB'
p824
tp825
a(Vfan
g4
tp826
a(Vfonda
g6
tp827
a(Vwork
g8
tp828
a(Vbut
g119
tp829
a(Vdelicate
g47
tp830
a(Vstrong
S'JJ'
p831
tp832
a(Vtime
g13
tp833
aa(lp834
(S'de'
g170
tp835
a(S'niro'
g316
tp836
a(S'ability'
S'NN'
p837
tp838
a(S'make'
g31
tp839
a(S'every'
g333
tp840
a(S'role'
S'NN'
p841
tp842
a(S'portrays'
g328
tp843
a(S'acting'
g27
tp844
a(S'gold'
g8
tp845
aa(lp846
(Vgive
g6
tp847
a(Vgreat
g509
tp848
a(Vperformance
S'NN'
p849
tp850
a(Vfilm
g395
tp851
a(Vgreat
g509
tp852
a(Vscene
g8
tp853
a(Vtake
g47
tp854
a(Vfather
g8
tp855
a(Vhome
g8
tp856
a(Velderly
g6
tp857
a(Vpeople
g167
tp858
a(Vcant
g31
tp859
a(Vcare
g8
tp860
a(Vanymore
g4
tp861
a(Vbreak
g6
tp862
a(Vheart
S'NN'
p863
tp864
aa(lp865
(S'wouldnt'
g107
tp866
a(S'really'
g121
tp867
a(S'recommend'
g31
tp868
a(S'film'
g395
tp869
a(S'great'
g509
tp870
a(S'cinematic'
g6
tp871
a(S'entertainment'
S'NN'
p872
tp873
a(S'but'
g119
tp874
a(S'say'
g31
tp875
a(S'wont'
g6
tp876
a(S'see'
g31
tp877
a(S'much'
g6
tp878
a(S'bette'
g8
tp879
a(S'acting'
g27
tp880
a(S'anywhere'
g4
tp881
aaa(lp882
(lp883
(Vvery
g4
tp884
a(Vgood
g6
tp885
a(Vdrama
g8
tp886
a(Valthough
g804
tp887
a(Vappeared
g6
tp888
a(Vblank
g6
tp889
a(Varea
S'NN'
p890
tp891
a(Vleaving
g27
tp892
a(Vviewer
g323
tp893
a(Vfill
g6
tp894
a(Vaction
S'NN'
p895
tp896
aa(lp897
(S'imagine'
g6
tp898
a(S'life'
g19
tp899
a(S'way'
g592
tp900
a(S'someone'
S'NN'
p901
tp902
a(S'neither'
g130
tp903
a(S'read'
g8
tp904
a(S'nor'
S'CC'
p905
tp906
a(S'write'
g6
tp907
aa(lp908
(Vfilm
g395
tp909
a(Vsimply
S'RB'
p910
tp911
a(Vsmacked
g59
tp912
a(Vreal
g165
tp913
a(Vworld
g363
tp914
a(Vwife
S'NN'
p915
tp916
a(Vsuddenly
g4
tp917
a(Vsole
g6
tp918
a(Vsupporter
g323
tp919
a(Vlive-in
g6
tp920
a(Vrelative
g6
tp921
a(Vquarrel
g8
tp922
a(Vtroubled
g59
tp923
a(Vchild
g8
tp924
a(Vget
g8
tp925
a(Vknocked
g205
tp926
a(Vtypically
S'RB'
p927
tp928
a(Vdrop
g6
tp929
a(Vschool
g17
tp930
a(Vjackass
g8
tp931
a(Vhusband
g8
tp932
a(Vtake
g47
tp933
a(Vnest
S'JJS'
p934
tp935
a(Vegg
g8
tp936
a(Vbuy
g47
tp937
a(Vbeer
S'NN'
p938
tp939
aa(lp940
(V2
S'CD'
p941
tp942
a(Vthumb
g8
tp943
aaa(lp944
(lp945
(Vworking-class
g6
tp946
a(Vromantic
g6
tp947
a(Vdrama
g8
tp948
a(Vdirector
g554
tp949
a(Vmartin
g59
tp950
a(Vritt
g6
tp951
a(Vunbelievable
g6
tp952
a(Vcome
g205
tp953
a(Vyet
g4
tp954
a(Vmoment
S'NN'
p955
tp956
a(Vpleasure
g8
tp957
a(Vdue
g6
tp958
a(Vmostly
S'RB'
p959
tp960
a(Vcharisma
g6
tp961
a(Vstar
g8
tp962
a(Vjane
g8
tp963
a(Vfonda
g8
tp964
a(Vrobert
g8
tp965
a(Vde
g170
tp966
a(Vniro
g316
tp967
a(Vterrific
g8
tp968
aa(lp969
(Vshes
g107
tp970
a(Vwidow
g31
tp971
a(Vcant
g6
tp972
a(Vmove
g8
tp973
a(Vhe
S'PRP'
p974
tp975
a(Villiterate
g328
tp976
a(Vcloset-inventor--you
g8
tp977
a(Vprobably
S'RB'
p978
tp979
a(Vguess
g6
tp980
a(Vrest
g8
tp981
aa(lp982
(Vadaptation
g8
tp983
a(Vpat
g8
tp984
a(Vbarker
g8
tp985
a(Vnovel
g170
tp986
a(Vunion
S'NN'
p987
tp988
a(Vstreet
g8
tp989
a(Vbetter
g37
tp990
a(Vtitle
g8
tp991
aa(lp992
(Vlaid-back
g6
tp993
a(Vverge
g8
tp994
a(Vbland
g8
tp995
a(Vfilm
g395
tp996
a(Vediting
g27
tp997
a(Vmess
g8
tp998
a(Vbut
g119
tp999
a(Vstill
g701
tp1000
a(Vpleasant
g6
tp1001
a(Vrosy-hued
g6
tp1002
a(Vblue-collar
g6
tp1003
a(Vfantasy
g8
tp1004
aa(lp1005
(Vno
g130
tp1006
a(Voverture
g8
tp1007
a(Vserious
g465
tp1008
a(Vissue
g8
tp1009
a(Veven
g4
tp1010
a(Villiteracy
g6
tp1011
a(Vangle
g170
tp1012
a(Vplot-tool
g6
tp1013
a(Vensuing
g27
tp1014
a(Vlove
g8
tp1015
a(Vstory
g127
tp1016
a(Vno
g130
tp1017
a(Vreal
g165
tp1018
a(Vfirework
g8
tp1019
a(Vthough
g170
tp1020
a(Vcharacter
g8
tp1021
a(Vintentionally
g4
tp1022
a(Vbit
g4
tp1023
a(Vcolorless
g6
tp1024
a(Vlead
g8
tp1025
a(Vtoned
g59
tp1026
a(Vinteresting
g6
tp1027
a(Vdegree
g8
tp1028
aa(lp1029
(Vfinale
g6
tp1030
a(Vpure
g8
tp1031
a(Vfluff--and
g8
tp1032
a(Vcynic
g6
tp1033
a(Vfind
g8
tp1034
a(Vdifficult
S'JJ'
p1035
tp1036
a(Vswallow--though
g6
tp1037
a(Vtwo
S'CD'
p1038
tp1039
a(Vcharacter
g8
tp1040
a(Vdeserve
g8
tp1041
a(Vhappy
g6
tp1042
a(Vending
S'VBG'
p1043
tp1044
a(Vpicture
g8
tp1045
a(Vwouldnt
g8
tp1046
a(Vreally
g121
tp1047
a(Vsatisfying
g6
tp1048
a(Vway
g592
tp1049
aaa.