(lp1
(lp2
(lp3
(S'bromwell'
S'RB'
p4
tp5
a(S'high'
S'JJ'
p6
tp7
a(S'cartoon'
S'NN'
p8
tp9
a(S'comedy'
g8
tp10
aa(lp11
(Vran
g6
tp12
a(Vtime
S'NN'
p13
tp14
a(Vprogram
S'NN'
p15
tp16
a(Vschool
S'NN'
p17
tp18
a(Vlife
S'NN'
p19
tp20
a(Vteacher
g8
tp21
aa(lp22
(V35
S'CD'
p23
tp24
a(Vyear
S'NN'
p25
tp26
a(Vteaching
S'VBG'
p27
tp28
a(Vprofession
g8
tp29
a(Vlead
g8
tp30
a(Vbelieve
S'VBP'
p31
tp32
a(Vbromwell
g4
tp33
a(Vhigh
g6
tp34
a(Vsatire
g8
tp35
a(Vmuch
g4
tp36
a(Vcloser
S'RBR'
p37
tp38
a(Vreality
g8
tp39
a(Vteacher
g8
tp40
aa(lp41
(Vscramble
g6
tp42
a(Vsurvive
g8
tp43
a(Vfinancially
g4
tp44
a(Vinsightful
g6
tp45
a(Vstudent
g8
tp46
a(Vsee
S'VB'
p47
tp48
a(Vright
g6
tp49
a(Vpathetic
g6
tp50
a(Vteacher
g8
tp51
a(Vpomp
g8
tp52
a(Vpettiness
g6
tp53
a(Vwhole
g6
tp54
a(Vsituation
S'NN'
p55
tp56
a(Vremind
g8
tp57
a(Vschool
g17
tp58
a(Vknew
S'VBD'
p59
tp60
a(Vstudent
g8
tp61
aa(lp62
(S'saw'
g8
tp63
a(S'episode'
g8
tp64
a(S'student'
g8
tp65
a(S'repeatedly'
g4
tp66
a(S'tried'
g59
tp67
a(S'burn'
g6
tp68
a(S'school'
g17
tp69
a(S'immediately'
S'RB'
p70
tp71
a(S'recalled'
g59
tp72
a(S'high'
g6
tp73
aa(lp74
(Vclassic
g6
tp75
a(Vline
S'NN'
p76
tp77
a(Vinspector
g8
tp78
a(Vsack
g8
tp79
a(Vone
S'CD'
p80
tp81
a(Vteacher
g8
tp82
aa(lp83
(S'student'
g8
tp84
a(S'welcome'
g8
tp85
a(S'bromwell'
g8
tp86
a(S'high'
g6
tp87
aa(lp88
(Vexpect
g47
tp89
a(Vmany
S'JJ'
p90
tp91
a(Vadult
g6
tp92
a(Vage
S'NN'
p93
tp94
a(Vthink
g31
tp95
a(Vbromwell
g4
tp96
a(Vhigh
g6
tp97
a(Vfar
S'RB'
p98
tp99
a(Vfetched
g59
tp100
aa(lp101
(S'pity'
p102
g8
tp103
aaa(lp104
(lp105
(Vmale
g8
tp106
a(Vnot
S'RB'
p107
tp108
a(Vgiven
S'VBN'
p109
tp110
a(Vwoman
S'NN'
p111
tp112
a(Vmovie
S'NN'
p113
tp114
a(Vbut
S'CC'
p115
tp116
a(Vreally
S'RB'
p117
tp118
a(Vwell
g4
tp119
a(Vdone
S'VBN'
p120
tp121
a(Vspecial
g6
tp122
a(Vstory
S'NN'
p123
tp124
aa(lp125
(S'no'
S'DT'
p126
tp127
a(S'personal'
S'JJ'
p128
tp129
a(S'love'
g8
tp130
a(S'jane'
g8
tp131
a(S'fonda'
g8
tp132
a(S'person'
S'NN'
p133
tp134
a(S'but'
g115
tp135
a(S'one'
g80
tp136
a(S'hell'
g8
tp137
a(S'fine'
g6
tp138
a(S'job'
S'NN'
p139
tp140
a(S'deniro'
g6
tp141
a(S'usual'
g6
tp142
a(S'superb'
g8
tp143
a(S'self'
g8
tp144
aa(lp145
(Veverything
S'NN'
p146
tp147
a(Vwell
g4
tp148
a(Vdone
g120
tp149
a(Vacting
g27
tp150
a(Vdirecting
g8
tp151
a(Vvisuals
S'NNS'
p152
tp153
a(Vsetting
g27
tp154
a(Vphotography
g8
tp155
a(Vcasting
g8
tp156
aa(lp157
(S'if'
S'IN'
p158
tp159
a(S'enjoy'
g6
tp160
a(S'story'
g123
tp161
a(S'real'
S'JJ'
p162
tp163
a(S'people'
S'NNS'
p164
tp165
a(S'real'
g162
tp166
a(S'love'
S'IN'
p167
tp168
a(S'-'
S':'
tp169
a(S'winner'
g8
tp170
aaa(lp171
(lp172
(S'liked'
S'VBN'
p173
tp174
a(S'stanley'
g6
tp175
a(S'iris'
g6
tp176
a(S'very'
g4
tp177
a(S'much'
g6
tp178
aa(lp179
(S'acting'
g27
tp180
a(S'very'
g4
tp181
a(S'good'
g6
tp182
aa(lp183
(S'story'
g123
tp184
a(S'unique'
g6
tp185
a(S'interesting'
g6
tp186
a(S'arrangement'
g8
tp187
aa(lp188
(S'absence'
g8
tp189
a(S'violence'
g8
tp190
a(S'porno'
g8
tp191
a(S'sex'
g8
tp192
a(S'refreshing'
g8
tp193
aa(lp194
(Vcharacter
g8
tp195
a(Vvery
g4
tp196
a(Vconvincing
g6
tp197
a(Vfelt
g152
tp198
a(Vlike
g167
tp199
a(Vcould
S'MD'
p200
tp201
a(Vunderstand
g47
tp202
a(Vfeeling
g8
tp203
aa(lp204
(S'very'
g4
tp205
a(S'enjoyable'
g6
tp206
a(S'movie'
g113
tp207
aaa(lp208
(lp209
(S'liked'
g173
tp210
a(S'stanley'
g6
tp211
a(S'iris'
g6
tp212
a(S'very'
g4
tp213
a(S'much'
g6
tp214
aa(lp215
(S'acting'
g27
tp216
a(S'very'
g4
tp217
a(S'good'
g6
tp218
aa(lp219
(S'story'
g123
tp220
a(S'unique'
g6
tp221
a(S'interesting'
g6
tp222
a(S'arrangement'
g8
tp223
aa(lp224
(S'absence'
g8
tp225
a(S'violence'
g8
tp226
a(S'sex'
g8
tp227
a(S'refreshing'
g8
tp228
aa(lp229
(Vcharacter
g8
tp230
a(Vvery
g4
tp231
a(Vconvincing
g6
tp232
a(Vfelt
g152
tp233
a(Vlike
g167
tp234
a(Vcould
g200
tp235
a(Vunderstand
g47
tp236
a(Vfeeling
g8
tp237
aa(lp238
(S'very'
g4
tp239
a(S'enjoyable'
g6
tp240
a(S'movie'
g113
tp241
aaa(lp242
(lp243
(S'production'
S'NN'
p244
tp245
a(S'quality'
g8
tp246
a(S'cast'
g31
tp247
a(S'premise'
g8
tp248
a(S'authentic'
g6
tp249
a(S'new'
S'JJ'
p250
tp251
a(S'england'
g8
tp252
a(S'waterbury'
g8
tp253
a(S'ct'
g8
tp254
aa(lp255
(Vlocale
g6
tp256
a(Vlush
g8
tp257
a(Vjohn
g8
tp258
a(Vwilliams
g152
tp259
a(Vscore
g4
tp260
a(Vresulted
g59
tp261
a(V3-4
g6
tp262
a(Vstar
g8
tp263
a(Vcollector
g8
tp264
a(Vitem
g8
tp265
aa(lp266
(S'unfortunately'
g4
tp267
a(S'got'
g59
tp268
a(S'passable'
g6
tp269
a(S'2'
S'CD'
p270
tp271
a(S'star'
g8
tp272
a(S'decent'
g8
tp273
a(S'flick'
g8
tp274
a(S'mostly'
S'RB'
p275
tp276
a(S'memorable'
g6
tp277
a(S'tried'
g59
tp278
a(S'bring'
g6
tp279
a(S'art'
g8
tp280
a(S'house'
S'NN'
p281
tp282
a(S'style'
S'NN'
p283
tp284
a(S'film'
S'NN'
p285
tp286
a(S'mainstream'
g8
tp287
aa(lp288
(Vsmall
S'JJ'
p289
tp290
a(Vtown
S'NN'
p291
tp292
a(Vlocale
g6
tp293
a(Vstory
g123
tp294
a(Vordinary
g6
tp295
a(Vpeople
g164
tp296
a(Vgenre
g31
tp297
a(Vif
g158
tp298
a(Vwell
g4
tp299
a(Vdone
g120
tp300
a(Vsatisfy
g8
tp301
a(Vmost
S'RBS'
p302
tp303
a(Vgrownup
g8
tp304
aa(lp305
(S'jane'
g8
tp306
a(S'fonda'
g8
tp307
a(S'unable'
g6
tp308
a(S'hide'
g8
tp309
a(S'braininess'
g8
tp310
a(S'enough'
g6
tp311
a(S'make'
g31
tp312
a(S'character'
g8
tp313
a(S'believable'
g8
tp314
aa(lp315
(S'wondered'
g173
tp316
a(S'post'
g8
tp317
a(S'doctorate'
g8
tp318
a(S'yale'
g8
tp319
a(S'instead'
S'RB'
p320
tp321
a(S'working'
g27
tp322
a(S'dead'
g6
tp323
a(S'end'
g8
tp324
a(S'factory'
g8
tp325
a(S'job'
g139
tp326
a(S'waterbury'
g8
tp327
aa(lp328
(S'robert'
g8
tp329
a(S'diniro'
g8
tp330
a(S'character'
g8
tp331
a(S'bit'
g8
tp332
a(S'contrived'
g59
tp333
aa(lp334
(Villiterate
g6
tp335
a(Vnice
g6
tp336
a(Vguy
g8
tp337
a(Vloser
g37
tp338
a(Vturn
g47
tp339
a(Vactually
S'RB'
p340
tp341
a(Vlittle
g6
tp342
a(Vhelp
g8
tp343
a(Vjane
g8
tp344
a(Vcharacter
g8
tp345
a(V1990
S'CD'
p346
tp347
a(Vversion
S'NN'
p348
tp349
a(Vhenry
g8
tp350
a(Vford
g8
tp351
a(Vthomas
S'VBZ'
p352
tp353
a(Vedison
g6
tp354
a(Vgenre
g152
tp355
a(Vsuccessfully
g4
tp356
a(Vhandled
g59
tp357
a(Vnobody
g8
tp358
a(Vfool
g8
tp359
a(Vmid
g8
tp360
a(V90
S'CD'
p361
tp362
a(Vyear
g25
tp363
a(V2003
g80
tp364
a(Vschmidt
g8
tp365
aa(lp366
(Vwish
g6
tp367
a(Vmain
S'JJ'
p368
tp369
a(Vstream
g8
tp370
a(Vstudio
S'NN'
p371
tp372
a(Vwould
S'MD'
p373
tp374
a(Vtry
g47
tp375
a(Vstuff
g8
tp376
a(Vpost
g8
tp377
a(Vadolescent
g8
tp378
a(Vreserve
g8
tp379
a(Vcouple
g8
tp380
a(Vscreen
g8
tp381
a(Vmulti
g8
tp382
a(Vcinema
g8
tp383
a(Vcomplex
g6
tp384
a(Veffort
S'NN'
p385
tp386
a(Vgive
g8
tp387
a(Veffort
g385
tp388
aaa(lp389
(lp390
(S'film'
g285
tp391
a(S'special'
g6
tp392
a(S'place'
g8
tp393
a(S'heart'
S'NN'
p394
tp395
a(S'caught'
g59
tp396
a(S'first'
g6
tp397
a(S'time'
g13
tp398
a(S'teaching'
g27
tp399
a(S'adult'
g8
tp400
a(S'literacy'
g8
tp401
aa(lp402
(S'rang'
g47
tp403
a(S'very'
g4
tp404
a(S'true'
S'JJ'
p405
tp406
a(S'even'
g4
tp407
a(S'outstanding'
S'JJ'
p408
tp409
a(S'student'
g8
tp410
a(S'time'
g13
tp411
aa(lp412
(Vscene
g8
tp413
a(Vmake
g31
tp414
a(Vgulp
g8
tp415
a(Vsudden
g6
tp416
a(Vemotion
g8
tp417
a(Veven
g4
tp418
a(Vput
g59
tp419
a(Vsmile
g6
tp420
a(Vface
g8
tp421
a(Vsheer
g8
tp422
a(Videntification
g8
tp423
a(Vcharacter
g8
tp424
a(Vsituation
g55
tp425
aa(lp426
(Vexcellent
g6
tp427
a(Vperformance
S'NN'
p428
tp429
a(Vjane
g8
tp430
a(Vfonda
g8
tp431
a(Vrobert
g8
tp432
a(Vdeniro
g8
tp433
a(Vrank
g8
tp434
a(Vbest
S'JJS'
p435
tp436
a(Vwork
g8
tp437
a(Vgreat
S'JJ'
p438
tp439
a(Vturn
g8
tp440
a(Vyoung
S'JJ'
p441
tp442
a(Vmartha
g31
tp443
a(Vplimpton
g6
tp444
a(Vinspiring
g27
tp445
a(Vstory
g123
tp446
a(Vline
g76
tp447
a(Vhaunting
g27
tp448
a(Vmusical
g6
tp449
a(Vscore
g8
tp450
a(Vmake
g31
tp451
a(Vmost
g302
tp452
a(Venjoyable
g6
tp453
a(Vrewarding
g8
tp454
a(Vexperience
g8
tp455
aaa(lp456
(lp457
(S'guess'
g8
tp458
a(S'if'
g158
tp459
a(S'film'
g285
tp460
a(S'magic'
g31
tp461
a(S'need'
g8
tp462
a(S'fluid'
g8
tp463
a(S'seamless'
g8
tp464
aa(lp465
(Vskip
g8
tp466
a(Vbackground
g8
tp467
a(Vinformation
S'NN'
p468
tp469
a(Vgo
g31
tp470
a(Vfast
g4
tp471
a(Vplace
g8
tp472
a(Vslow
g6
tp473
a(Vothers
S'NNS'
p474
tp475
a(Vetc
g31
tp476
aa(lp477
(S'magic'
g6
tp478
a(S'film'
g285
tp479
a(S'scene'
g8
tp480
a(S'library'
g8
tp481
aa(lp482
(Vmany
g90
tp483
a(Vminor
g6
tp484
a(Vflaw
g8
tp485
a(Vstanley
g8
tp486
a(Viris
g8
tp487
a(Vyet
g4
tp488
a(Vdetract
g6
tp489
a(Voverall
g6
tp490
a(Vpositive
S'JJ'
p491
tp492
a(Vimpact
g8
tp493
a(Vwatching
g27
tp494
a(Vpeople
g164
tp495
a(Vhelp
g31
tp496
a(Varea
S'NN'
p497
tp498
a(Vlife
g19
tp499
a(Vseem
g31
tp500
a(Vmost
g302
tp501
a(Vincomprehensible
g6
tp502
a(Vhardest
g8
tp503
a(Vfix
g8
tp504
aa(lp505
(Vcharacter
g8
tp506
a(Vsmart
g8
tp507
aa(lp508
(S'yet'
g4
tp509
a(S'stanley'
g6
tp510
a(S'understand'
g8
tp511
a(S'enough'
g6
tp512
a(S'function'
g8
tp513
a(S'read'
g47
tp514
a(S'read'
g6
tp515
a(S'much'
g6
tp516
a(S'adventure'
g8
tp517
a(S'childhood'
g8
tp518
aa(lp519
(S'iris'
g6
tp520
a(S'although'
S'IN'
p521
tp522
a(S'well-educated'
g6
tp523
a(S'enough'
g6
tp524
a(S'adventure'
g8
tp525
a(S'understand'
g31
tp526
a(S'move'
g8
tp527
a(S'past'
g167
tp528
a(S'u-turn'
g6
tp529
a(S'life'
g19
tp530
a(S'took'
S'VBD'
p531
tp532
aa(lp533
(Vfault
g8
tp534
a(Vstrength
S'NN'
p535
tp536
a(Vcharacter
g8
tp537
a(Vcompliment
g8
tp538
aa(lp539
(S'may'
S'MD'
p540
tp541
a(S'bit'
g47
tp542
a(S'stretch'
g6
tp543
a(S'accept'
g167
tp544
a(S'iris'
g8
tp545
a(S'would'
g373
tp546
a(S'wind'
g47
tp547
a(S'working'
g27
tp548
a(S'year'
g25
tp549
a(S'year'
g25
tp550
a(S'factory'
g8
tp551
a(S'stanley'
g8
tp552
a(S'never'
S'RB'
p553
tp554
a(S'hid'
g352
tp555
a(S'illiteracy'
g8
tp556
a(S'enough'
g6
tp557
a(S'work'
g8
tp558
a(S'construction'
S'NN'
p559
tp560
a(S'better-paying'
g6
tp561
a(S'job'
g139
tp562
aa(lp563
(Vmystery
g8
tp564
a(Vexplained
g59
tp565
a(Vcourse
S'NN'
p566
tp567
a(Vstory
g123
tp568
a(Vunfolding
g27
tp569
a(Vseems
S'VBZ'
p570
tp571
a(Vsomewhat
g4
tp572
a(Vcontrived
g6
tp573
aa(lp574
(S'assume'
g47
tp575
a(S'no'
g126
tp576
a(S'one'
g80
tp577
a(S'took'
g531
tp578
a(S'time'
g13
tp579
a(S'rethink'
g8
tp580
a(S'script'
g8
tp581
aa(lp582
(S'even'
g4
tp583
a(S'good'
g6
tp584
a(S'movie'
g113
tp585
a(S'imagine'
g8
tp586
a(S'de'
g167
tp587
a(S'niro'
S'FW'
p588
tp589
a(S'fonda'
g6
tp590
a(S'plimpton'
g8
tp591
a(S'would'
g373
tp592
a(S'done'
g120
tp593
a(S'screen'
g8
tp594
a(S'if'
g158
tp595
a(S'someone'
S'NN'
p596
tp597
aaa(lp598
(lp599
(S'found'
g173
tp600
a(S'so-so'
g6
tp601
a(S'romance'
g8
tp602
a(S'drama'
g8
tp603
a(S'nice'
g6
tp604
a(S'ending'
S'VBG'
p605
tp606
a(S'generally'
S'RB'
p607
tp608
a(S'nice'
g6
tp609
a(S'feel'
g8
tp610
aa(lp611
(Vnot
g107
tp612
a(Vhallmark
g47
tp613
a(Vhall
g6
tp614
a(Vfame-type
g6
tp615
a(Vfamily
S'NN'
p616
tp617
a(Vfilm
g285
tp618
a(Vsleeping-before-marriage
g8
tp619
a(Vconsidered
g173
tp620
a(Vnormal
S'JJ'
p621
tp622
a(Vbehavior
g8
tp623
a(Vbut
g115
tp624
a(Vconsidering
S'VBG'
p625
tp626
a(Vstar
g6
tp627
a(Vjane
g8
tp628
a(Vfonda
g8
tp629
a(Vrobert
g8
tp630
a(Vde
g167
tp631
a(Vniro
g588
tp632
a(Vwould
g373
tp633
a(Vexpected
g173
tp634
a(Vlot
g8
tp635
a(Vrougher
S'JJR'
p636
tp637
a(Vmovie
g113
tp638
a(Vleast
g435
tp639
a(Vlanguage-wise
g6
tp640
aa(lp641
(S'most'
g302
tp642
a(S'memorable'
g6
tp643
a(S'part'
S'NN'
p644
tp645
a(S'film'
g285
tp646
a(S'portrayal'
g8
tp647
a(S'difficult'
S'JJ'
p648
tp649
a(S'must'
S'MD'
p650
tp651
a(S'learn'
g47
tp652
a(S'read'
g47
tp653
a(S'write'
g6
tp654
a(S'already'
S'RB'
p655
tp656
a(S'adult'
g8
tp657
aa(lp658
(Vbig
S'JJ'
p659
tp660
a(Vtheme
g8
tp661
a(Vmovie
g113
tp662
a(Vinvolves
g352
tp663
a(Vtouching
g27
tp664
a(Vscene
g8
tp665
a(Vbut
g115
tp666
a(Vhonest
g435
tp667
a(Vfilm
g285
tp668
a(Vmemorable
g8
tp669
a(Vstill
S'RB'
p670
tp671
a(Vfairly
S'RB'
p672
tp673
a(Vmild
g6
tp674
a(Vnice
g6
tp675
a(Vtale
g8
tp676
a(Vwould
g373
tp677
a(Vhappy
g47
tp678
a(Vrecommend
g47
tp679
aaa(lp680
(lp681
(Vcomplex
g6
tp682
a(Vfilm
g285
tp683
a(Vexplores
g152
tp684
a(Veffect
S'NN'
p685
tp686
a(Vfordist
g31
tp687
a(Vtaylorist
g8
tp688
a(Vmode
g8
tp689
a(Vindustrial
S'JJ'
p690
tp691
a(Vcapitalist
g8
tp692
a(Vproduction
g244
tp693
a(Vhuman
g6
tp694
a(Vrelation
g8
tp695
aa(lp696
(Vconstant
g6
tp697
a(Vreference
g8
tp698
a(Vassembly
g8
tp699
a(Vline
g76
tp700
a(Vproduction
g244
tp701
a(Vworker
g8
tp702
a(Vtreated
g59
tp703
a(Vcog
g6
tp704
a(Vmachine
S'NN'
p705
tp706
a(Voverseen
g6
tp707
a(Vmanager
S'NN'
p708
tp709
a(Vwielding
g27
tp710
a(Vclipboard
g8
tp711
a(Vcontrolling
g27
tp712
a(Vmuch
g6
tp713
a(Vhair
g8
tp714
a(Vworker
g8
tp715
a(Vleave
g31
tp716
a(Vexposed
g173
tp717
a(Vfiring
g6
tp718
a(Vworker
g8
tp719
a(Vstanley
g8
tp720
a(Vmeet
g8
tp721
a(Vcriterion
g8
tp722
a(Vsupervisor
g152
tp723
a(Vsay
g31
tp724
a(Valways
S'RB'
p725
tp726
a(Vtime
g13
tp727
a(Vhard
g6
tp728
a(Vworker
g8
tp729
a(Vgood
g6
tp730
a(Vwork
g8
tp731
a(Vbut
g115
tp732
a(Vmay
g540
tp733
a(Vunspecified
g6
tp734
a(Vfuture
g8
tp735
a(Vmake
g31
tp736
a(Vmistake
g8
tp737
aa(lp738
(Vsystem
S'NN'
p739
tp740
a(Vdestroys
g352
tp741
a(Vfamily
g616
tp742
a(V-
S':'
tp743
a(Vstanley
g8
tp744
a(Vsend
g31
tp745
a(Vfather
g8
tp746
a(Vnursing
g8
tp747
a(Vhome
g8
tp748
a(Vquickly
S'RB'
p749
tp750
a(Vdy
g59
tp751
a(Vstanley
g6
tp752
a(Vloses
g152
tp753
a(Vjob
g139
tp754
aa(lp755
(Viris
g6
tp756
a(Vdaughter
g8
tp757
a(Vsingle
S'JJ'
p758
tp759
a(Vteen
g8
tp760
a(Vmother
g8
tp761
a(Vdrop
g8
tp762
a(Vhigh
g6
tp763
a(Vschool
g17
tp764
a(Vtake
g47
tp765
a(Vjob
g139
tp766
a(Vplant
S'NN'
p767
tp768
aa(lp769
(Vreference
g8
tp770
a(Vmade
g59
tp771
a(Vfact
S'NN'
p772
tp773
a(Vdeclining
S'VBG'
p774
tp775
a(Vwage
S'NN'
p776
tp777
a(Vpartner
S'NN'
p778
tp779
a(Vneed
g31
tp780
a(Vwork
g8
tp781
a(Vimplication
g8
tp782
a(Vnobody
g8
tp783
a(Vleft
g59
tp784
a(Vhome
g8
tp785
a(Vcare
g8
tp786
a(Vkid
g8
tp787
aa(lp788
(Viris
g6
tp789
a(Vhusband
g8
tp790
a(Vdead
g6
tp791
a(Villness
g8
tp792
a(Vmultiple
g6
tp793
a(Vreference
g8
tp794
a(Vfilm
g285
tp795
a(Vcost
g8
tp796
a(Vmedical
S'JJ'
p797
tp798
a(Vcare
g8
tp799
a(Vviewer
g8
tp800
a(Vmust
g650
tp801
a(Vwonder
g47
tp802
a(Vif
g158
tp803
a(Vmight
S'MD'
p804
tp805
a(Vlived
g47
tp806
a(Vbetter
g37
tp807
a(Vcostly
S'JJ'
p808
tp809
a(Vcare
g8
tp810
aa(lp811
(Viris
g8
tp812
a(Vbrother
g8
tp813
a(Vlaw
S'NN'
p814
tp815
a(Vget
g31
tp816
a(Vabusive
g6
tp817
a(Vyet
g4
tp818
a(Vanother
S'DT'
p819
tp820
a(Vunsuccessful
g6
tp821
a(Vday
S'NN'
p822
tp823
a(Vunemployment
S'NN'
p824
tp825
a(Voffice
S'NN'
p826
tp827
a(Vwife
S'NN'
p828
tp829
a(Vyell
g31
tp830
a(Vbuying
g27
tp831
a(Vbeer
S'NN'
p832
tp833
a(Vsaving
g27
tp834
a(Vinstead
g320
tp835
a(Vleaving
g27
tp836
a(Vface
g8
tp837
a(Vlift
g8
tp838
a(Vteeth
g31
tp839
a(Vjob
g139
tp840
a(Veven
g4
tp841
a(Vworking
g27
tp842
a(Vclass
S'NN'
p843
tp844
a(Vno
g126
tp845
a(Vstake
S'NN'
p846
tp847
a(Vconventional
S'JJ'
p848
tp849
a(Vbourgeois
g6
tp850
a(Vnotion
g8
tp851
a(Vperfection
g8
tp852
a(Vbeauty
g8
tp853
a(Vbuy
g47
tp854
aa(lp855
(Vone
g80
tp856
a(Vreference
g8
tp857
a(Vrace
S'NN'
p858
tp859
a(Vfilm
g285
tp860
a(Vblack
S'JJ'
p861
tp862
a(Vfactory
g8
tp863
a(Vline
g76
tp864
a(Vworker
g8
tp865
a(Vwhose
S'WP$'
p866
tp867
a(Vhusband
g8
tp868
a(Vjail
g8
tp869
a(Vpresumably
g4
tp870
a(Valso
S'RB'
p871
tp872
a(Vblack
g861
tp873
a(Vblack
g861
tp874
a(Vmen
S'NNS'
p875
tp876
a(Vsuffer
g31
tp877
a(Vdisproportionally
g4
tp878
a(Vhigh
g6
tp879
a(Vincarceration
g8
tp880
a(Vrate
S'NN'
p881
tp882
aa(lp883
(Vremark
g8
tp884
a(Vlike
g167
tp885
a(Vtime
g13
tp886
a(V-
S':'
tp887
a(Vfamily
g616
tp888
a(Vcomposed
g59
tp889
a(Vprisoner
g8
tp890
a(Vwage
g776
tp891
a(Vslave
g31
tp892
a(Vstanley
g8
tp893
a(Vhowever
S'RB'
p894
tp895
a(Vstill
g670
tp896
a(Vbelief
g6
tp897
a(Vhuman
g6
tp898
a(Vrelation
g8
tp899
a(Vtherefore
g4
tp900
a(Vmost
g435
tp901
a(Vfilm
g285
tp902
a(Voutside
g6
tp903
a(Vsystem
g739
tp904
a(Vfordist
g6
tp905
a(Vcapitalism
g8
tp906
aa(lp907
(Vcare
g8
tp908
a(Vfather
g37
tp909
a(Vspite
g6
tp910
a(Vfact
g772
tp911
a(Vfather
g37
tp912
a(Vtraveling
g27
tp913
a(Vsalesman
g6
tp914
a(Vjob
g139
tp915
a(Vresulted
g59
tp916
a(Villiteracy
g8
tp917
a(V-
S':'
tp918
a(Vnot
g107
tp919
a(Vyet
g4
tp920
a(Vreduced
g173
tp921
a(Vhuman
g6
tp922
a(Vrelation
g8
tp923
a(Vpurely
g4
tp924
a(Vinstrumental
g6
tp925
a(Vcontract
S'NN'
p926
tp927
a(Viris
g352
tp928
a(Vbrother
g4
tp929
a(Vlaw
g814
tp930
a(Vsuggesting
g27
tp931
a(Vmarried
g173
tp932
a(Vwrong
g6
tp933
a(Vsister
g8
tp934
aa(lp935
(Vnot
g107
tp936
a(Viris
g6
tp937
a(Vsay
g31
tp938
a(Vconform
g47
tp939
a(Vwork-eat-sleep
g6
tp940
a(Vroutine
g6
tp941
a(Veveryone
S'NN'
p942
tp943
a(Velse
g4
tp944
a(Vrather
S'RB'
p945
tp946
a(Vus
S'PRP'
p947
tp948
a(Vtechnology
S'NN'
p949
tp950
a(Vtechnique
g8
tp951
a(Vindustrial
g690
tp952
a(Vproduction
g244
tp953
a(Vartisanal
g6
tp954
a(Vcreative
g6
tp955
a(Vway
S'NN'
p956
tp957
a(Vsort
g8
tp958
a(Vbauhaus
g8
tp959
a(Videal
g8
tp960
aa(lp961
(Vdream
g8
tp962
a(Vearly
g4
tp963
a(Vmodernist
g6
tp964
a(V1920
g80
tp965
a(Vsocialist
g8
tp966
a(Vbauhaus
S'SYM'
p967
tp968
a(V-
S':'
tp969
a(Vuse
g8
tp970
a(Vtechnology
g949
tp971
a(Vprovide
g31
tp972
a(Vbasic
g6
tp973
a(Vneed
g31
tp974
a(Vallowing
S'VBG'
p975
tp976
a(Vfree
g6
tp977
a(Vtime
g13
tp978
a(Vcreative
g6
tp979
a(Vhuman
g6
tp980
a(Vwork
g8
tp981
a(Vfuller
g8
tp982
a(Vhuman
g6
tp983
a(Vrelation
g8
tp984
aa(lp985
(Valso
g871
tp986
a(Voutside
g6
tp987
a(Vtraditional
S'JJ'
p988
tp989
a(Vgender
g8
tp990
a(Vrelation
g8
tp991
aa(lp992
(Vcook
g8
tp993
a(Vclean
g6
tp994
a(Vcare
g8
tp995
a(Vfamily
g616
tp996
a(Vknow
g31
tp997
a(Viron
g8
tp998
aa(lp999
(Viris
g8
tp1000
a(Vhand
S'NN'
p1001
tp1002
a(Vlife
g19
tp1003
a(Vtraditionally
g4
tp1004
a(Vmale
g6
tp1005
a(Vrole
S'NN'
p1006
tp1007
a(V-
S':'
tp1008
a(Vfactory
g8
tp1009
a(Vworker
g8
tp1010
a(Vmain
g368
tp1011
a(Vsource
S'NN'
p1012
tp1013
a(Vincome
S'NN'
p1014
tp1015
a(Vextended
g59
tp1016
a(Vfamily
g616
tp1017
a(Vbrings
g152
tp1018
a(Vstanley
g31
tp1019
a(Vpublic
g6
tp1020
a(Vrealm
g8
tp1021
a(Vtraditionally
g4
tp1022
a(Voff-limits
g6
tp1023
a(Vwoman
g111
tp1024
aa(lp1025
(Vteaching
g27
tp1026
a(Vread
g6
tp1027
a(Vwrite
g6
tp1028
a(Vgive
g6
tp1029
a(Vaccess
S'NN'
p1030
tp1031
a(Vworld
S'NN'
p1032
tp1033
a(Vknowledge
g8
tp1034
a(Valso
g871
tp1035
a(Vtraditionally
g4
tp1036
a(Vgendered
g6
tp1037
a(Vmale
g8
tp1038
a(Vliteracy
g8
tp1039
a(Vused
g173
tp1040
a(Vmetaphor
g8
tp1041
a(Vtraditionally
g4
tp1042
a(Vmasculine
g6
tp1043
a(Vpublic
g6
tp1044
a(Vrealm
g8
tp1045
a(Vsystem
g739
tp1046
a(Vcirculation
g8
tp1047
a(Vmonetary
S'JJ'
p1048
tp1049
a(Vvehicular
g6
tp1050
a(Vcultural
g6
tp1051
a(Venable
g6
tp1052
a(Vparticipation
g8
tp1053
a(Vpublic
g6
tp1054
a(Vrealm
g8
tp1055
aa(lp1056
(Vwithout
S'IN'
p1057
tp1058
a(Vaccess
g1030
tp1059
a(Vstanley
g8
tp1060
a(Vfeminized
g173
tp1061
a(V-
S':'
tp1062
a(Vjob
g139
tp1063
a(Vopen
g6
tp1064
a(Vcooking
g8
tp1065
a(Vcleaning
g8
tp1066
aa(lp1067
(Vexcluded
g173
tp1068
a(Vregular
g6
tp1069
a(Vcirculation
g8
tp1070
a(Vunable
g6
tp1071
a(Vparticipate
g8
tp1072
a(Vmonetary
g1048
tp1073
a(Vopen
g6
tp1074
a(Vbank
S'NN'
p1075
tp1076
a(Vaccount
g8
tp1077
a(Vvehicular
g6
tp1078
a(Vget
g8
tp1079
a(Vdriver
g8
tp1080
a(Vlicense
g8
tp1081
a(Vride
g8
tp1082
a(Vbus
g167
tp1083
a(Vsocial
S'JJ'
p1084
tp1085
a(Vasks
g152
tp1086
a(Vif
g158
tp1087
a(Vexists
g152
tp1088
a(Vif
g158
tp1089
a(Vwrite
g6
tp1090
a(Vname
g8
tp1091
a(Vlearning
g27
tp1092
a(Vread
g6
tp1093
a(Vgrab
g8
tp1094
a(Vbook
S'NN'
p1095
tp1096
a(Vauto
S'NN'
p1097
tp1098
a(Vrepair
g8
tp1099
a(Vfarming
g27
tp1100
a(Vspirituality
g8
tp1101
a(Vbible
g8
tp1102
aa(lp1103
(Vword
S'NN'
p1104
tp1105
a(Vgod
g8
tp1106
a(Vtherefore
g4
tp1107
a(Vrelativized
g59
tp1108
a(Vplaced
g173
tp1109
a(Vvalue
S'NN'
p1110
tp1111
a(Vplane
g8
tp1112
a(Vhow-to
g6
tp1113
a(Vbook
g1095
tp1114
aa(lp1115
(Vfact
g772
tp1116
a(Vorganized
g173
tp1117
a(Vreligion
g8
tp1118
a(Vgeneral
g6
tp1119
a(Vvery
g4
tp1120
a(Voccasionally
g4
tp1121
a(Vpresent
g6
tp1122
a(V-
S':'
tp1123
a(Vbible
g8
tp1124
a(Valso
g871
tp1125
a(Vappears
S'VBZ'
p1126
tp1127
a(Vdresser
g6
tp1128
a(Vcamera
g8
tp1129
a(Vpan
g8
tp1130
a(Vfind
g31
tp1131
a(Vstanley
g6
tp1132
a(Viris
g8
tp1133
a(Vsex
g8
tp1134
aa(lp1135
(Vhowever
g894
tp1136
a(Vacknowledged
g59
tp1137
a(Vmoral
g6
tp1138
a(Vforce
g8
tp1139
a(V-
S':'
tp1140
a(Viris
g8
tp1141
a(Vclearly
S'RB'
p1142
tp1143
a(Vcharacter
g8
tp1144
a(Vdevoted
g173
tp1145
a(Vliving
g8
tp1146
a(Vgood
g6
tp1147
a(Vlife
g19
tp1148
a(Vmention
g8
tp1149
a(Vbeginning
g27
tp1150
a(Vfilm
g285
tp1151
a(Vrosary
g6
tp1152
a(Vamong
S'IN'
p1153
tp1154
a(Vobject
g6
tp1155
a(Vlost
g173
tp1156
a(Vpurse
g8
tp1157
a(Vsnatching
g27
tp1158
a(Vable
S'JJ'
p1159
tp1160
a(Vread
g8
tp1161
a(Venters
g152
tp1162
a(Vsystem
g739
tp1163
a(Vland
g31
tp1164
a(Vmanagerial
g6
tp1165
a(Vposition
S'NN'
p1166
tp1167
a(Vhealth
S'NN'
p1168
tp1169
a(Vcare
g8
tp1170
a(Vplan
g8
tp1171
a(Vcar
S'NN'
p1172
tp1173
a(Vhouse
g281
tp1174
a(Vtaking
g27
tp1175
a(Vplace
g8
tp1176
a(Vhead
g31
tp1177
a(Vfamily
g616
tp1178
a(Vbreadwinner
g8
tp1179
aa(lp1180
(Vpresumably
g4
tp1181
a(Vindustrial
g690
tp1182
a(Vdesigner
g8
tp1183
a(Vdreaming
g27
tp1184
a(Vproduct
S'NN'
p1185
tp1186
a(Vrequire
g8
tp1187
a(Vothers
g474
tp1188
a(Venduring
g27
tp1189
a(Vdrudgery
g8
tp1190
a(Vassembly
g4
tp1191
a(Vline
g76
tp1192
a(Vproduce
g8
tp1193
aa(lp1194
(Vending
g605
tp1195
a(Vprobably
S'RB'
p1196
tp1197
a(Vbit
g6
tp1198
a(Vconventional
g848
tp1199
a(Vhollywood
g8
tp1200
a(Vfilm
g285
tp1201
a(Vincongruous
g6
tp1202
a(Vcome
g173
tp1203
a(Vleast
g435
tp1204
a(Vwonder
g8
tp1205
a(Vif
g158
tp1206
a(Vforced
g173
tp1207
a(Vstudio
g371
tp1208
a(Vexec
g8
tp1209
a(Vsuddenly
g4
tp1210
a(Vworried
g59
tp1211
a(Vlack
g6
tp1212
a(Vfeel-good
g6
tp1213
a(Vending
g605
tp1214
a(Vpotential
g6
tp1215
a(Veffect
g685
tp1216
a(Vbottom
g8
tp1217
a(Vline
g76
tp1218
a(Vaccording
S'VBG'
p1219
tp1220
a(Vpundit
g8
tp1221
a(Vcomfortably
g4
tp1222
a(Vmoved
g59
tp1223
a(Vpost-industrial
g6
tp1224
a(Vcapitalism
g8
tp1225
a(Vfilm
g285
tp1226
a(Valso
g871
tp1227
a(Vslightly
S'RB'
p1228
tp1229
a(Vnostalgic
g6
tp1230
a(Vfeel
g8
tp1231
a(Vthough
g167
tp1232
a(Vneeded
g6
tp1233
a(Vhistorical
g6
tp1234
a(Vdistance
g8
tp1235
a(Vreally
g117
tp1236
a(Vanalyze
g6
tp1237
a(Vhappened
g59
tp1238
a(Vperiod
S'NN'
p1239
tp1240
aa(lp1241
(S'nevertheless'
g4
tp1242
a(S'highly'
S'RB'
p1243
tp1244
a(S'recommended'
g6
tp1245
a(S'-'
S':'
tp1246
a(S'least'
g435
tp1247
a(S'if'
g158
tp1248
a(S'want'
g6
tp1249
a(S'exercise'
g8
tp1250
a(S'brain'
S'NN'
p1251
tp1252
aa(lp1253
(S'disregard'
g4
tp1254
a(S'ending'
g605
tp1255
a(S'close'
g6
tp1256
a(S'perfect'
g6
tp1257
a(S'10'
S'CD'
p1258
tp1259
aaa(lp1260
(lp1261
(Vstanley
g8
tp1262
a(Viris
g6
tp1263
a(Vheart
g394
tp1264
a(Vwarming
g27
tp1265
a(Vfilm
g285
tp1266
a(Vtwo
S'CD'
p1267
tp1268
a(Vpeople
g164
tp1269
a(Vfind
g31
tp1270
a(Vhelp
g6
tp1271
a(Vone
g80
tp1272
a(Vanother
g819
tp1273
a(Vovercome
g8
tp1274
a(Vproblem
S'NN'
p1275
tp1276
a(Vlife
g19
tp1277
aa(lp1278
(S'stanley'
g6
tp1279
a(S'life'
g19
tp1280
a(S'difficult'
g648
tp1281
a(S'never'
g553
tp1282
a(S'learned'
g173
tp1283
a(S'read'
g6
tp1284
a(S'write'
g8
tp1285
aa(lp1286
(Viris
g6
tp1287
a(Vwidower
g636
tp1288
a(Vtwo
g1267
tp1289
a(Vteenage
g8
tp1290
a(Vchild
g8
tp1291
a(Vworking
g27
tp1292
a(Vbakery
g6
tp1293
a(Vmeet
g8
tp1294
a(Vstanley
g8
tp1295
aa(lp1296
(S'decides'
g152
tp1297
a(S'teach'
g31
tp1298
a(S'stanley'
g6
tp1299
a(S'read'
g8
tp1300
a(S'home'
g8
tp1301
a(S'spare'
g6
tp1302
a(S'time'
g13
tp1303
aa(lp1304
(S'time'
g13
tp1305
a(S'become'
g47
tp1306
a(S'romantically'
g4
tp1307
a(S'involved'
g6
tp1308
aa(lp1309
(Vstanley
g8
tp1310
a(Vlearns
g152
tp1311
a(Vread
g59
tp1312
a(Vgo
g47
tp1313
a(Vgood
g6
tp1314
a(Vjob
g139
tp1315
a(Vchicago
g152
tp1316
a(Vreturn
g31
tp1317
a(Viris
g6
tp1318
a(Vask
g8
tp1319
a(Vmarry
g8
tp1320
a(Vreally
g117
tp1321
a(Vgood
g6
tp1322
a(Vfilm
g285
tp1323
a(Vwithout
g1057
tp1324
a(Vnudity
g8
tp1325
a(Vviolence
g8
tp1326
a(Vprofanity
g8
tp1327
a(Vrare
g31
tp1328
a(Vtoday
S'NN'
p1329
tp1330
a(Vfilm
g285
tp1331
aa(lp1332
(S'good'
g6
tp1333
a(S'film'
g285
tp1334
a(S'round'
g8
tp1335
aa(lp1336
aa(lp1337
(lp1338
(Vread
g6
tp1339
a(Vcomment
g8
tp1340
a(Vtomreynolds2004
g8
tp1341
a(Vfeel
g47
tp1342
a(Vjump
g8
tp1343
aa(lp1344
(Vunderstand
g8
tp1345
a(Vlike
g167
tp1346
a(Vfilm
g285
tp1347
a(Vbut
g115
tp1348
a(Vreason
S'NN'
p1349
tp1350
a(Vnot
g107
tp1351
a(Vevident
g6
tp1352
aa(lp1353
(Vfeeling
g27
tp1354
a(Vregarding
g27
tp1355
a(Vfilm
g285
tp1356
a(Vnot
g107
tp1357
a(Vafraid
g6
tp1358
a(Vtravel
g8
tp1359
a(Vdarker
g8
tp1360
a(Vroad
S'NN'
p1361
tp1362
a(Vloneliness
g6
tp1363
a(Vfailure
g8
tp1364
a(Vdisappointment
g8
tp1365
a(Vsorrow
g8
tp1366
aa(lp1367
(Vtwo
g1267
tp1368
a(Vpeople
g164
tp1369
a(Vportrayed
g59
tp1370
a(Vplenty
g6
tp1371
a(Vreason
g1349
tp1372
a(Vbitter
g8
tp1373
a(Vangry
g6
tp1374
a(Vyet
g4
tp1375
a(Vfind
g31
tp1376
a(Vtenderness
g6
tp1377
a(Vcomfort
g8
tp1378
aa(lp1379
(S'great'
g438
tp1380
a(S'acting'
g8
tp1381
a(S'could'
g200
tp1382
a(S'make'
g47
tp1383
a(S'work'
g8
tp1384
a(S'without'
g1057
tp1385
a(S'becoming'
S'VBG'
p1386
tp1387
a(S'emotional'
g6
tp1388
a(S'quagmire'
g8
tp1389
a(S'sentimental'
g8
tp1390
a(S'sappy'
g6
tp1391
aa(lp1392
(Vreally
g117
tp1393
a(Vbecame
S'VBD'
p1394
tp1395
a(Vinterested
g6
tp1396
a(Vpeople
g164
tp1397
a(Voverwhelming
g27
tp1398
a(Vhumanity
g8
tp1399
a(Vgiven
g109
tp1400
a(Vstrong
S'JJ'
p1401
tp1402
a(Vperformance
g428
tp1403
aa(lp1404
(Vevery
S'DT'
p1405
tp1406
a(Vreason
g1349
tp1407
a(Vdislike
g167
tp1408
a(Vjane
g8
tp1409
a(Vfonda
g8
tp1410
a(Vvietnam
g588
tp1411
a(Vera
g8
tp1412
a(Vaction
S'NN'
p1413
tp1414
a(Vbut
g115
tp1415
a(Vpersonal
g128
tp1416
a(Vfeeling
g8
tp1417
a(Vapart
g4
tp1418
a(Vfabulous
g6
tp1419
a(Vrole
g1006
tp1420
aa(lp1421
(Vrobert
g8
tp1422
a(Vdeniro
g8
tp1423
a(Vsuperb
g8
tp1424
a(Vman
S'NN'
p1425
tp1426
a(Vwhose
g866
tp1427
a(Vintelligence
g8
tp1428
a(Vgoodness
g8
tp1429
a(Vbegin
g167
tp1430
a(Vfail
g6
tp1431
a(Vworld
g1032
tp1432
a(Vindifferent
g8
tp1433
a(Vability
S'NN'
p1434
tp1435
aa(lp1436
(S'first'
g4
tp1437
a(S'seen'
S'VBN'
p1438
tp1439
a(S'deniro'
g8
tp1440
a(S'using'
S'VBG'
p1441
tp1442
a(S'tenderness'
g8
tp1443
a(S'rather'
g945
tp1444
a(S'toughness'
g4
tp1445
a(S'sell'
g47
tp1446
a(S'character'
g37
tp1447
a(S'really'
g117
tp1448
a(S'like'
g167
tp1449
aa(lp1450
(S'film'
g285
tp1451
a(S'big'
g659
tp1452
a(S'surprise'
g8
tp1453
a(S'first'
g4
tp1454
a(S'viewed'
g59
tp1455
a(S'look'
g47
tp1456
a(S'forward'
g4
tp1457
a(S'seeing'
g27
tp1458
aaa(lp1459
(lp1460
(Vif
g158
tp1461
a(Vlike
g6
tp1462
a(Vadult
g8
tp1463
a(Vcomedy
g8
tp1464
a(Vcartoon
g8
tp1465
a(Vlike
g167
tp1466
a(Vsouth
g6
tp1467
a(Vpark
g8
tp1468
a(Vnearly
S'RB'
p1469
tp1470
a(Vsimilar
S'JJ'
p1471
tp1472
a(Vformat
g8
tp1473
a(Vsmall
g289
tp1474
a(Vadventure
g8
tp1475
a(Vthree
S'CD'
p1476
tp1477
a(Vteenage
g8
tp1478
a(Vgirl
g8
tp1479
a(Vbromwell
g8
tp1480
a(Vhigh
g6
tp1481
aa(lp1482
(Vkeisha
g8
tp1483
a(Vnatella
g8
tp1484
a(Vlatrina
g59
tp1485
a(Vgiven
g109
tp1486
a(Vexploding
g27
tp1487
a(Vsweet
g6
tp1488
a(Vbehaved
g173
tp1489
a(Vlike
g167
tp1490
a(Vbitch
g8
tp1491
a(Vthink
g31
tp1492
a(Vkeisha
g47
tp1493
a(Vgood
g6
tp1494
a(Vleader
S'NN'
p1495
tp1496
aa(lp1497
(Valso
g871
tp1498
a(Vsmall
g289
tp1499
a(Vstory
g123
tp1500
a(Vgoing
S'VBG'
p1501
tp1502
a(Vteacher
g6
tp1503
a(Vschool
g17
tp1504
aa(lp1505
(Vidiotic
g6
tp1506
a(Vprincipal
g6
tp1507
a(Vmr
g8
tp1508
a(Vbip
g8
tp1509
a(Vnervous
g6
tp1510
a(Vmath
g8
tp1511
a(Vteacher
g4
tp1512
a(Vmany
g90
tp1513
a(Vothers
g474
tp1514
aa(lp1515
(Vcast
g8
tp1516
a(Valso
g871
tp1517
a(Vfantastic
g6
tp1518
a(Vlenny
g8
tp1519
a(Vhenry
g8
tp1520
a(Vgina
g8
tp1521
a(Vyashere
S'WRB'
p1522
tp1523
a(Veastenders
g152
tp1524
a(Vchrissie
g31
tp1525
a(Vwatt
g6
tp1526
a(Vtracy-ann
g6
tp1527
a(Voberman
g8
tp1528
a(Vsmack
g8
tp1529
a(Vpony
g8
tp1530
a(Vdoon
g8
tp1531
a(Vmackichan
g8
tp1532
a(Vdead
g6
tp1533
a(Vringer
g8
tp1534
a(Vmark
g8
tp1535
a(Vperry
g8
tp1536
a(Vblunder
g8
tp1537
a(Vnina
g8
tp1538
a(Vconti
g8
tp1539
aa(lp1540
(S'know'
g152
tp1541
a(S'came'
S'VBD'
p1542
tp1543
a(S'canada'
g4
tp1544
a(S'but'
g115
tp1545
a(S'very'
g4
tp1546
a(S'good'
g6
tp1547
aa(lp1548
(S'very'
g4
tp1549
a(S'good'
g6
tp1550
aaa(lp1551
(lp1552
(S'stanley'
g8
tp1553
a(S'iris'
g8
tp1554
a(S'show'
g8
tp1555
a(S'triumph'
g6
tp1556
a(S'human'
g6
tp1557
a(S'spirit'
g8
tp1558
aa(lp1559
(S'stanley'
g8
tp1560
a(S'struggle'
g8
tp1561
a(S'become'
g47
tp1562
a(S'literate'
g6
tp1563
a(S'realize'
g6
tp1564
a(S'potential'
g8
tp1565
aa(lp1566
(S'iris'
g6
tp1567
a(S'find'
g31
tp1568
a(S'courage'
g6
tp1569
a(S'love'
g8
tp1570
a(S'becoming'
g1386
tp1571
a(S'widow'
g8
tp1572
aa(lp1573
(Vbeauty
g8
tp1574
a(Vmovie
g113
tp1575
a(Vdance
g8
tp1576
a(Vrobert
g8
tp1577
a(Vdeniro
g8
tp1578
a(Vjane
g8
tp1579
a(Vfonda
g8
tp1580
a(Vtogether
g4
tp1581
a(Vstarting
g27
tp1582
a(Vstopping
g27
tp1583
a(Vskill
g6
tp1584
a(Vcourage
g8
tp1585
a(Vcompletely
g4
tp1586
a(Vtrust
g6
tp1587
a(Vmove
g8
tp1588
aa(lp1589
(Vsense
g8
tp1590
a(Vvery
g4
tp1591
a(Vnicely
g4
tp1592
a(Vgive
g47
tp1593
a(Vu
g6
tp1594
a(Vgood
g6
tp1595
a(Vview
g8
tp1596
a(Vlife
g19
tp1597
a(Voften
S'RB'
p1598
tp1599
a(Vthus
S'RB'
p1600
tp1601
a(Vcredible
g6
tp1602
aa(lp1603
(Vunlike
S'IN'
p1604
tp1605
a(Vreviewer
g636
tp1606
a(Vfound
g8
tp1607
a(Vcharacter
g8
tp1608
a(Vrendered
g59
tp1609
a(Vconsistent
g6
tp1610
a(Vwhole
g6
tp1611
a(Vpicture
g8
tp1612
aa(lp1613
(Vsupporting
g27
tp1614
a(Vcast
g8
tp1615
a(Valso
g871
tp1616
a(Vcarefully
g4
tp1617
a(Vchosen
g173
tp1618
a(Vadd
g47
tp1619
a(Vdepth
g6
tp1620
a(Vcharacter
g8
tp1621
a(Vmain
g368
tp1622
a(Vcharacter
g8
tp1623
a(Vget
g8
tp1624
a(Vadded
g59
tp1625
a(Vmeaning
g8
tp1626
a(Vsupporting
g27
tp1627
a(Vperformance
g428
tp1628
aa(lp1629
(S'excellent'
g6
tp1630
a(S'movie'
g113
tp1631
aa(lp1632
(S'best'
g435
tp1633
a(S'thing'
S'NN'
p1634
tp1635
a(S'take'
g47
tp1636
a(S'hope'
g8
tp1637
aaa(lp1638
(lp1639
(Vmay
g540
tp1640
a(Vnot
g107
tp1641
a(Vmemorable
g47
tp1642
a(Vclassic
g6
tp1643
a(Vbut
g115
tp1644
a(Vtouching
g27
tp1645
a(Vromance
g8
tp1646
a(Vimportant
S'JJ'
p1647
tp1648
a(Vtheme
g8
tp1649
a(Vstress
g8
tp1650
a(Vimportance
g8
tp1651
a(Vliteracy
g8
tp1652
a(Vmodern
g6
tp1653
a(Vsociety
g8
tp1654
a(Vdevastating
g27
tp1655
a(Vcareer
g8
tp1656
a(Vlife
g19
tp1657
a(Vconsequence
g8
tp1658
a(Vunfortunate
g6
tp1659
a(Vindividual
g6
tp1660
a(Vlacking
g8
tp1661
a(Vvital
g6
tp1662
a(Vskill
g8
tp1663
a(Vstory
g123
tp1664
a(Vrevolves
g352
tp1665
a(Varound
g167
tp1666
a(Viris
g6
tp1667
a(Vwidow
g8
tp1668
a(Vbecomes
g152
tp1669
a(Vacquainted
g59
tp1670
a(Vfellow
g6
tp1671
a(Vemployee
S'NN'
p1672
tp1673
a(Vfactory
g8
tp1674
a(Vjob
g139
tp1675
a(Villiterate
g6
tp1676
a(Vcafeteria
g8
tp1677
a(Vworker
g8
tp1678
a(Vnamed
g173
tp1679
a(Vstanley
g8
tp1680
aa(lp1681
(Viris
g6
tp1682
a(Vdiscovers
g152
tp1683
a(Vstanley
g31
tp1684
a(Vunable
g6
tp1685
a(Vread
g8
tp1686
a(Vloses
g152
tp1687
a(Vjob
g139
tp1688
a(Vgive
g31
tp1689
a(Vreading
g27
tp1690
a(Vlesson
g8
tp1691
a(Vhome
g8
tp1692
a(Vkitchen
g8
tp1693
aa(lp1694
(Vcourse
g566
tp1695
a(Vmight
g804
tp1696
a(Vpredict
g47
tp1697
a(Vtwo
g1267
tp1698
a(Valthough
g521
tp1699
a(Vinitially
g4
tp1700
a(Vwary
g6
tp1701
a(Vinvolvement
g8
tp1702
a(Vdevelop
g47
tp1703
a(Vfeeling
g27
tp1704
a(Vjane
g8
tp1705
a(Vfonda
g8
tp1706
a(Vcompetently
g4
tp1707
a(Vplay
g47
tp1708
a(Viris
g6
tp1709
a(Vwoman
g111
tp1710
a(Vproblem
g1275
tp1711
a(Vcoping
g27
tp1712
a(Vjob
g139
tp1713
a(Vlacking
g27
tp1714
a(Vprospect
g6
tp1715
a(Vtwo
g1267
tp1716
a(Vteenage
g8
tp1717
a(Vchild
g31
tp1718
a(Vone
g80
tp1719
a(Vpregnant
g6
tp1720
a(Vunemployed
g6
tp1721
a(Vsister
g8
tp1722
a(Vabusive
g6
tp1723
a(Vhusband
g8
tp1724
aa(lp1725
(Vhowever
g894
tp1726
a(Vrobert
g6
tp1727
a(Vdeniro
g6
tp1728
a(Vcourse
g566
tp1729
a(Vbrilliant
g6
tp1730
a(Vendearing
g27
tp1731
a(Vportrayal
g6
tp1732
a(Vintelligent
g6
tp1733
a(Vresourceful
g8
tp1734
a(Vbut
g115
tp1735
a(Villiterate
g6
tp1736
a(Vstanley
g8
tp1737
a(Vbringing
g27
tp1738
a(Vdignity
g8
tp1739
a(Vrole
g1006
tp1740
a(Vcommand
g8
tp1741
a(Vrespect
g8
tp1742
aa(lp1743
(Vtypical
g6
tp1744
a(Vcharming
g27
tp1745
a(Vyoung
g441
tp1746
a(Vyuppie
g8
tp1747
a(Vcouple
g8
tp1748
a(Vgenerally
g607
tp1749
a(Vdepicted
g173
tp1750
a(Vscreen
g6
tp1751
a(Vromance
g8
tp1752
a(Vbut
g115
tp1753
a(Vordinary
g6
tp1754
a(Vworking
g6
tp1755
a(Vclass
g843
tp1756
a(Vmiddle
g8
tp1757
a(Vaged
g59
tp1758
a(Vpair
g8
tp1759
a(Vpretty
g4
tp1760
a(Vearth
g6
tp1761
a(Vstruggle
g152
tp1762
a(Vgive
g31
tp1763
a(Vending
g605
tp1764
a(Vaway
g4
tp1765
a(Vbut
g115
tp1766
a(Vlovely
g4
tp1767
a(Vheartwarming
g27
tp1768
a(Vromance
g8
tp1769
a(Vpersonal
g128
tp1770
a(Vlook
g8
tp1771
a(Vtroubling
g27
tp1772
a(Vissue
g8
tp1773
a(Vadult
g8
tp1774
a(Villiteracy
g8
tp1775
a(Valbeit
g167
tp1776
a(Vperspective
g6
tp1777
a(Vfictional
g6
tp1778
a(Vcharacter
g8
tp1779
aaa(lp1780
(lp1781
(S'if'
g158
tp1782
a(S'fast'
g4
tp1783
a(S'forward'
g4
tp1784
a(S'horrible'
g6
tp1785
a(S'singing'
g8
tp1786
a(S'find'
g31
tp1787
a(S'classic'
g6
tp1788
a(S'fairy'
g6
tp1789
a(S'tale'
g8
tp1790
a(S'underneath'
g8
tp1791
aa(lp1792
(S'christopher'
g8
tp1793
a(S'walken'
g1522
tp1794
a(S'very'
g4
tp1795
a(S'humorous'
g6
tp1796
a(S'surprisingly'
g4
tp1797
a(S'good'
g6
tp1798
a(S'role'
g1006
tp1799
aa(lp1800
(Vtrademark
g8
tp1801
a(Vstyle
g283
tp1802
a(Vacting
g27
tp1803
a(Vwork
g8
tp1804
a(Vwell
g4
tp1805
a(Vsly
g4
tp1806
a(Vpus
g6
tp1807
a(Vboot
g8
tp1808
aa(lp1809
(Vactor
g8
tp1810
a(Vwell
g4
tp1811
a(Vpart
g644
tp1812
aa(lp1813
(S'not'
g107
tp1814
a(S'find'
g47
tp1815
a(S'acting'
g27
tp1816
a(S'terribly'
g4
tp1817
a(S'fake'
g47
tp1818
a(S'awkward'
g8
tp1819
aa(lp1820
(S'king'
g27
tp1821
a(S'particular'
g6
tp1822
a(S'appears'
g1126
tp1823
a(S'real'
g162
tp1824
a(S'dunce'
g8
tp1825
a(S'though'
g167
tp1826
a(S'wonder'
g8
tp1827
a(S'if'
g158
tp1828
a(S'supposed'
g173
tp1829
aa(lp1830
(S'not'
g107
tp1831
a(S'remember'
g47
tp1832
a(S'original'
g6
tp1833
a(S'tale'
g8
tp1834
aa(lp1835
(Vspecial
g6
tp1836
a(Veffect
g685
tp1837
a(Vtypical
g6
tp1838
a(Veighty
g8
tp1839
a(Vbut
g115
tp1840
a(Vleast
g435
tp1841
a(Vnot
g107
tp1842
a(Voverly
g4
tp1843
a(Vfake
g31
tp1844
a(Vlike
g167
tp1845
a(Vcomputer
S'NN'
p1846
tp1847
a(Vgenerated
g173
tp1848
a(Vfare
g8
tp1849
a(Vsee
g8
tp1850
a(Vtoday
g1329
tp1851
aa(lp1852
(Voverall
g6
tp1853
a(Vrecommend
g31
tp1854
a(Vmovie
g113
tp1855
a(Vchild
g8
tp1856
a(Vadult
g8
tp1857
a(Vchild
g6
tp1858
a(Vheart
g394
tp1859
aaa(lp1860
(lp1861
(Vok
g6
tp1862
a(Vmusical
g6
tp1863
a(Vpiece
g8
tp1864
a(Vpoorly
g4
tp1865
a(Vwritten
S'VBN'
p1866
tp1867
a(Vgenerally
g607
tp1868
a(Vpoorly
g4
tp1869
a(Vsung
g173
tp1870
a(Vthough
g167
tp1871
a(Vwalken
g6
tp1872
a(Vmarner
g8
tp1873
a(Vparticularly
S'RB'
p1874
tp1875
a(Vwalken
g4
tp1876
a(Vsounded
g173
tp1877
a(Vpretty
g4
tp1878
a(Vgood
g6
tp1879
aa(lp1880
(Vshattered
g173
tp1881
a(Vfourth
S'JJ'
p1882
tp1883
a(Vwall
g6
tp1884
a(Vend
g8
tp1885
a(Vking
g27
tp1886
a(Vnoble
g6
tp1887
a(Vsing
g6
tp1888
a(Vbattle
S'NN'
p1889
tp1890
a(Vogre
g6
tp1891
a(Vpraise
g8
tp1892
a(Veffort
g385
tp1893
a(Vpus
g8
tp1894
a(Vboot
g8
tp1895
a(Vright
g4
tp1896
a(Veven
g4
tp1897
a(Vknown
g173
tp1898
a(Vcare
g8
tp1899
aa(lp1900
(Vchristopher
g8
tp1901
a(Vfreakin
g8
tp1902
a(Vwalken
g1522
tp1903
a(Vmovie
g113
tp1904
a(Vbased
S'VBN'
p1905
tp1906
a(Vfairy
g6
tp1907
a(Vtale
g6
tp1908
a(Vsings
g152
tp1909
a(Vdance
g8
tp1910
aa(lp1911
(Vacting
g27
tp1912
a(Vstyle
g283
tp1913
a(Vfit
g6
tp1914
a(Vrole
g1006
tp1915
a(Vvery
g4
tp1916
a(Vwell
g4
tp1917
a(Vdevious
g6
tp1918
a(Vmischievous
g6
tp1919
a(Vpus
g8
tp1920
a(Vseems
g570
tp1921
a(Vget
g31
tp1922
a(Vmaster
g8
tp1923
a(Vdeeper
g8
tp1924
a(Vdeeper
g8
tp1925
a(Vtrouble
S'NN'
p1926
tp1927
a(Vbut
g115
tp1928
a(Vfact
g772
tp1929
a(Vplan
g8
tp1930
a(Vthought
g59
tp1931
a(Vseven
S'CD'
p1932
tp1933
a(Veight
S'CD'
p1934
tp1935
a(Vmove
g8
tp1936
a(Vadvance
g8
tp1937
aa(lp1938
(Vif
g158
tp1939
a(Vever
S'RB'
p1940
tp1941
a(Vseen
g1438
tp1942
a(Vwalken
g173
tp1943
a(Vvillainous
g6
tp1944
a(Vrole
g1006
tp1945
a(Vknow
g31
tp1946
a(Vogre
g6
tp1947
a(Vbit
g8
tp1948
a(Vdust
g6
tp1949
a(Vhard
g6
tp1950
a(Vend
g8
tp1951
a(Vwalken
g8
tp1952
a(Vgot
g59
tp1953
a(Vtrap
g6
tp1954
a(Vfun
g8
tp1955
a(Vfilm
g285
tp1956
a(Vmust-see
g31
tp1957
a(Vanyone
S'NN'
p1958
tp1959
a(Venjoys
g352
tp1960
a(Vunique
g6
tp1961
a(Vstyle
g283
tp1962
a(Vchristopher
g8
tp1963
a(Vwalken
g8
tp1964
aaa(lp1965
(lp1966
(Valthough
g521
tp1967
a(Vobviously
g4
tp1968
a(Vlow-budget
g6
tp1969
a(Vproduction
g244
tp1970
a(Vperformance
g428
tp1971
a(Vsong
g8
tp1972
a(Vmovie
g113
tp1973
a(Vworth
g167
tp1974
a(Vseeing
g27
tp1975
aa(lp1976
(Vone
g80
tp1977
a(Vwalken
g6
tp1978
a(Vmusical
g6
tp1979
a(Vrole
g1006
tp1980
a(Vdate
S'NN'
p1981
tp1982
aa(lp1983
(Vmarvelous
g6
tp1984
a(Vdancer
g8
tp1985
a(Vsinger
g8
tp1986
a(Vdemonstrates
g352
tp1987
a(Vacrobatic
g6
tp1988
a(Vskill
g8
tp1989
a(Vwell
g4
tp1990
a(V-
S':'
tp1991
a(Vwatch
g8
tp1992
a(Vcartwheel
g8
tp1993
aa(lp1994
(S'also'
g871
tp1995
a(S'starring'
g27
tp1996
a(S'jason'
g8
tp1997
a(S'connery'
g8
tp1998
aa(lp1999
(Vgreat
g438
tp2000
a(Vchild
g6
tp2001
a(Vstory
g123
tp2002
a(Vvery
g4
tp2003
a(Vlikable
g6
tp2004
a(Vcharacter
g8
tp2005
aaa(lp2006
(lp2007
(Vnever
g553
tp2008
a(Vsaw
g59
tp2009
a(Vkid
g152
tp2010
a(Vseen
g1438
tp2011
a(Vfresh
g6
tp2012
a(Veye
S'NN'
p2013
tp2014
aa(lp2015
(S'never'
g553
tp2016
a(S'heard'
g4
tp2017
a(S'rented'
g59
tp2018
a(S'5'
S'CD'
p2019
tp2020
a(S'year'
g25
tp2021
a(S'old'
S'JJ'
p2022
tp2023
a(S'daughter'
g8
tp2024
aa(lp2025
(S'plus'
S'CC'
p2026
tp2027
a(S'idea'
S'NN'
p2028
tp2029
a(S'christopher'
g4
tp2030
a(S'walken'
g6
tp2031
a(S'singing'
g27
tp2032
a(S'dancing'
g27
tp2033
a(S'made'
g173
tp2034
a(S'curious'
g6
tp2035
aa(lp2036
(S'special'
g6
tp2037
a(S'fx'
g6
tp2038
a(S'cheesy'
g8
tp2039
a(S'singing'
g27
tp2040
a(S'dancing'
g27
tp2041
a(S'mediocre'
g8
tp2042
aa(lp2043
(S'but'
g115
tp2044
a(S'story'
g123
tp2045
a(S'great'
g438
tp2046
aa(lp2047
(S'daughter'
g8
tp2048
a(S'entranced'
g59
tp2049
aa(lp2050
(S'loved'
g173
tp2051
a(S'watching'
g27
tp2052
a(S'walken'
g6
tp2053
a(S'role'
g1006
tp2054
a(S'thinking'
g27
tp2055
a(S'future'
g6
tp2056
a(S'held'
g8
tp2057
aa(lp2058
(S'very'
g4
tp2059
a(S'amusing'
g27
tp2060
a(S'see'
g8
tp2061
a(S'dance'
g8
tp2062
aa(lp2063
(Vif
g158
tp2064
a(Vsong
g6
tp2065
a(Vgreat
g438
tp2066
a(Vleast
g435
tp2067
a(Vdisney
g6
tp2068
a(Vover-produced
g6
tp2069
a(Vsaccharine
g8
tp2070
a(Vsweetness
g8
tp2071
aa(lp2072
(S'ogre'
g6
tp2073
a(S'scene'
g8
tp2074
a(S'beginning'
g27
tp2075
a(S'little'
g6
tp2076
a(S'scary'
g6
tp2077
a(S'little'
g4
tp2078
a(S'nervous'
g6
tp2079
a(S'saw'
g6
tp2080
a(S'end'
g8
tp2081
a(S'but'
g115
tp2082
a(S'mostly'
g275
tp2083
a(S'benign'
g6
tp2084
aa(lp2085
(Vinterestingly
g4
tp2086
a(Vrecently
S'RB'
p2087
tp2088
a(Vread
g47
tp2089
a(Vpus
g8
tp2090
a(Vboot
g8
tp2091
a(Vwondered
g59
tp2092
a(Vimplausibility
g8
tp2093
a(Vstory
g123
tp2094
aa(lp2095
(S'but'
g115
tp2096
a(S'staying'
g27
tp2097
a(S'true'
g405
tp2098
a(S'almost'
S'RB'
p2099
tp2100
a(S'every'
g1405
tp2101
a(S'aspect'
g8
tp2102
a(S'walken'
g8
tp2103
a(S'acting'
g27
tp2104
a(S'made'
g173
tp2105
a(S'believable'
g6
tp2106
aa(lp2107
(S'great'
g438
tp2108
a(S'fun'
g8
tp2109
aa(lp2110
(S'watch'
g8
tp2111
a(S'daughter'
g8
tp2112
aaa(lp2113
(lp2114
(S'bromwell'
g4
tp2115
a(S'high'
g6
tp2116
a(S'nothing'
S'NN'
p2117
tp2118
a(S'short'
g6
tp2119
a(S'brilliant'
g8
tp2120
aa(lp2121
(Vexpertly
g4
tp2122
a(Vscripted
g173
tp2123
a(Vperfectly
g4
tp2124
a(Vdelivered
g173
tp2125
a(Vsearing
g27
tp2126
a(Vparody
g8
tp2127
a(Vstudent
g8
tp2128
a(Vteacher
g8
tp2129
a(Vsouth
g6
tp2130
a(Vlondon
g6
tp2131
a(Vpublic
g6
tp2132
a(Vschool
g17
tp2133
a(Vleaf
g8
tp2134
a(Vliterally
g4
tp2135
a(Vrolling
g27
tp2136
a(Vlaughter
g8
tp2137
aa(lp2138
(S'vulgar'
g8
tp2139
a(S'provocative'
g6
tp2140
a(S'witty'
g8
tp2141
a(S'sharp'
S'JJ'
p2142
tp2143
aa(lp2144
(Vcharacter
g8
tp2145
a(Vsuperbly
g4
tp2146
a(Vcaricatured
g59
tp2147
a(Vcross
g6
tp2148
a(Vsection
g8
tp2149
a(Vbritish
g6
tp2150
a(Vsociety
g8
tp2151
a(Vaccurate
g8
tp2152
a(Vsociety
g8
tp2153
aa(lp2154
(Vfollowing
g27
tp2155
a(Vescapade
g8
tp2156
a(Vkeisha
g588
tp2157
a(Vlatrina
g8
tp2158
a(Vnatella
g8
tp2159
a(Vthree
g1476
tp2160
a(Vprotagonist
g8
tp2161
a(Vwant
g31
tp2162
a(Vbetter
g636
tp2163
a(Vterm
S'NN'
p2164
tp2165
a(Vshow
g8
tp2166
a(Vshy
g352
tp2167
a(Vaway
S'RP'
p2168
tp2169
a(Vparodying
g27
tp2170
a(Vevery
g1405
tp2171
a(Vimaginable
g6
tp2172
a(Vsubject
g8
tp2173
aa(lp2174
(Vpolitical
S'JJ'
p2175
tp2176
a(Vcorrectness
g8
tp2177
a(Vfly
g8
tp2178
a(Vwindow
g8
tp2179
a(Vevery
g1405
tp2180
a(Vepisode
g8
tp2181
aa(lp2182
(Vif
g158
tp2183
a(Venjoy
g173
tp2184
a(Vshow
g8
tp2185
a(Vafraid
g6
tp2186
a(Vpoke
g8
tp2187
a(Vfun
g8
tp2188
a(Vevery
g1405
tp2189
a(Vtaboo
g8
tp2190
a(Vsubject
g6
tp2191
a(Vimaginable
g6
tp2192
a(Vbromwell
g8
tp2193
a(Vhigh
g6
tp2194
a(Vnot
g107
tp2195
a(Vdisappoint
g47
tp2196
aaa(lp2197
(lp2198
(Vworld
g1032
tp2199
a(Vstage
g8
tp2200
a(Vpeople
g164
tp2201
a(Vactor
g31
tp2202
a(V--or
g6
tp2203
a(Vsomething
S'NN'
p2204
tp2205
a(Vlike
g167
tp2206
aa(lp2207
(S'hell'
g8
tp2208
a(S'said'
S'VBD'
p2209
tp2210
a(S'theatre'
g8
tp2211
a(S'stopped'
g59
tp2212
a(S'orchestra'
g6
tp2213
a(S'pit--or'
g6
tp2214
a(S'even'
g4
tp2215
a(S'theatre'
g31
tp2216
a(S'door'
g8
tp2217
aa(lp2218
(Vnot
g107
tp2219
a(Vaudience
S'NN'
p2220
tp2221
a(Vparticipant
g6
tp2222
a(Vtheatrical
g6
tp2223
a(Vexperience
g8
tp2224
a(Vincluding
S'VBG'
p2225
tp2226
a(Vstory
g123
tp2227
a(Vfilm
g285
tp2228
a(Vgrand
S'JJ'
p2229
tp2230
a(Vexperiment
g8
tp2231
a(Vsaid
g2209
tp2232
a(Vhey
g8
tp2233
aa(lp2234
(Vstory
g123
tp2235
a(Vneed
S'MD'
p2236
tp2237
a(Vattention
S'NN'
p2238
tp2239
a(Vneed
g47
tp2240
a(Vactive
S'JJ'
p2241
tp2242
a(Vparticipation
g8
tp2243
aa(lp2244
(S'sometimes'
g4
tp2245
a(S'bring'
g6
tp2246
a(S'story'
g123
tp2247
a(S'sometimes'
g4
tp2248
a(S'go'
g47
tp2249
a(S'story'
g123
tp2250
aa(lp2251
(Vala
g8
tp2252
a(Vno
g126
tp2253
a(Vone
g8
tp2254
a(Vlistened
g59
tp2255
a(Vbut
g115
tp2256
a(Vnot
g107
tp2257
a(Vmean
g47
tp2258
a(Vnot
g107
tp2259
a(Vsaid
g2209
tp2260
aaa(lp2261
(lp2262
(Vfutz
g8
tp2263
a(Vshow
g8
tp2264
a(Vpreserved
g59
tp2265
a(Vexperimental
g6
tp2266
a(Vtheatre
g6
tp2267
a(Vmovement
S'NN'
p2268
tp2269
a(Vnew
g250
tp2270
a(Vyork
g8
tp2271
a(V1960s
g80
tp2272
a(Vorigin
g8
tp2273
a(Vbroadway
g8
tp2274
aa(lp2275
(Vthough
g167
tp2276
a(Vnot
g107
tp2277
a(Veveryone
g942
tp2278
a(Vgenuinely
g4
tp2279
a(Vbrilliant
g6
tp2280
a(Vdarkly
g8
tp2281
a(Vfunny
g59
tp2282
a(Veven
g4
tp2283
a(Voften
g1598
tp2284
a(Vdeeply
g31
tp2285
a(Vdisturbing
g27
tp2286
a(Vtale
g8
tp2287
a(Vlove
g8
tp2288
a(Vsex
g8
tp2289
a(Vpersonal
g128
tp2290
a(Vliberty
g8
tp2291
a(Vrevenge
g8
tp2292
a(Vserious
S'JJ'
p2293
tp2294
a(Vmorality
g8
tp2295
a(Vtale
g8
tp2296
a(Veven
g4
tp2297
a(Vrelevant
g6
tp2298
a(Vtime
g13
tp2299
a(Vcongress
g8
tp2300
a(Vwant
g31
tp2301
a(Voutlaw
g8
tp2302
a(Vgay
g8
tp2303
a(Vmarriage
g8
tp2304
a(Vtrashing
g27
tp2305
a(Vconstitution
g8
tp2306
aa(lp2307
(Vstory
g123
tp2308
a(Vnot
g107
tp2309
a(Vgay
g6
tp2310
a(Vthough
g167
tp2311
a(V--
S':'
tp2312
a(Vlove
g47
tp2313
a(Vsex
g8
tp2314
a(Vconform
g47
tp2315
a(Vsocial
g1084
tp2316
a(Vnorm
g8
tp2317
a(Vtherefore
g4
tp2318
a(Vmust
g650
tp2319
a(Vremoved
g47
tp2320
a(Vviolence
g8
tp2321
a(Vhate
g8
tp2322
aa(lp2323
(Vsurface
g8
tp2324
a(Vtell
g31
tp2325
a(Vstory
g123
tp2326
a(Vman
g1425
tp2327
a(Vfall
g8
tp2328
a(Vlove
g31
tp2329
a(Vpig
g8
tp2330
a(Vbut
g115
tp2331
a(Vlike
g167
tp2332
a(Vgreat
g438
tp2333
a(Vfable
g6
tp2334
a(Vnot
g107
tp2335
a(Vreally
g117
tp2336
a(Vanimal
g6
tp2337
a(Vsomething
g2204
tp2338
a(Vbigger
S'JJR'
p2339
tp2340
a(V--
S':'
tp2341
a(Vstifling
g27
tp2342
a(Vconformity
g8
tp2343
a(Vamerica
g8
tp2344
a(Vstage
g8
tp2345
a(Vversion
g348
tp2346
a(Vinternational
S'JJ'
p2347
tp2348
a(Vacclaim
g8
tp2349
a(Voriginal
g6
tp2350
a(Vproduction
g244
tp2351
a(Vtoured
g59
tp2352
a(Vu
g6
tp2353
a(Veurope
g8
tp2354
a(Vothers
g474
tp2355
a(Vkind
S'NN'
p2356
tp2357
a(Vinfluenced
g59
tp2358
a(Valmost
g2099
tp2359
a(Vtheatre
g6
tp2360
a(Vcame
g1542
tp2361
aa(lp2362
(S'luckily'
g4
tp2363
a(S'preserved'
g173
tp2364
a(S'show'
g8
tp2365
a(S'pretty'
g4
tp2366
a(S'much'
g6
tp2367
a(S'originally'
g4
tp2368
a(S'conceived'
g173
tp2369
a(S'original'
g6
tp2370
a(S'cast'
g8
tp2371
a(S'original'
g6
tp2372
a(S'director'
S'NN'
p2373
tp2374
a(S'tom'
g8
tp2375
a(S'horgan'
g8
tp2376
a(S'also'
g871
tp2377
a(S'directed'
g59
tp2378
a(S'hair'
g6
tp2379
a(S'jesus'
g8
tp2380
a(S'christ'
g8
tp2381
a(S'superstar'
g8
tp2382
a(S'broadway'
g4
tp2383
a(S'not'
g107
tp2384
a(S'mainstream'
g6
tp2385
a(S'easy-to-take'
g6
tp2386
a(S'studio'
g371
tp2387
a(S'film'
g285
tp2388
a(S'--'
S':'
tp2389
a(S'aggressive'
S'JJ'
p2390
tp2391
a(S'unsettling'
g6
tp2392
a(S'glorious'
g6
tp2393
a(S'deeply'
g8
tp2394
a(S'emotional'
g6
tp2395
a(S'wildly'
g4
tp2396
a(S'imaginative'
g6
tp2397
a(S'piece'
g8
tp2398
a(S'storytelling'
g27
tp2399
a(S'never'
g553
tp2400
a(S'forget'
g47
tp2401
aa(lp2402
(S'might'
g804
tp2403
a(S'change'
g47
tp2404
a(S'way'
g956
tp2405
a(S'see'
g8
tp2406
a(S'world'
g1032
tp2407
aaa(lp2408
(lp2409
(Vcame
g1542
tp2410
a(Vmiddle
g6
tp2411
a(Vfilm
g285
tp2412
a(Vno
g126
tp2413
a(Videa
g2028
tp2414
a(Vcredit
S'NN'
p2415
tp2416
a(Veven
g4
tp2417
a(Vtitle
g47
tp2418
a(Vtill
g8
tp2419
a(Vlooked
g59
tp2420
a(Vsee
g31
tp2421
a(Vreceived
g173
tp2422
a(Vmixed
g6
tp2423
a(Vreception
g8
tp2424
a(Vcommentator
g8
tp2425
aa(lp2426
(S'positive'
g491
tp2427
a(S'side'
g8
tp2428
a(S'regarding'
g27
tp2429
a(S'film'
g285
tp2430
a(S'but'
g115
tp2431
a(S'one'
g80
tp2432
a(S'thing'
g1634
tp2433
a(S'really'
g117
tp2434
a(S'caught'
g6
tp2435
a(S'attention'
g2238
tp2436
a(S'watched'
g59
tp2437
a(S'beautiful'
g6
tp2438
a(S'sensitive'
g6
tp2439
a(S'score'
g8
tp2440
a(S'written'
g1866
tp2441
a(S'coplandesque'
g6
tp2442
a(S'americana'
g152
tp2443
a(S'style'
g283
tp2444
aa(lp2445
(S'surprise'
g8
tp2446
a(S'great'
g438
tp2447
a(S'discovered'
g59
tp2448
a(S'score'
g4
tp2449
a(S'written'
g1866
tp2450
a(S'none'
g8
tp2451
a(S'john'
g8
tp2452
a(S'williams'
g152
tp2453
aa(lp2454
(Vtrue
g405
tp2455
a(Vwritten
g1866
tp2456
a(Vsensitive
g6
tp2457
a(Vpoignant
g8
tp2458
a(Vscore
g8
tp2459
a(Vschindler
g6
tp2460
a(Vlist
g8
tp2461
a(Vbut
g115
tp2462
a(Vone
g80
tp2463
a(Vusually
S'RB'
p2464
tp2465
a(Vassociate
g6
tp2466
a(Vname
g8
tp2467
a(Vbombasticities
g152
tp2468
a(Vstar
g31
tp2469
a(Vwar
S'NN'
p2470
tp2471
aa(lp2472
(S'but'
g115
tp2473
a(S'opinion'
S'NN'
p2474
tp2475
a(S'williams'
g152
tp2476
a(S'written'
g1866
tp2477
a(S'movie'
g113
tp2478
a(S'surpasses'
g352
tp2479
a(S'anything'
S'NN'
p2480
tp2481
a(S'ever'
g1940
tp2482
a(S'heard'
g4
tp2483
a(S'tenderness'
g6
tp2484
a(S'sensitivity'
g8
tp2485
a(S'beauty'
g8
tp2486
a(S'fully'
S'RB'
p2487
tp2488
a(S'keeping'
S'VBG'
p2489
tp2490
a(S'tender'
g8
tp2491
a(S'lovely'
g4
tp2492
a(S'plot'
g6
tp2493
a(S'movie'
g113
tp2494
aa(lp2495
(Vanother
g819
tp2496
a(Vrecent
S'JJ'
p2497
tp2498
a(Vscore
g8
tp2499
a(Vcatch
g8
tp2500
a(Vif
g158
tp2501
a(Vshow
g8
tp2502
a(Vstill
g670
tp2503
a(Vwit
g352
tp2504
a(Vsophistication
g8
tp2505
aa(lp2506
(Vstanley
g6
tp2507
a(Viris
g8
tp2508
a(Vlike
g167
tp2509
a(Veducation
g8
tp2510
a(Vmovie
g113
tp2511
a(Vlike
g167
tp2512
a(Vgreen
g6
tp2513
a(Vvalley
g8
tp2514
a(Vkonrack
g8
tp2515
a(Vone
g80
tp2516
a(Vjohn
g8
tp2517
a(Vvoigt
g8
tp2518
a(Vyoung
g441
tp2519
a(Vafrican
g6
tp2520
a(Vamerican
g6
tp2521
a(Vcharge
g8
tp2522
a(Vsouth
g6
tp2523
a(Vcarolina
g6
tp2524
a(Vdanny
g8
tp2525
a(Vdevito
g8
tp2526
a(Vrenaissance
g8
tp2527
a(Vman
g1425
tp2528
a(Vetc
g8
tp2529
aa(lp2530
(S'tell'
g4
tp2531
a(S'necessary'
S'JJ'
p2532
tp2533
a(S'story'
g123
tp2534
a(S'intellectual'
g6
tp2535
a(S'spiritual'
g6
tp2536
a(S'awakening'
g27
tp2537
a(S'story'
g123
tp2538
a(S'told'
g59
tp2539
a(S'often'
g1598
tp2540
a(S'enough'
g6
tp2541
aa(lp2542
(S'one'
g80
tp2543
a(S'excellent'
g6
tp2544
a(S'addition'
S'NN'
p2545
tp2546
a(S'genre'
g8
tp2547
aaa(lp2548
(lp2549
(Vfair
g6
tp2550
a(Vdrama
g8
tp2551
a(Vlove
g47
tp2552
a(Vstory
g123
tp2553
a(Vmovie
g113
tp2554
a(Vfocus
g8
tp2555
a(Vlife
g19
tp2556
a(Vblue
g6
tp2557
a(Vcollar
g6
tp2558
a(Vpeople
g164
tp2559
a(Vfinding
g27
tp2560
a(Vnew
g250
tp2561
a(Vlife
g19
tp2562
a(Vthru
g352
tp2563
a(Vnew
g250
tp2564
a(Vlove
g167
tp2565
a(Vacting
g27
tp2566
a(Vgood
g6
tp2567
a(Vbut
g115
tp2568
a(Vfilm
g285
tp2569
a(Vfails
g152
tp2570
a(Vcinematography
g31
tp2571
a(Vscreenplay
g8
tp2572
a(Vdirecting
g27
tp2573
a(Vediting
g27
tp2574
a(Vstory
g123
tp2575
a(Vscript
g6
tp2576
a(Vaverage
g6
tp2577
a(Vbest
g435
tp2578
a(Vfilm
g285
tp2579
a(Venjoyed
g59
tp2580
a(Vfonda
g8
tp2581
a(Vde
g167
tp2582
a(Vniro
g588
tp2583
a(Vfan
g8
tp2584
a(Vpeople
g164
tp2585
a(Vlove
g31
tp2586
a(Vmiddle
g6
tp2587
a(Vage
g93
tp2588
a(Vlove
g47
tp2589
a(Vstory
g123
tp2590
a(Vcoartship
g8
tp2591
a(Vwiser
g31
tp2592
a(Vcautious
g6
tp2593
a(Vlevel
g8
tp2594
a(Vwould
g373
tp2595
a(Valso
g871
tp2596
a(Vinteresting
g27
tp2597
a(Vpeople
g164
tp2598
a(Vinterested
g6
tp2599
a(Vsubject
g6
tp2600
a(Vmatter
g8
tp2601
a(Vregarding
g27
tp2602
a(Villiteracy
g8
tp2603
aaa(lp2604
(lp2605
(S'although'
g521
tp2606
a(S'like'
g167
tp2607
a(S'stanley'
g6
tp2608
a(S'iris'
g8
tp2609
a(S'tremendously'
g4
tp2610
a(S'film'
g285
tp2611
a(S'admire'
g8
tp2612
a(S'acting'
g8
tp2613
aa(lp2614
(S'jane'
g8
tp2615
a(S'fonda'
g8
tp2616
a(S'robert'
g8
tp2617
a(S'de'
g167
tp2618
a(S'niro'
g588
tp2619
a(S'great'
g438
tp2620
a(S'movie'
g113
tp2621
aa(lp2622
(S'always'
g725
tp2623
a(S'fan'
g8
tp2624
a(S'fonda'
g6
tp2625
a(S'work'
g8
tp2626
a(S'but'
g115
tp2627
a(S'delicate'
g47
tp2628
a(S'strong'
g1401
tp2629
a(S'time'
g13
tp2630
aa(lp2631
(S'de'
g167
tp2632
a(S'niro'
g588
tp2633
a(S'ability'
g1434
tp2634
a(S'make'
g31
tp2635
a(S'every'
g1405
tp2636
a(S'role'
g1006
tp2637
a(S'portrays'
g352
tp2638
a(S'acting'
g27
tp2639
a(S'gold'
g8
tp2640
aa(lp2641
(Vgive
g6
tp2642
a(Vgreat
g438
tp2643
a(Vperformance
g428
tp2644
a(Vfilm
g285
tp2645
a(Vgreat
g438
tp2646
a(Vscene
g8
tp2647
a(Vtake
g47
tp2648
a(Vfather
g8
tp2649
a(Vhome
g8
tp2650
a(Velderly
g6
tp2651
a(Vpeople
g164
tp2652
a(Vcare
g31
tp2653
a(Vanymore
g4
tp2654
a(Vbreak
g6
tp2655
a(Vheart
g394
tp2656
aa(lp2657
(S'really'
g117
tp2658
a(S'recommend'
g47
tp2659
a(S'film'
g285
tp2660
a(S'great'
g438
tp2661
a(S'cinematic'
g6
tp2662
a(S'entertainment'
S'NN'
p2663
tp2664
a(S'but'
g115
tp2665
a(S'say'
g31
tp2666
a(S'see'
g31
tp2667
a(S'much'
g6
tp2668
a(S'bette'
g8
tp2669
a(S'acting'
g27
tp2670
a(S'anywhere'
g4
tp2671
aaa(lp2672
(lp2673
(Vvery
g4
tp2674
a(Vgood
g6
tp2675
a(Vdrama
g8
tp2676
a(Valthough
g521
tp2677
a(Vappeared
g6
tp2678
a(Vblank
g6
tp2679
a(Varea
g497
tp2680
a(Vleaving
g27
tp2681
a(Vviewer
g636
tp2682
a(Vfill
g6
tp2683
a(Vaction
g1413
tp2684
aa(lp2685
(S'imagine'
g6
tp2686
a(S'life'
g19
tp2687
a(S'way'
g956
tp2688
a(S'someone'
g596
tp2689
a(S'neither'
g126
tp2690
a(S'read'
g8
tp2691
a(S'nor'
S'CC'
p2692
tp2693
a(S'write'
g6
tp2694
aa(lp2695
(Vfilm
g285
tp2696
a(Vsimply
S'RB'
p2697
tp2698
a(Vsmacked
g59
tp2699
a(Vreal
g162
tp2700
a(Vworld
g1032
tp2701
a(Vwife
g828
tp2702
a(Vsuddenly
g4
tp2703
a(Vsole
g6
tp2704
a(Vsupporter
g636
tp2705
a(Vlive-in
g6
tp2706
a(Vrelative
g6
tp2707
a(Vquarrel
g8
tp2708
a(Vtroubled
g59
tp2709
a(Vchild
g8
tp2710
a(Vget
g8
tp2711
a(Vknocked
g173
tp2712
a(Vtypically
S'RB'
p2713
tp2714
a(Vdrop
g6
tp2715
a(Vschool
g17
tp2716
a(Vjackass
g8
tp2717
a(Vhusband
g8
tp2718
a(Vtake
g47
tp2719
a(Vnest
g435
tp2720
a(Vegg
g8
tp2721
a(Vbuy
g47
tp2722
a(Vbeer
g832
tp2723
aa(lp2724
(V2
g270
tp2725
a(Vthumb
g8
tp2726
aaa(lp2727
(lp2728
(Vworking-class
g6
tp2729
a(Vromantic
g6
tp2730
a(Vdrama
g8
tp2731
a(Vdirector
g2373
tp2732
a(Vmartin
g59
tp2733
a(Vritt
g6
tp2734
a(Vunbelievable
g6
tp2735
a(Vcome
g173
tp2736
a(Vyet
g4
tp2737
a(Vmoment
S'NN'
p2738
tp2739
a(Vpleasure
g8
tp2740
a(Vdue
g6
tp2741
a(Vmostly
g275
tp2742
a(Vcharisma
g6
tp2743
a(Vstar
g8
tp2744
a(Vjane
g8
tp2745
a(Vfonda
g8
tp2746
a(Vrobert
g8
tp2747
a(Vde
g167
tp2748
a(Vniro
g588
tp2749
a(Vterrific
g8
tp2750
aa(lp2751
(S'widow'
g8
tp2752
a(S'move'
g8
tp2753
a(S'illiterate'
g8
tp2754
a(S'closet-inventor--you'
g8
tp2755
a(S'probably'
g1196
tp2756
a(S'guess'
g6
tp2757
a(S'rest'
g8
tp2758
aa(lp2759
(S'adaptation'
g8
tp2760
a(S'pat'
g8
tp2761
a(S'barker'
g8
tp2762
a(S'novel'
g167
tp2763
a(S'union'
S'NN'
p2764
tp2765
a(S'street'
g8
tp2766
a(S'better'
g37
tp2767
a(S'title'
g8
tp2768
aa(lp2769
(Vlaid-back
g6
tp2770
a(Vverge
g8
tp2771
a(Vbland
g8
tp2772
a(Vfilm
g285
tp2773
a(Vediting
g27
tp2774
a(Vmess
g8
tp2775
a(Vbut
g115
tp2776
a(Vstill
g670
tp2777
a(Vpleasant
g6
tp2778
a(Vrosy-hued
g6
tp2779
a(Vblue-collar
g6
tp2780
a(Vfantasy
g8
tp2781
aa(lp2782
(Vno
g126
tp2783
a(Voverture
g8
tp2784
a(Vserious
g2293
tp2785
a(Vissue
g8
tp2786
a(Veven
g4
tp2787
a(Villiteracy
g6
tp2788
a(Vangle
g167
tp2789
a(Vplot-tool
g6
tp2790
a(Vensuing
g27
tp2791
a(Vlove
g8
tp2792
a(Vstory
g123
tp2793
a(Vno
g126
tp2794
a(Vreal
g162
tp2795
a(Vfirework
g8
tp2796
a(Vthough
g167
tp2797
a(Vcharacter
g8
tp2798
a(Vintentionally
g4
tp2799
a(Vbit
g4
tp2800
a(Vcolorless
g6
tp2801
a(Vlead
g8
tp2802
a(Vtoned
g59
tp2803
a(Vinteresting
g6
tp2804
a(Vdegree
g8
tp2805
aa(lp2806
(Vfinale
g6
tp2807
a(Vpure
g8
tp2808
a(Vfluff--and
g8
tp2809
a(Vcynic
g6
tp2810
a(Vfind
g8
tp2811
a(Vdifficult
g648
tp2812
a(Vswallow--though
g6
tp2813
a(Vtwo
g1267
tp2814
a(Vcharacter
g8
tp2815
a(Vdeserve
g8
tp2816
a(Vhappy
g6
tp2817
a(Vending
g605
tp2818
a(Vpicture
g8
tp2819
a(Vreally
g117
tp2820
a(Vsatisfying
g6
tp2821
a(Vway
g956
tp2822
aaa.